; Listing generated by Microsoft (R) Optimizing Compiler Version 14.01.60511.01 

	TTL	C:\WINCE600\PLATFORM\Z2170P\SRC\BOOTLOADER\DISPLAY\bsp_logo.c
	CODE32

  00000			 AREA	 |.drectve|, DRECTVE
	DCB	"-defaultlib:LIBCMT "
	DCB	"-defaultlib:OLDNAMES "

	EXPORT	|g_d3Sec| [ DATA ]
	EXPORT	|asciiFont| [ DATA ]
	EXPORT	|hGpio| [ DATA ]

  00000			 AREA	 |.data|, DATA
	 COMMON	|g_dwLogoWidth|, 0x4

	 COMMON	|g_dwLogoHeight|, 0x4

	 COMMON	|g_dwLogoPosY|, 0x4

	 COMMON	|g_dwLogoPosX|, 0x4

	 COMMON	|g_hGPIO_2046|, 0x4


  00000			 AREA	 |.bss|, NOINIT
|g_nHeight| %	0x4
|g_nWidth| %	0x4
|g_wFontColor| % 0x4
|g_dwFrameBuffer| % 0x4
|hGpio|	%	0x4

  00000			 AREA	 |.data|, DATA
|g_d3Sec| DCD	0x2dc6c0
|g_wBkColor| DCD 0xffffffff
|?nWidth@?1??FillASCII@@9@9| DCD 0xb4			; `FillASCII'::`2'::nWidth
|?cur_col@?1??FillASCII@@9@9| DCD 0xd			; `FillASCII'::`2'::cur_col
|?cur_row@?1??FillASCII@@9@9| DCD 0x7			; `FillASCII'::`2'::cur_row

  00000			 AREA	 |.rdata|, DATA, READONLY
|EdbgVendorIds| DCW 0x0
	DCW	0x0
	DCD	0x4033
	DCB	0x1
	DCB	"AD", 0x0
	DCW	0x1050
	DCW	0x940
	DCD	0x4005
	DCB	0x1
	DCB	"LS", 0x0
	DCW	0x1050
	DCW	0x940
	DCD	0x2078
	DCB	0x1
	DCB	"LS", 0x0
	DCW	0x10ec
	DCW	0x8029
	DCD	0xc0f0
	DCB	0x1
	DCB	"KS", 0x0
	DCW	0x10ec
	DCW	0x8129
	DCD	0x0
	DCB	0x4
	DCB	"RT", 0x0
	DCW	0x10ec
	DCW	0x8139
	DCD	0x900b
	DCB	0x4
	DCB	"RT", 0x0
	DCW	0x10ec
	DCW	0x8139
	DCD	0xd0c9
	DCB	0x4
	DCB	"RT", 0x0
	DCW	0x10ec
	DCW	0x8139
	DCD	0xe04c
	DCB	0x4
	DCB	"RT", 0x0
	DCW	0x1186
	DCW	0x1300
	DCD	0x50ba
	DCB	0x4
	DCB	"DL", 0x0
	DCW	0x100b
	DCW	0x20
	DCD	0xa0cc
	DCB	0x5
	DCB	"NG", 0x0
	DCW	0x10b7
	DCW	0x9050
	DCD	0x6008
	DCB	0x6
	DCB	"3C", 0x0
	DCW	0x10b7
	DCW	0x9200
	DCD	0x476
	DCB	0x6
	DCB	"3C", 0x0
|asciiFont| DCB	0x0
	DCB	0x0
	DCB	0x0
	DCB	0x0
	DCB	0x0
	DCB	0x0
	DCB	0x0
	DCB	0x0
	DCB	0x0
	DCB	0x0
	DCB	0x0
	DCB	0x0
	DCB	0x0
	DCB	0x0
	DCB	0x0
	DCB	0x0
	DCB	0x0
	DCB	0x0
	DCB	0x0
	DCB	0x0
	DCB	0x0
	DCB	0x0
	DCB	0x0
	DCB	0x0
	DCB	0x0
	DCB	0x0
	DCB	0x0
	DCB	0x0
	DCB	0x0
	DCB	0x0
	DCB	0x0
	DCB	0x0
	DCB	0x0
	DCB	0x0
	DCB	0x0
	DCB	0x0
	DCB	0x0
	DCB	0x0
	DCB	0x0
	DCB	0x0
	DCB	0x0
	DCB	0x0
	DCB	0x0
	DCB	0x0
	DCB	0x0
	DCB	0x0
	DCB	0x0
	DCB	0x0
	DCB	0x0
	DCB	0x0
	DCB	0x0
	DCB	0x0
	DCB	0x0
	DCB	0x0
	DCB	0x0
	DCB	0x0
	DCB	0x0
	DCB	0x0
	DCB	0x0
	DCB	0x0
	DCB	0x0
	DCB	0x0
	DCB	0x0
	DCB	0x0
	DCB	0x0
	DCB	0x0
	DCB	0x0
	DCB	0x0
	DCB	0x0
	DCB	0x0
	DCB	0x0
	DCB	0x0
	DCB	0x0
	DCB	0x0
	DCB	0x0
	DCB	0x0
	DCB	0x0
	DCB	0x0
	DCB	0x0
	DCB	0x0
	DCB	0x0
	DCB	0x0
	DCB	0x0
	DCB	0x0
	DCB	0x0
	DCB	0x0
	DCB	0x0
	DCB	0x0
	DCB	0x0
	DCB	0x0
	DCB	0x0
	DCB	0x0
	DCB	0x0
	DCB	0x0
	DCB	0x0
	DCB	0x0
	DCB	0x0
	DCB	0x0
	DCB	0x0
	DCB	0x0
	DCB	0x0
	DCB	0x0
	DCB	0x0
	DCB	0x0
	DCB	0x0
	DCB	0x0
	DCB	0x0
	DCB	0x0
	DCB	0x0
	DCB	0x0
	DCB	0x0
	DCB	0x0
	DCB	0x0
	DCB	0x0
	DCB	0x0
	DCB	0x0
	DCB	0x0
	DCB	0x0
	DCB	0x0
	DCB	0x0
	DCB	0x0
	DCB	0x0
	DCB	0x0
	DCB	0x0
	DCB	0x0
	DCB	0x0
	DCB	0x0
	DCB	0x0
	DCB	0x0
	DCB	0x0
	DCB	0x0
	DCB	0x0
	DCB	0x0
	DCB	0x0
	DCB	0x0
	DCB	0x0
	DCB	0x0
	DCB	0x0
	DCB	0x0
	DCB	0x0
	DCB	0x0
	DCB	0x0
	DCB	0x0
	DCB	0x0
	DCB	0x0
	DCB	0x0
	DCB	0x0
	DCB	0x0
	DCB	0x0
	DCB	0x0
	DCB	0x0
	DCB	0x0
	DCB	0x0
	DCB	0x0
	DCB	0x0
	DCB	0x0
	DCB	0x0
	DCB	0x0
	DCB	0x0
	DCB	0x0
	DCB	0x0
	DCB	0x0
	DCB	0x0
	DCB	0x0
	DCB	0x0
	DCB	0x0
	DCB	0x0
	DCB	0x0
	DCB	0x0
	DCB	0x0
	DCB	0x0
	DCB	0x0
	DCB	0x0
	DCB	0x0
	DCB	0x0
	DCB	0x0
	DCB	0x0
	DCB	0x0
	DCB	0x0
	DCB	0x0
	DCB	0x0
	DCB	0x0
	DCB	0x0
	DCB	0x0
	DCB	0x0
	DCB	0x0
	DCB	0x0
	DCB	0x0
	DCB	0x0
	DCB	0x0
	DCB	0x0
	DCB	0x0
	DCB	0x0
	DCB	0x0
	DCB	0x0
	DCB	0x0
	DCB	0x0
	DCB	0x0
	DCB	0x0
	DCB	0x0
	DCB	0x0
	DCB	0x0
	DCB	0x0
	DCB	0x0
	DCB	0x0
	DCB	0x0
	DCB	0x0
	DCB	0x0
	DCB	0x0
	DCB	0x0
	DCB	0x0
	DCB	0x0
	DCB	0x0
	DCB	0x0
	DCB	0x0
	DCB	0x0
	DCB	0x0
	DCB	0x0
	DCB	0x0
	DCB	0x0
	DCB	0x0
	DCB	0x0
	DCB	0x0
	DCB	0x0
	DCB	0x0
	DCB	0x0
	DCB	0x0
	DCB	0x0
	DCB	0x0
	DCB	0x0
	DCB	0x0
	DCB	0x0
	DCB	0x0
	DCB	0x0
	DCB	0x0
	DCB	0x0
	DCB	0x0
	DCB	0x0
	DCB	0x0
	DCB	0x0
	DCB	0x0
	DCB	0x0
	DCB	0x0
	DCB	0x0
	DCB	0x0
	DCB	0x0
	DCB	0x0
	DCB	0x0
	DCB	0x0
	DCB	0x0
	DCB	0x0
	DCB	0x0
	DCB	0x0
	DCB	0x0
	DCB	0x0
	DCB	0x0
	DCB	0x0
	DCB	0x0
	DCB	0x0
	DCB	0x0
	DCB	0x0
	DCB	0x0
	DCB	0x0
	DCB	0x0
	DCB	0x0
	DCB	0x0
	DCB	0x0
	DCB	0x0
	DCB	0x0
	DCB	0x0
	DCB	0x0
	DCB	0x0
	DCB	0x0
	DCB	0x0
	DCB	0x0
	DCB	0x0
	DCB	0x0
	DCB	0x0
	DCB	0x0
	DCB	0x0
	DCB	0x0
	DCB	0x0
	DCB	0x0
	DCB	0x0
	DCB	0x0
	DCB	0x0
	DCB	0x0
	DCB	0x0
	DCB	0x0
	DCB	0x0
	DCB	0x0
	DCB	0x0
	DCB	0x0
	DCB	0x0
	DCB	0x0
	DCB	0x0
	DCB	0x0
	DCB	0x0
	DCB	0x0
	DCB	0x0
	DCB	0x0
	DCB	0x0
	DCB	0x0
	DCB	0x0
	DCB	0x0
	DCB	0x0
	DCB	0x0
	DCB	0x0
	DCB	0x0
	DCB	0x0
	DCB	0x0
	DCB	0x0
	DCB	0x0
	DCB	0x0
	DCB	0x0
	DCB	0x0
	DCB	0x0
	DCB	0x0
	DCB	0x0
	DCB	0x0
	DCB	0x0
	DCB	0x0
	DCB	0x0
	DCB	0x0
	DCB	0x0
	DCB	0x0
	DCB	0x0
	DCB	0x0
	DCB	0x0
	DCB	0x0
	DCB	0x0
	DCB	0x0
	DCB	0x0
	DCB	0x0
	DCB	0x0
	DCB	0x0
	DCB	0x0
	DCB	0x0
	DCB	0x0
	DCB	0x0
	DCB	0x0
	DCB	0x0
	DCB	0x0
	DCB	0x0
	DCB	0x0
	DCB	0x0
	DCB	0x0
	DCB	0x0
	DCB	0x0
	DCB	0x0
	DCB	0x0
	DCB	0x0
	DCB	0x0
	DCB	0x0
	DCB	0x0
	DCB	0x0
	DCB	0x0
	DCB	0x0
	DCB	0x0
	DCB	0x0
	DCB	0x0
	DCB	0x0
	DCB	0x0
	DCB	0x0
	DCB	0x0
	DCB	0x0
	DCB	0x0
	DCB	0x0
	DCB	0x0
	DCB	0x0
	DCB	0x0
	DCB	0x0
	DCB	0x0
	DCB	0x0
	DCB	0x0
	DCB	0x0
	DCB	0x0
	DCB	0x0
	DCB	0x0
	DCB	0x0
	DCB	0x0
	DCB	0x0
	DCB	0x0
	DCB	0x0
	DCB	0x0
	DCB	0x0
	DCB	0x0
	DCB	0x0
	DCB	0x0
	DCB	0x0
	DCB	0x0
	DCB	0x0
	DCB	0x0
	DCB	0x0
	DCB	0x0
	DCB	0x0
	DCB	0x0
	DCB	0x0
	DCB	0x0
	DCB	0x0
	DCB	0x0
	DCB	0x0
	DCB	0x0
	DCB	0x0
	DCB	0x0
	DCB	0x0
	DCB	0x0
	DCB	0x0
	DCB	0x0
	DCB	0x0
	DCB	0x0
	DCB	0x0
	DCB	0x0
	DCB	0x0
	DCB	0x0
	DCB	0x0
	DCB	0x0
	DCB	0x0
	DCB	0x0
	DCB	0x0
	DCB	0x0
	DCB	0x0
	DCB	0x0
	DCB	0x0
	DCB	0x0
	DCB	0x0
	DCB	0x0
	DCB	0x0
	DCB	0x0
	DCB	0x0
	DCB	0x0
	DCB	0x0
	DCB	0x0
	DCB	0x0
	DCB	0x0
	DCB	0x0
	DCB	0x0
	DCB	0x0
	DCB	0x0
	DCB	0x0
	DCB	0x0
	DCB	0x0
	DCB	0x0
	DCB	0x0
	DCB	0x0
	DCB	0x0
	DCB	0x0
	DCB	0x0
	DCB	0x0
	DCB	0x0
	DCB	0x0
	DCB	0x0
	DCB	0x0
	DCB	0x0
	DCB	0x0
	DCB	0x0
	DCB	0x0
	DCB	0x0
	DCB	0x0
	DCB	0x0
	DCB	0x0
	DCB	0x0
	DCB	0x0
	DCB	0x0
	DCB	0x0
	DCB	0x0
	DCB	0x0
	DCB	0x0
	DCB	0x0
	DCB	0x0
	DCB	0x0
	DCB	0x0
	DCB	0x0
	DCB	0x0
	DCB	0x0
	DCB	0x0
	DCB	0x0
	DCB	0x0
	DCB	0x0
	DCB	0x0
	DCB	0x0
	DCB	0x0
	DCB	0x0
	DCB	0x0
	DCB	0x0
	DCB	0x0
	DCB	0x0
	DCB	0x0
	DCB	0x0
	DCB	0x0
	DCB	0x0
	DCB	0x0
	DCB	0x0
	DCB	0x0
	DCB	0x0
	DCB	0x0
	DCB	0x0
	DCB	0x0
	DCB	0x0
	DCB	0x0
	DCB	0x0
	DCB	0x0
	DCB	0x0
	DCB	0x0
	DCB	0x0
	DCB	0x0
	DCB	0x0
	DCB	0x0
	DCB	0x0
	DCB	0x0
	DCB	0x0
	DCB	0x0
	DCB	0x0
	DCB	0x0
	DCB	0x0
	DCB	0x0
	DCB	0x0
	DCB	0x0
	DCB	0x0
	DCB	0x0
	DCB	0x0
	DCB	0x0
	DCB	0x0
	DCB	0x0
	DCB	0x0
	DCB	0x0
	DCB	0x0
	DCB	0x0
	DCB	0x0
	DCB	0x0
	DCB	0x0
	DCB	0x18
	DCB	0x3c
	DCB	0x3c
	DCB	0x3c
	DCB	0x18
	DCB	0x18
	DCB	0x0
	DCB	0x18
	DCB	0x18
	DCB	0x0
	DCB	0x0
	DCB	0x0
	DCB	0x0
	DCB	0x0
	DCB	0x0
	DCB	0x0
	DCB	0x66
	DCB	0x66
	DCB	0x66
	DCB	0x0
	DCB	0x0
	DCB	0x0
	DCB	0x0
	DCB	0x0
	DCB	0x0
	DCB	0x0
	DCB	0x0
	DCB	0x0
	DCB	0x0
	DCB	0x0
	DCB	0x0
	DCB	0x0
	DCB	0x36
	DCB	0x36
	DCB	0x7f
	DCB	0x36
	DCB	0x36
	DCB	0x36
	DCB	0x7f
	DCB	0x36
	DCB	0x36
	DCB	0x0
	DCB	0x0
	DCB	0x0
	DCB	0x0
	DCB	0x0
	DCB	0x18
	DCB	0x18
	DCB	0x3c
	DCB	0x66
	DCB	0x60
	DCB	0x30
	DCB	0x18
	DCB	0xc
	DCB	0x6
	DCB	0x66
	DCB	0x3c
	DCB	0x18
	DCB	0x18
	DCB	0x0
	DCB	0x0
	DCB	0x0
	DCB	0x0
	DCB	0x70
	DCB	0xd8
	DCB	0xda
	DCB	0x76
	DCB	0xc
	DCB	0x18
	DCB	0x30
	DCB	0x6e
	DCB	0x5b
	DCB	0x1b
	DCB	0xe
	DCB	0x0
	DCB	0x0
	DCB	0x0
	DCB	0x0
	DCB	0x0
	DCB	0x70
	DCB	0xd0
	DCB	0xd0
	DCB	0x70
	DCB	0x0
	DCB	0x10
	DCB	0x30
	DCB	0x60
	DCB	0x50
	DCB	0x10
	DCB	0x0
	DCB	0x0
	DCB	0x0
	DCB	0x0
	DCB	0x0
	DCB	0x0
	DCB	0x0
	DCB	0x18
	DCB	0x18
	DCB	0x18
	DCB	0x0
	DCB	0x0
	DCB	0x0
	DCB	0x0
	DCB	0x0
	DCB	0x0
	DCB	0x0
	DCB	0x0
	DCB	0x0
	DCB	0x0
	DCB	0x0
	DCB	0x0
	DCB	0x0
	DCB	0xc
	DCB	0x18
	DCB	0x18
	DCB	0x30
	DCB	0x30
	DCB	0x30
	DCB	0x30
	DCB	0x30
	DCB	0x18
	DCB	0x18
	DCB	0xc
	DCB	0x0
	DCB	0x0
	DCB	0x0
	DCB	0x0
	DCB	0x0
	DCB	0x30
	DCB	0x18
	DCB	0x18
	DCB	0xc
	DCB	0xc
	DCB	0xc
	DCB	0xc
	DCB	0xc
	DCB	0x18
	DCB	0x18
	DCB	0x30
	DCB	0x0
	DCB	0x0
	DCB	0x0
	DCB	0x0
	DCB	0x0
	DCB	0x0
	DCB	0x0
	DCB	0x36
	DCB	0x1c
	DCB	0x7f
	DCB	0x1c
	DCB	0x36
	DCB	0x0
	DCB	0x0
	DCB	0x0
	DCB	0x0
	DCB	0x0
	DCB	0x0
	DCB	0x0
	DCB	0x0
	DCB	0x0
	DCB	0x0
	DCB	0x0
	DCB	0x18
	DCB	0x18
	DCB	0x7e
	DCB	0x18
	DCB	0x18
	DCB	0x0
	DCB	0x0
	DCB	0x0
	DCB	0x0
	DCB	0x0
	DCB	0x0
	DCB	0x0
	DCB	0x0
	DCB	0x0
	DCB	0x0
	DCB	0x0
	DCB	0x0
	DCB	0x0
	DCB	0x0
	DCB	0x0
	DCB	0x0
	DCB	0x1c
	DCB	0x1c
	DCB	0xc
	DCB	0x18
	DCB	0x0
	DCB	0x0
	DCB	0x0
	DCB	0x0
	DCB	0x0
	DCB	0x0
	DCB	0x0
	DCB	0x0
	DCB	0x0
	DCB	0x7e
	DCB	0x0
	DCB	0x0
	DCB	0x0
	DCB	0x0
	DCB	0x0
	DCB	0x0
	DCB	0x0
	DCB	0x0
	DCB	0x0
	DCB	0x0
	DCB	0x0
	DCB	0x0
	DCB	0x0
	DCB	0x0
	DCB	0x0
	DCB	0x0
	DCB	0x0
	DCB	0x0
	DCB	0x1c
	DCB	0x1c
	DCB	0x0
	DCB	0x0
	DCB	0x0
	DCB	0x0
	DCB	0x0
	DCB	0x0
	DCB	0x0
	DCB	0x6
	DCB	0x6
	DCB	0xc
	DCB	0xc
	DCB	0x18
	DCB	0x18
	DCB	0x30
	DCB	0x30
	DCB	0x60
	DCB	0x60
	DCB	0x0
	DCB	0x0
	DCB	0x0
	DCB	0x0
	DCB	0x0
	DCB	0x0
	DCB	0x1e
	DCB	0x33
	DCB	0x37
	DCB	0x37
	DCB	0x33
	DCB	0x3b
	DCB	0x3b
	DCB	0x33
	DCB	0x1e
	DCB	0x0
	DCB	0x0
	DCB	0x0
	DCB	0x0
	DCB	0x0
	DCB	0x0
	DCB	0x0
	DCB	0xc
	DCB	0x1c
	DCB	0x7c
	DCB	0xc
	DCB	0xc
	DCB	0xc
	DCB	0xc
	DCB	0xc
	DCB	0xc
	DCB	0x0
	DCB	0x0
	DCB	0x0
	DCB	0x0
	DCB	0x0
	DCB	0x0
	DCB	0x0
	DCB	0x3c
	DCB	0x66
	DCB	0x66
	DCB	0x6
	DCB	0xc
	DCB	0x18
	DCB	0x30
	DCB	0x60
	DCB	0x7e
	DCB	0x0
	DCB	0x0
	DCB	0x0
	DCB	0x0
	DCB	0x0
	DCB	0x0
	DCB	0x0
	DCB	0x3c
	DCB	0x66
	DCB	0x66
	DCB	0x6
	DCB	0x1c
	DCB	0x6
	DCB	0x66
	DCB	0x66
	DCB	0x3c
	DCB	0x0
	DCB	0x0
	DCB	0x0
	DCB	0x0
	DCB	0x0
	DCB	0x0
	DCB	0x0
	DCB	0x30
	DCB	0x30
	DCB	0x36
	DCB	0x36
	DCB	0x36
	DCB	0x66
	DCB	0x7f
	DCB	0x6
	DCB	0x6
	DCB	0x0
	DCB	0x0
	DCB	0x0
	DCB	0x0
	DCB	0x0
	DCB	0x0
	DCB	0x0
	DCB	0x7e
	DCB	0x60
	DCB	0x60
	DCB	0x60
	DCB	0x7c
	DCB	0x6
	DCB	0x6
	DCB	0xc
	DCB	0x78
	DCB	0x0
	DCB	0x0
	DCB	0x0
	DCB	0x0
	DCB	0x0
	DCB	0x0
	DCB	0x0
	DCB	0x1c
	DCB	0x18
	DCB	0x30
	DCB	0x7c
	DCB	0x66
	DCB	0x66
	DCB	0x66
	DCB	0x66
	DCB	0x3c
	DCB	0x0
	DCB	0x0
	DCB	0x0
	DCB	0x0
	DCB	0x0
	DCB	0x0
	DCB	0x0
	DCB	0x7e
	DCB	0x6
	DCB	0xc
	DCB	0xc
	DCB	0x18
	DCB	0x18
	DCB	0x30
	DCB	0x30
	DCB	0x30
	DCB	0x0
	DCB	0x0
	DCB	0x0
	DCB	0x0
	DCB	0x0
	DCB	0x0
	DCB	0x0
	DCB	0x3c
	DCB	0x66
	DCB	0x66
	DCB	0x76
	DCB	0x3c
	DCB	0x6e
	DCB	0x66
	DCB	0x66
	DCB	0x3c
	DCB	0x0
	DCB	0x0
	DCB	0x0
	DCB	0x0
	DCB	0x0
	DCB	0x0
	DCB	0x0
	DCB	0x3c
	DCB	0x66
	DCB	0x66
	DCB	0x66
	DCB	0x66
	DCB	0x3e
	DCB	0xc
	DCB	0x18
	DCB	0x38
	DCB	0x0
	DCB	0x0
	DCB	0x0
	DCB	0x0
	DCB	0x0
	DCB	0x0
	DCB	0x0
	DCB	0x0
	DCB	0x0
	DCB	0x1c
	DCB	0x1c
	DCB	0x0
	DCB	0x0
	DCB	0x0
	DCB	0x1c
	DCB	0x1c
	DCB	0x0
	DCB	0x0
	DCB	0x0
	DCB	0x0
	DCB	0x0
	DCB	0x0
	DCB	0x0
	DCB	0x0
	DCB	0x0
	DCB	0x1c
	DCB	0x1c
	DCB	0x0
	DCB	0x0
	DCB	0x0
	DCB	0x1c
	DCB	0x1c
	DCB	0xc
	DCB	0x18
	DCB	0x0
	DCB	0x0
	DCB	0x0
	DCB	0x0
	DCB	0x0
	DCB	0x6
	DCB	0xc
	DCB	0x18
	DCB	0x30
	DCB	0x60
	DCB	0x30
	DCB	0x18
	DCB	0xc
	DCB	0x6
	DCB	0x0
	DCB	0x0
	DCB	0x0
	DCB	0x0
	DCB	0x0
	DCB	0x0
	DCB	0x0
	DCB	0x0
	DCB	0x0
	DCB	0x0
	DCB	0x7e
	DCB	0x0
	DCB	0x7e
	DCB	0x0
	DCB	0x0
	DCB	0x0
	DCB	0x0
	DCB	0x0
	DCB	0x0
	DCB	0x0
	DCB	0x0
	DCB	0x0
	DCB	0x0
	DCB	0x60
	DCB	0x30
	DCB	0x18
	DCB	0xc
	DCB	0x6
	DCB	0xc
	DCB	0x18
	DCB	0x30
	DCB	0x60
	DCB	0x0
	DCB	0x0
	DCB	0x0
	DCB	0x0
	DCB	0x0
	DCB	0x0
	DCB	0x0
	DCB	0x3c
	DCB	0x66
	DCB	0x66
	DCB	0xc
	DCB	0x18
	DCB	0x18
	DCB	0x0
	DCB	0x18
	DCB	0x18
	DCB	0x0
	DCB	0x0
	DCB	0x0
	DCB	0x0
	DCB	0x0
	DCB	0x0
	DCB	0x0
	DCB	0x7e
	DCB	0xc3
	DCB	0xc3
	DCB	0xcf
	DCB	0xdb
	DCB	0xdb
	DCB	0xcf
	DCB	0xc0
	DCB	0x7f
	DCB	0x0
	DCB	0x0
	DCB	0x0
	DCB	0x0
	DCB	0x0
	DCB	0x0
	DCB	0x0
	DCB	0x18
	DCB	0x3c
	DCB	0x66
	DCB	0x66
	DCB	0x66
	DCB	0x7e
	DCB	0x66
	DCB	0x66
	DCB	0x66
	DCB	0x0
	DCB	0x0
	DCB	0x0
	DCB	0x0
	DCB	0x0
	DCB	0x0
	DCB	0x0
	DCB	0x7c
	DCB	0x66
	DCB	0x66
	DCB	0x66
	DCB	0x7c
	DCB	0x66
	DCB	0x66
	DCB	0x66
	DCB	0x7c
	DCB	0x0
	DCB	0x0
	DCB	0x0
	DCB	0x0
	DCB	0x0
	DCB	0x0
	DCB	0x0
	DCB	0x3c
	DCB	0x66
	DCB	0x66
	DCB	0x60
	DCB	0x60
	DCB	0x60
	DCB	0x66
	DCB	0x66
	DCB	0x3c
	DCB	0x0
	DCB	0x0
	DCB	0x0
	DCB	0x0
	DCB	0x0
	DCB	0x0
	DCB	0x0
	DCB	0x78
	DCB	0x6c
	DCB	0x66
	DCB	0x66
	DCB	0x66
	DCB	0x66
	DCB	0x66
	DCB	0x6c
	DCB	0x78
	DCB	0x0
	DCB	0x0
	DCB	0x0
	DCB	0x0
	DCB	0x0
	DCB	0x0
	DCB	0x0
	DCB	0x7e
	DCB	0x60
	DCB	0x60
	DCB	0x60
	DCB	0x7c
	DCB	0x60
	DCB	0x60
	DCB	0x60
	DCB	0x7e
	DCB	0x0
	DCB	0x0
	DCB	0x0
	DCB	0x0
	DCB	0x0
	DCB	0x0
	DCB	0x0
	DCB	0x7e
	DCB	0x60
	DCB	0x60
	DCB	0x60
	DCB	0x7c
	DCB	0x60
	DCB	0x60
	DCB	0x60
	DCB	0x60
	DCB	0x0
	DCB	0x0
	DCB	0x0
	DCB	0x0
	DCB	0x0
	DCB	0x0
	DCB	0x0
	DCB	0x3c
	DCB	0x66
	DCB	0x66
	DCB	0x60
	DCB	0x60
	DCB	0x6e
	DCB	0x66
	DCB	0x66
	DCB	0x3e
	DCB	0x0
	DCB	0x0
	DCB	0x0
	DCB	0x0
	DCB	0x0
	DCB	0x0
	DCB	0x0
	DCB	0x66
	DCB	0x66
	DCB	0x66
	DCB	0x66
	DCB	0x7e
	DCB	0x66
	DCB	0x66
	DCB	0x66
	DCB	0x66
	DCB	0x0
	DCB	0x0
	DCB	0x0
	DCB	0x0
	DCB	0x0
	DCB	0x0
	DCB	0x0
	DCB	0x3c
	DCB	0x18
	DCB	0x18
	DCB	0x18
	DCB	0x18
	DCB	0x18
	DCB	0x18
	DCB	0x18
	DCB	0x3c
	DCB	0x0
	DCB	0x0
	DCB	0x0
	DCB	0x0
	DCB	0x0
	DCB	0x0
	DCB	0x0
	DCB	0x6
	DCB	0x6
	DCB	0x6
	DCB	0x6
	DCB	0x6
	DCB	0x6
	DCB	0x66
	DCB	0x66
	DCB	0x3c
	DCB	0x0
	DCB	0x0
	DCB	0x0
	DCB	0x0
	DCB	0x0
	DCB	0x0
	DCB	0x0
	DCB	0x66
	DCB	0x66
	DCB	0x6c
	DCB	0x6c
	DCB	0x78
	DCB	0x6c
	DCB	0x6c
	DCB	0x66
	DCB	0x66
	DCB	0x0
	DCB	0x0
	DCB	0x0
	DCB	0x0
	DCB	0x0
	DCB	0x0
	DCB	0x0
	DCB	0x60
	DCB	0x60
	DCB	0x60
	DCB	0x60
	DCB	0x60
	DCB	0x60
	DCB	0x60
	DCB	0x60
	DCB	0x7e
	DCB	0x0
	DCB	0x0
	DCB	0x0
	DCB	0x0
	DCB	0x0
	DCB	0x0
	DCB	0x0
	DCB	0x63
	DCB	0x63
	DCB	0x77
	DCB	0x6b
	DCB	0x6b
	DCB	0x6b
	DCB	0x63
	DCB	0x63
	DCB	0x63
	DCB	0x0
	DCB	0x0
	DCB	0x0
	DCB	0x0
	DCB	0x0
	DCB	0x0
	DCB	0x0
	DCB	0x63
	DCB	0x63
	DCB	0x73
	DCB	0x7b
	DCB	0x6f
	DCB	0x67
	DCB	0x63
	DCB	0x63
	DCB	0x63
	DCB	0x0
	DCB	0x0
	DCB	0x0
	DCB	0x0
	DCB	0x0
	DCB	0x0
	DCB	0x0
	DCB	0x3c
	DCB	0x66
	DCB	0x66
	DCB	0x66
	DCB	0x66
	DCB	0x66
	DCB	0x66
	DCB	0x66
	DCB	0x3c
	DCB	0x0
	DCB	0x0
	DCB	0x0
	DCB	0x0
	DCB	0x0
	DCB	0x0
	DCB	0x0
	DCB	0x7c
	DCB	0x66
	DCB	0x66
	DCB	0x66
	DCB	0x7c
	DCB	0x60
	DCB	0x60
	DCB	0x60
	DCB	0x60
	DCB	0x0
	DCB	0x0
	DCB	0x0
	DCB	0x0
	DCB	0x0
	DCB	0x0
	DCB	0x0
	DCB	0x3c
	DCB	0x66
	DCB	0x66
	DCB	0x66
	DCB	0x66
	DCB	0x66
	DCB	0x66
	DCB	0x66
	DCB	0x3c
	DCB	0xc
	DCB	0x6
	DCB	0x0
	DCB	0x0
	DCB	0x0
	DCB	0x0
	DCB	0x0
	DCB	0x7c
	DCB	0x66
	DCB	0x66
	DCB	0x66
	DCB	0x7c
	DCB	0x6c
	DCB	0x66
	DCB	0x66
	DCB	0x66
	DCB	0x0
	DCB	0x0
	DCB	0x0
	DCB	0x0
	DCB	0x0
	DCB	0x0
	DCB	0x0
	DCB	0x3c
	DCB	0x66
	DCB	0x60
	DCB	0x30
	DCB	0x18
	DCB	0xc
	DCB	0x6
	DCB	0x66
	DCB	0x3c
	DCB	0x0
	DCB	0x0
	DCB	0x0
	DCB	0x0
	DCB	0x0
	DCB	0x0
	DCB	0x0
	DCB	0x7e
	DCB	0x18
	DCB	0x18
	DCB	0x18
	DCB	0x18
	DCB	0x18
	DCB	0x18
	DCB	0x18
	DCB	0x18
	DCB	0x0
	DCB	0x0
	DCB	0x0
	DCB	0x0
	DCB	0x0
	DCB	0x0
	DCB	0x0
	DCB	0x66
	DCB	0x66
	DCB	0x66
	DCB	0x66
	DCB	0x66
	DCB	0x66
	DCB	0x66
	DCB	0x66
	DCB	0x3c
	DCB	0x0
	DCB	0x0
	DCB	0x0
	DCB	0x0
	DCB	0x0
	DCB	0x0
	DCB	0x0
	DCB	0x66
	DCB	0x66
	DCB	0x66
	DCB	0x66
	DCB	0x66
	DCB	0x66
	DCB	0x66
	DCB	0x3c
	DCB	0x18
	DCB	0x0
	DCB	0x0
	DCB	0x0
	DCB	0x0
	DCB	0x0
	DCB	0x0
	DCB	0x0
	DCB	0x63
	DCB	0x63
	DCB	0x63
	DCB	0x6b
	DCB	0x6b
	DCB	0x6b
	DCB	0x36
	DCB	0x36
	DCB	0x36
	DCB	0x0
	DCB	0x0
	DCB	0x0
	DCB	0x0
	DCB	0x0
	DCB	0x0
	DCB	0x0
	DCB	0x66
	DCB	0x66
	DCB	0x34
	DCB	0x18
	DCB	0x18
	DCB	0x2c
	DCB	0x66
	DCB	0x66
	DCB	0x66
	DCB	0x0
	DCB	0x0
	DCB	0x0
	DCB	0x0
	DCB	0x0
	DCB	0x0
	DCB	0x0
	DCB	0x66
	DCB	0x66
	DCB	0x66
	DCB	0x66
	DCB	0x3c
	DCB	0x18
	DCB	0x18
	DCB	0x18
	DCB	0x18
	DCB	0x0
	DCB	0x0
	DCB	0x0
	DCB	0x0
	DCB	0x0
	DCB	0x0
	DCB	0x0
	DCB	0x7e
	DCB	0x6
	DCB	0x6
	DCB	0xc
	DCB	0x18
	DCB	0x30
	DCB	0x60
	DCB	0x60
	DCB	0x7e
	DCB	0x0
	DCB	0x0
	DCB	0x0
	DCB	0x0
	DCB	0x0
	DCB	0x0
	DCB	0x0
	DCB	0x3c
	DCB	0x30
	DCB	0x30
	DCB	0x30
	DCB	0x30
	DCB	0x30
	DCB	0x30
	DCB	0x30
	DCB	0x30
	DCB	0x30
	DCB	0x30
	DCB	0x3c
	DCB	0x3c
	DCB	0x0
	DCB	0x0
	DCB	0x0
	DCB	0x60
	DCB	0x60
	DCB	0x30
	DCB	0x30
	DCB	0x18
	DCB	0x18
	DCB	0xc
	DCB	0xc
	DCB	0x6
	DCB	0x6
	DCB	0x0
	DCB	0x0
	DCB	0x0
	DCB	0x0
	DCB	0x0
	DCB	0x0
	DCB	0x3c
	DCB	0xc
	DCB	0xc
	DCB	0xc
	DCB	0xc
	DCB	0xc
	DCB	0xc
	DCB	0xc
	DCB	0xc
	DCB	0xc
	DCB	0xc
	DCB	0x3c
	DCB	0x3c
	DCB	0x0
	DCB	0x18
	DCB	0x3c
	DCB	0x66
	DCB	0x0
	DCB	0x0
	DCB	0x0
	DCB	0x0
	DCB	0x0
	DCB	0x0
	DCB	0x0
	DCB	0x0
	DCB	0x0
	DCB	0x0
	DCB	0x0
	DCB	0x0
	DCB	0x0
	DCB	0x0
	DCB	0x0
	DCB	0x0
	DCB	0x0
	DCB	0x0
	DCB	0x0
	DCB	0x0
	DCB	0x0
	DCB	0x0
	DCB	0x0
	DCB	0x0
	DCB	0x0
	DCB	0x0
	DCB	0xff
	DCB	0xff
	DCB	0x0
	DCB	0x38
	DCB	0x18
	DCB	0xc
	DCB	0x0
	DCB	0x0
	DCB	0x0
	DCB	0x0
	DCB	0x0
	DCB	0x0
	DCB	0x0
	DCB	0x0
	DCB	0x0
	DCB	0x0
	DCB	0x0
	DCB	0x0
	DCB	0x0
	DCB	0x0
	DCB	0x0
	DCB	0x0
	DCB	0x0
	DCB	0x3c
	DCB	0x6
	DCB	0x6
	DCB	0x3e
	DCB	0x66
	DCB	0x66
	DCB	0x3e
	DCB	0x0
	DCB	0x0
	DCB	0x0
	DCB	0x0
	DCB	0x0
	DCB	0x0
	DCB	0x0
	DCB	0x60
	DCB	0x60
	DCB	0x7c
	DCB	0x66
	DCB	0x66
	DCB	0x66
	DCB	0x66
	DCB	0x66
	DCB	0x7c
	DCB	0x0
	DCB	0x0
	DCB	0x0
	DCB	0x0
	DCB	0x0
	DCB	0x0
	DCB	0x0
	DCB	0x0
	DCB	0x0
	DCB	0x3c
	DCB	0x66
	DCB	0x60
	DCB	0x60
	DCB	0x60
	DCB	0x66
	DCB	0x3c
	DCB	0x0
	DCB	0x0
	DCB	0x0
	DCB	0x0
	DCB	0x0
	DCB	0x0
	DCB	0x0
	DCB	0x6
	DCB	0x6
	DCB	0x3e
	DCB	0x66
	DCB	0x66
	DCB	0x66
	DCB	0x66
	DCB	0x66
	DCB	0x3e
	DCB	0x0
	DCB	0x0
	DCB	0x0
	DCB	0x0
	DCB	0x0
	DCB	0x0
	DCB	0x0
	DCB	0x0
	DCB	0x0
	DCB	0x3c
	DCB	0x66
	DCB	0x66
	DCB	0x7e
	DCB	0x60
	DCB	0x60
	DCB	0x3c
	DCB	0x0
	DCB	0x0
	DCB	0x0
	DCB	0x0
	DCB	0x0
	DCB	0x0
	DCB	0x0
	DCB	0x1e
	DCB	0x30
	DCB	0x30
	DCB	0x30
	DCB	0x7e
	DCB	0x30
	DCB	0x30
	DCB	0x30
	DCB	0x30
	DCB	0x0
	DCB	0x0
	DCB	0x0
	DCB	0x0
	DCB	0x0
	DCB	0x0
	DCB	0x0
	DCB	0x0
	DCB	0x0
	DCB	0x3e
	DCB	0x66
	DCB	0x66
	DCB	0x66
	DCB	0x66
	DCB	0x66
	DCB	0x3e
	DCB	0x6
	DCB	0x6
	DCB	0x7c
	DCB	0x7c
	DCB	0x0
	DCB	0x0
	DCB	0x0
	DCB	0x60
	DCB	0x60
	DCB	0x7c
	DCB	0x66
	DCB	0x66
	DCB	0x66
	DCB	0x66
	DCB	0x66
	DCB	0x66
	DCB	0x0
	DCB	0x0
	DCB	0x0
	DCB	0x0
	DCB	0x0
	DCB	0x0
	DCB	0x18
	DCB	0x18
	DCB	0x0
	DCB	0x78
	DCB	0x18
	DCB	0x18
	DCB	0x18
	DCB	0x18
	DCB	0x18
	DCB	0x7e
	DCB	0x0
	DCB	0x0
	DCB	0x0
	DCB	0x0
	DCB	0x0
	DCB	0x0
	DCB	0xc
	DCB	0xc
	DCB	0x0
	DCB	0x3c
	DCB	0xc
	DCB	0xc
	DCB	0xc
	DCB	0xc
	DCB	0xc
	DCB	0xc
	DCB	0xc
	DCB	0xc
	DCB	0x78
	DCB	0x78
	DCB	0x0
	DCB	0x0
	DCB	0x0
	DCB	0x60
	DCB	0x60
	DCB	0x66
	DCB	0x66
	DCB	0x6c
	DCB	0x78
	DCB	0x6c
	DCB	0x66
	DCB	0x66
	DCB	0x0
	DCB	0x0
	DCB	0x0
	DCB	0x0
	DCB	0x0
	DCB	0x0
	DCB	0x0
	DCB	0x78
	DCB	0x18
	DCB	0x18
	DCB	0x18
	DCB	0x18
	DCB	0x18
	DCB	0x18
	DCB	0x18
	DCB	0x7e
	DCB	0x0
	DCB	0x0
	DCB	0x0
	DCB	0x0
	DCB	0x0
	DCB	0x0
	DCB	0x0
	DCB	0x0
	DCB	0x0
	DCB	0x7e
	DCB	0x6b
	DCB	0x6b
	DCB	0x6b
	DCB	0x6b
	DCB	0x6b
	DCB	0x63
	DCB	0x0
	DCB	0x0
	DCB	0x0
	DCB	0x0
	DCB	0x0
	DCB	0x0
	DCB	0x0
	DCB	0x0
	DCB	0x0
	DCB	0x7c
	DCB	0x66
	DCB	0x66
	DCB	0x66
	DCB	0x66
	DCB	0x66
	DCB	0x66
	DCB	0x0
	DCB	0x0
	DCB	0x0
	DCB	0x0
	DCB	0x0
	DCB	0x0
	DCB	0x0
	DCB	0x0
	DCB	0x0
	DCB	0x3c
	DCB	0x66
	DCB	0x66
	DCB	0x66
	DCB	0x66
	DCB	0x66
	DCB	0x3c
	DCB	0x0
	DCB	0x0
	DCB	0x0
	DCB	0x0
	DCB	0x0
	DCB	0x0
	DCB	0x0
	DCB	0x0
	DCB	0x0
	DCB	0x7c
	DCB	0x66
	DCB	0x66
	DCB	0x66
	DCB	0x66
	DCB	0x66
	DCB	0x7c
	DCB	0x60
	DCB	0x60
	DCB	0x60
	DCB	0x60
	DCB	0x0
	DCB	0x0
	DCB	0x0
	DCB	0x0
	DCB	0x0
	DCB	0x3e
	DCB	0x66
	DCB	0x66
	DCB	0x66
	DCB	0x66
	DCB	0x66
	DCB	0x3e
	DCB	0x6
	DCB	0x6
	DCB	0x6
	DCB	0x6
	DCB	0x0
	DCB	0x0
	DCB	0x0
	DCB	0x0
	DCB	0x0
	DCB	0x66
	DCB	0x6e
	DCB	0x70
	DCB	0x60
	DCB	0x60
	DCB	0x60
	DCB	0x60
	DCB	0x0
	DCB	0x0
	DCB	0x0
	DCB	0x0
	DCB	0x0
	DCB	0x0
	DCB	0x0
	DCB	0x0
	DCB	0x0
	DCB	0x3e
	DCB	0x60
	DCB	0x60
	DCB	0x3c
	DCB	0x6
	DCB	0x6
	DCB	0x7c
	DCB	0x0
	DCB	0x0
	DCB	0x0
	DCB	0x0
	DCB	0x0
	DCB	0x0
	DCB	0x0
	DCB	0x30
	DCB	0x30
	DCB	0x7e
	DCB	0x30
	DCB	0x30
	DCB	0x30
	DCB	0x30
	DCB	0x30
	DCB	0x1e
	DCB	0x0
	DCB	0x0
	DCB	0x0
	DCB	0x0
	DCB	0x0
	DCB	0x0
	DCB	0x0
	DCB	0x0
	DCB	0x0
	DCB	0x66
	DCB	0x66
	DCB	0x66
	DCB	0x66
	DCB	0x66
	DCB	0x66
	DCB	0x3e
	DCB	0x0
	DCB	0x0
	DCB	0x0
	DCB	0x0
	DCB	0x0
	DCB	0x0
	DCB	0x0
	DCB	0x0
	DCB	0x0
	DCB	0x66
	DCB	0x66
	DCB	0x66
	DCB	0x66
	DCB	0x66
	DCB	0x3c
	DCB	0x18
	DCB	0x0
	DCB	0x0
	DCB	0x0
	DCB	0x0
	DCB	0x0
	DCB	0x0
	DCB	0x0
	DCB	0x0
	DCB	0x0
	DCB	0x63
	DCB	0x6b
	DCB	0x6b
	DCB	0x6b
	DCB	0x6b
	DCB	0x36
	DCB	0x36
	DCB	0x0
	DCB	0x0
	DCB	0x0
	DCB	0x0
	DCB	0x0
	DCB	0x0
	DCB	0x0
	DCB	0x0
	DCB	0x0
	DCB	0x66
	DCB	0x66
	DCB	0x3c
	DCB	0x18
	DCB	0x3c
	DCB	0x66
	DCB	0x66
	DCB	0x0
	DCB	0x0
	DCB	0x0
	DCB	0x0
	DCB	0x0
	DCB	0x0
	DCB	0x0
	DCB	0x0
	DCB	0x0
	DCB	0x66
	DCB	0x66
	DCB	0x66
	DCB	0x66
	DCB	0x66
	DCB	0x66
	DCB	0x3c
	DCB	0xc
	DCB	0x18
	DCB	0xf0
	DCB	0xf0
	DCB	0x0
	DCB	0x0
	DCB	0x0
	DCB	0x0
	DCB	0x0
	DCB	0x7e
	DCB	0x6
	DCB	0xc
	DCB	0x18
	DCB	0x30
	DCB	0x60
	DCB	0x7e
	DCB	0x0
	DCB	0x0
	DCB	0x0
	DCB	0x0
	DCB	0x0
	DCB	0x0
	DCB	0x0
	DCB	0xc
	DCB	0x18
	DCB	0x18
	DCB	0x18
	DCB	0x30
	DCB	0x60
	DCB	0x30
	DCB	0x18
	DCB	0x18
	DCB	0x18
	DCB	0xc
	DCB	0x0
	DCB	0x0
	DCB	0x0
	DCB	0x0
	DCB	0x0
	DCB	0x18
	DCB	0x18
	DCB	0x18
	DCB	0x18
	DCB	0x18
	DCB	0x18
	DCB	0x18
	DCB	0x18
	DCB	0x18
	DCB	0x18
	DCB	0x18
	DCB	0x18
	DCB	0x18
	DCB	0x0
	DCB	0x0
	DCB	0x0
	DCB	0x30
	DCB	0x18
	DCB	0x18
	DCB	0x18
	DCB	0xc
	DCB	0x6
	DCB	0xc
	DCB	0x18
	DCB	0x18
	DCB	0x18
	DCB	0x30
	DCB	0x0
	DCB	0x0
	DCB	0x0
	DCB	0x0
	DCB	0x0
	DCB	0x71
	DCB	0xdb
	DCB	0x8e
	DCB	0x0
	DCB	0x0
	DCB	0x0
	DCB	0x0
	DCB	0x0
	DCB	0x0
	DCB	0x0
	DCB	0x0
	DCB	0x0
	DCB	0x0
	DCB	0x0
	DCB	0x0
	DCB	0x0
	DCB	0x0
	DCB	0x0
	DCB	0x0
	DCB	0x0
	DCB	0x0
	DCB	0x0
	DCB	0x0
	DCB	0x0
	DCB	0x0
	DCB	0x0
	DCB	0x0
	DCB	0x0
	DCB	0x0
	DCB	0x0
	DCB	0x0
	DCB	0x0
	DCB	0x0
	DCB	0x0
	DCB	0x0
	DCB	0x0
	DCB	0x0
	DCB	0x0
	DCB	0x0
	DCB	0x0
	DCB	0x0
	DCB	0x0
	DCB	0x0
	DCB	0x0
	DCB	0x0
	DCB	0x0
	DCB	0x0
	DCB	0x0
	DCB	0x0
	DCB	0x0
	DCB	0x0
	DCB	0x0
	DCB	0x0
	DCB	0x0
	DCB	0x0
	DCB	0x0
	DCB	0x0
	DCB	0x0
	DCB	0x0
	DCB	0x0
	DCB	0x0
	DCB	0x0
	DCB	0x0
	DCB	0x0
	DCB	0x0
	DCB	0x0
	DCB	0x0
	DCB	0x0
	DCB	0x0
	DCB	0x0
	DCB	0x0
	DCB	0x0
	DCB	0x0
	DCB	0x0
	DCB	0x0
	DCB	0x0
	DCB	0x0
	DCB	0x0
	DCB	0x0
	DCB	0x0
	DCB	0x0
	DCB	0x0
	DCB	0x0
	DCB	0x0
	DCB	0x0
	DCB	0x0
	DCB	0x0
	DCB	0x0
	DCB	0x0
	DCB	0x0
	DCB	0x0
	DCB	0x0
	DCB	0x0
	DCB	0x0
	DCB	0x0
	DCB	0x0
	DCB	0x0
	DCB	0x0
	DCB	0x0
	DCB	0x0
	DCB	0x0
	DCB	0x0
	DCB	0x0
	DCB	0x0
	DCB	0x0
	DCB	0x0
	DCB	0x0
	DCB	0x0
	DCB	0x0
	DCB	0x0
	DCB	0x0
	DCB	0x0
	DCB	0x0
	DCB	0x0
	DCB	0x0
	DCB	0x0
	DCB	0x0
	DCB	0x0
	DCB	0x0
	DCB	0x0
	DCB	0x0
	DCB	0x0
	DCB	0x0
	DCB	0x0
	DCB	0x0
	DCB	0x0
	DCB	0x0
	DCB	0x0
	DCB	0x0
	DCB	0x0
	DCB	0x0
	DCB	0x0
	DCB	0x0
	DCB	0x0
	DCB	0x0
	DCB	0x0
	DCB	0x0
	DCB	0x0
	DCB	0x0
	DCB	0x0
	DCB	0x0
	DCB	0x0
	DCB	0x0
	DCB	0x0
	DCB	0x0
	DCB	0x0
	DCB	0x0
	DCB	0x0
	DCB	0x0
	DCB	0x0
	DCB	0x0
	DCB	0x0
	DCB	0x0
	DCB	0x0
	DCB	0x0
	DCB	0x0
	DCB	0x0
	DCB	0x0
	DCB	0x0
	DCB	0x0
	DCB	0x0
	DCB	0x0
	DCB	0x0
	DCB	0x0
	DCB	0x0
	DCB	0x0
	DCB	0x0
	DCB	0x0
	DCB	0x0
	DCB	0x0
	DCB	0x0
	DCB	0x0
	DCB	0x0
	DCB	0x0
	DCB	0x0
	DCB	0x0
	DCB	0x0
	DCB	0x0
	DCB	0x0
	DCB	0x0
	DCB	0x0
	DCB	0x0
	DCB	0x0
	DCB	0x0
	DCB	0x0
	DCB	0x0
	DCB	0x0
	DCB	0x0
	DCB	0x0
	DCB	0x0
	DCB	0x0
	DCB	0x0
	DCB	0x0
	DCB	0x0
	DCB	0x0
	DCB	0x0
	DCB	0x0
	DCB	0x0
	DCB	0x0
	DCB	0x0
	DCB	0x0
	DCB	0x0
	DCB	0x0
	DCB	0x0
	DCB	0x0
	DCB	0x0
	DCB	0x0
	DCB	0x0
	DCB	0x0
	DCB	0x0
	DCB	0x0
	DCB	0x0
	DCB	0x0
	DCB	0x0
	DCB	0x0
	DCB	0x0
	DCB	0x0
	DCB	0x0
	DCB	0x0
	DCB	0x0
	DCB	0x0
	DCB	0x0
	DCB	0x0
	DCB	0x0
	DCB	0x0
	DCB	0x0
	DCB	0x0
	DCB	0x0
	DCB	0x0
	DCB	0x0
	DCB	0x0
	DCB	0x0
	DCB	0x0
	DCB	0x0
	DCB	0x0
	DCB	0x0
	DCB	0x0
	DCB	0x0
	DCB	0x0
	DCB	0x0
	DCB	0x0
	DCB	0x0
	DCB	0x0
	DCB	0x0
	DCB	0x0
	DCB	0x0
	DCB	0x0
	DCB	0x0
	DCB	0x0
	DCB	0x0
	DCB	0x0
	DCB	0x0
	DCB	0x0
	DCB	0x0
	DCB	0x0
	DCB	0x0
	DCB	0x0
	DCB	0x0
	DCB	0x0
	DCB	0x0
	DCB	0x0
	DCB	0x0
	DCB	0x0
	DCB	0x0
	DCB	0x0
	DCB	0x0
	DCB	0x0
	DCB	0x0
	DCB	0x0
	DCB	0x0
	DCB	0x0
	DCB	0x0
	DCB	0x0
	DCB	0x0
	DCB	0x0
	DCB	0x0
	DCB	0x0
	DCB	0x0
	DCB	0x0
	DCB	0x0
	DCB	0x0
	DCB	0x0
	DCB	0x0
	DCB	0x0
	DCB	0x0
	DCB	0x0
	DCB	0x0
	DCB	0x0
	DCB	0x0
	DCB	0x0
	DCB	0x0
	DCB	0x0
	DCB	0x0
	DCB	0x0
	DCB	0x0
	DCB	0x0
	DCB	0x0
	DCB	0x0
	DCB	0x0
	DCB	0x0
	DCB	0x0
	DCB	0x0
	DCB	0x0
	DCB	0x0
	DCB	0x0
	DCB	0x0
	DCB	0x0
	DCB	0x0
	DCB	0x0
	DCB	0x0
	DCB	0x0
	DCB	0x0
	DCB	0x0
	DCB	0x0
	DCB	0x0
	DCB	0x0
	DCB	0x0
	DCB	0x0
	DCB	0x0
	DCB	0x0
	DCB	0x0
	DCB	0x0
	DCB	0x0
	DCB	0x0
	DCB	0x0
	DCB	0x0
	DCB	0x0
	DCB	0x0
	DCB	0x0
	DCB	0x0
	DCB	0x0
	DCB	0x0
	DCB	0x0
	DCB	0x0
	DCB	0x0
	DCB	0x0
	DCB	0x0
	DCB	0x0
	DCB	0x0
	DCB	0x0
	DCB	0x0
	DCB	0x0
	DCB	0x0
	DCB	0x0
	DCB	0x0
	DCB	0x0
	DCB	0x0
	DCB	0x0
	DCB	0x0
	DCB	0x0
	DCB	0x0
	DCB	0x0
	DCB	0x0
	DCB	0x0
	DCB	0x0
	DCB	0x0
	DCB	0x0
	DCB	0x0
	DCB	0x0
	DCB	0x0
	DCB	0x0
	DCB	0x0
	DCB	0x0
	DCB	0x0
	DCB	0x0
	DCB	0x0
	DCB	0x0
	DCB	0x0
	DCB	0x0
	DCB	0x0
	DCB	0x0
	DCB	0x0
	DCB	0x0
	DCB	0x0
	DCB	0x0
	DCB	0x0
	DCB	0x0
	DCB	0x0
	DCB	0x0
	DCB	0x0
	DCB	0x0
	DCB	0x0
	DCB	0x0
	DCB	0x0
	DCB	0x0
	DCB	0x0
	DCB	0x0
	DCB	0x0
	DCB	0x0
	DCB	0x0
	DCB	0x0
	DCB	0x0
	DCB	0x0
	DCB	0x0
	DCB	0x0
	DCB	0x0
	DCB	0x0
	DCB	0x0
	DCB	0x0
	DCB	0x0
	DCB	0x0
	DCB	0x0
	DCB	0x0
	DCB	0x0
	DCB	0x0
	DCB	0x0
	DCB	0x0
	DCB	0x0
	DCB	0x0
	DCB	0x0
	DCB	0x0
	DCB	0x0
	DCB	0x0
	DCB	0x0
	DCB	0x0
	DCB	0x0
	DCB	0x0
	DCB	0x0
	DCB	0x0
	DCB	0x0
	DCB	0x0
	DCB	0x0
	DCB	0x0
	DCB	0x0
	DCB	0x0
	DCB	0x0
	DCB	0x0
	DCB	0x0
	DCB	0x0
	DCB	0x0
	DCB	0x0
	DCB	0x0
	DCB	0x0
	DCB	0x0
	DCB	0x0
	DCB	0x0
	DCB	0x0
	DCB	0x0
	DCB	0x0
	DCB	0x0
	DCB	0x0
	DCB	0x0
	DCB	0x0
	DCB	0x0
	DCB	0x0
	DCB	0x0
	DCB	0x0
	DCB	0x0
	DCB	0x0
	DCB	0x0
	DCB	0x0
	DCB	0x0
	DCB	0x0
	DCB	0x0
	DCB	0x0
	DCB	0x0
	DCB	0x0
	DCB	0x0
	DCB	0x0
	DCB	0x0
	DCB	0x0
	DCB	0x0
	DCB	0x0
	DCB	0x0
	DCB	0x0
	DCB	0x0
	DCB	0x0
	DCB	0x0
	DCB	0x0
	DCB	0x0
	DCB	0x0
	DCB	0x0
	DCB	0x0
	DCB	0x0
	DCB	0x0
	DCB	0x0
	DCB	0x0
	DCB	0x0
	DCB	0x0
	DCB	0x0
	DCB	0x0
	DCB	0x0
	DCB	0x0
	DCB	0x0
	DCB	0x0
	DCB	0x0
	DCB	0x0
	DCB	0x0
	DCB	0x0
	DCB	0x0
	DCB	0x0
	DCB	0x0
	DCB	0x0
	DCB	0x0
	DCB	0x0
	DCB	0x0
	DCB	0x0
	DCB	0x0
	DCB	0x0
	DCB	0x0
	DCB	0x0
	DCB	0x0
	DCB	0x0
	DCB	0x0
	DCB	0x0
	DCB	0x0
	DCB	0x0
	DCB	0x0
	DCB	0x0
	DCB	0x0
	DCB	0x0
	DCB	0x0
	DCB	0x0
	DCB	0x0
	DCB	0x0
	DCB	0x0
	DCB	0x0
	DCB	0x0
	DCB	0x0
	DCB	0x0
	DCB	0x0
	DCB	0x0
	DCB	0x0
	DCB	0x0
	DCB	0x0
	DCB	0x0
	DCB	0x0
	DCB	0x0
	DCB	0x0
	DCB	0x0
	DCB	0x0
	DCB	0x0
	DCB	0x0
	DCB	0x0
	DCB	0x0
	DCB	0x0
	DCB	0x0
	DCB	0x0
	DCB	0x0
	DCB	0x0
	DCB	0x0
	DCB	0x0
	DCB	0x0
	DCB	0x0
	DCB	0x0
	DCB	0x0
	DCB	0x0
	DCB	0x0
	DCB	0x0
	DCB	0x0
	DCB	0x0
	DCB	0x0
	DCB	0x0
	DCB	0x0
	DCB	0x0
	DCB	0x0
	DCB	0x0
	DCB	0x0
	DCB	0x0
	DCB	0x0
	DCB	0x0
	DCB	0x0
	DCB	0x0
	DCB	0x0
	DCB	0x0
	DCB	0x0
	DCB	0x0
	DCB	0x0
	DCB	0x0
	DCB	0x0
	DCB	0x0
	DCB	0x0
	DCB	0x0
	DCB	0x0
	DCB	0x0
	DCB	0x0
	DCB	0x0
	DCB	0x0
	DCB	0x0
	DCB	0x0
	DCB	0x0
	DCB	0x0
	DCB	0x0
	DCB	0x0
	DCB	0x0
	DCB	0x0
	DCB	0x0
	DCB	0x0
	DCB	0x0
	DCB	0x0
	DCB	0x0
	DCB	0x0
	DCB	0x0
	DCB	0x0
	DCB	0x0
	DCB	0x0
	DCB	0x0
	DCB	0x0
	DCB	0x0
	DCB	0x0
	DCB	0x0
	DCB	0x0
	DCB	0x0
	DCB	0x0
	DCB	0x0
	DCB	0x0
	DCB	0x0
	DCB	0x0
	DCB	0x0
	DCB	0x0
	DCB	0x0
	DCB	0x0
	DCB	0x0
	DCB	0x0
	DCB	0x0
	DCB	0x0
	DCB	0x0
	DCB	0x0
	DCB	0x0
	DCB	0x0
	DCB	0x0
	DCB	0x0
	DCB	0x0
	DCB	0x0
	DCB	0x0
	DCB	0x0
	DCB	0x0
	DCB	0x0
	DCB	0x0
	DCB	0x0
	DCB	0x0
	DCB	0x0
	DCB	0x0
	DCB	0x0
	DCB	0x0
	DCB	0x0
	DCB	0x0
	DCB	0x0
	DCB	0x0
	DCB	0x0
	DCB	0x0
	DCB	0x0
	DCB	0x0
	DCB	0x0
	DCB	0x0
	DCB	0x0
	DCB	0x0
	DCB	0x0
	DCB	0x0
	DCB	0x0
	DCB	0x0
	DCB	0x0
	DCB	0x0
	DCB	0x0
	DCB	0x0
	DCB	0x0
	DCB	0x0
	DCB	0x0
	DCB	0x0
	DCB	0x0
	DCB	0x0
	DCB	0x0
	DCB	0x0
	DCB	0x0
	DCB	0x0
	DCB	0x0
	DCB	0x0
	DCB	0x0
	DCB	0x0
	DCB	0x0
	DCB	0x0
	DCB	0x0
	DCB	0x0
	DCB	0x0
	DCB	0x0
	DCB	0x0
	DCB	0x0
	DCB	0x0
	DCB	0x0
	DCB	0x0
	DCB	0x0
	DCB	0x0
	DCB	0x0
	DCB	0x0
	DCB	0x0
	DCB	0x0
	DCB	0x0
	DCB	0x0
	DCB	0x0
	DCB	0x0
	DCB	0x0
	DCB	0x0
	DCB	0x0
	DCB	0x0
	DCB	0x0
	DCB	0x0
	DCB	0x0
	DCB	0x0
	DCB	0x0
	DCB	0x0
	DCB	0x0
	DCB	0x0
	DCB	0x0
	DCB	0x0
	DCB	0x0
	DCB	0x0
	DCB	0x0
	DCB	0x0
	DCB	0x0
	DCB	0x0
	DCB	0x0
	DCB	0x0
	DCB	0x0
	DCB	0x0
	DCB	0x0
	DCB	0x0
	DCB	0x0
	DCB	0x0
	DCB	0x0
	DCB	0x0
	DCB	0x0
	DCB	0x0
	DCB	0x0
	DCB	0x0
	DCB	0x0
	DCB	0x0
	DCB	0x0
	DCB	0x0
	DCB	0x0
	DCB	0x0
	DCB	0x0
	DCB	0x0
	DCB	0x0
	DCB	0x0
	DCB	0x0
	DCB	0x0
	DCB	0x0
	DCB	0x0
	DCB	0x0
	DCB	0x0
	DCB	0x0
	DCB	0x0
	DCB	0x0
	DCB	0x0
	DCB	0x0
	DCB	0x0
	DCB	0x0
	DCB	0x0
	DCB	0x0
	DCB	0x0
	DCB	0x0
	DCB	0x0
	DCB	0x0
	DCB	0x0
	DCB	0x0
	DCB	0x0
	DCB	0x0
	DCB	0x0
	DCB	0x0
	DCB	0x0
	DCB	0x0
	DCB	0x0
	DCB	0x0
	DCB	0x0
	DCB	0x0
	DCB	0x0
	DCB	0x0
	DCB	0x0
	DCB	0x0
	DCB	0x0
	DCB	0x0
	DCB	0x0
	DCB	0x0
	DCB	0x0
	DCB	0x0
	DCB	0x0
	DCB	0x0
	DCB	0x0
	DCB	0x0
	DCB	0x0
	DCB	0x0
	DCB	0x0
	DCB	0x0
	DCB	0x0
	DCB	0x0
	DCB	0x0
	DCB	0x0
	DCB	0x0
	DCB	0x0
	DCB	0x0
	DCB	0x0
	DCB	0x0
	DCB	0x0
	DCB	0x0
	DCB	0x0
	DCB	0x0
	DCB	0x0
	DCB	0x0
	DCB	0x0
	DCB	0x0
	DCB	0x0
	DCB	0x0
	DCB	0x0
	DCB	0x0
	DCB	0x0
	DCB	0x0
	DCB	0x0
	DCB	0x0
	DCB	0x0
	DCB	0x0
	DCB	0x0
	DCB	0x0
	DCB	0x0
	DCB	0x0
	DCB	0x0
	DCB	0x0
	DCB	0x0
	DCB	0x0
	DCB	0x0
	DCB	0x0
	DCB	0x0
	DCB	0x0
	DCB	0x0
	DCB	0x0
	DCB	0x0
	DCB	0x0
	DCB	0x0
	DCB	0x0
	DCB	0x0
	DCB	0x0
	DCB	0x0
	DCB	0x0
	DCB	0x0
	DCB	0x0
	DCB	0x0
	DCB	0x0
	DCB	0x0
	DCB	0x0
	DCB	0x0
	DCB	0x0
	DCB	0x0
	DCB	0x0
	DCB	0x0
	DCB	0x0
	DCB	0x0
	DCB	0x0
	DCB	0x0
	DCB	0x0
	DCB	0x0
	DCB	0x0
	DCB	0x0
	DCB	0x0
	DCB	0x0
	DCB	0x0
	DCB	0x0
	DCB	0x0
	DCB	0x0
	DCB	0x0
	DCB	0x0
	DCB	0x0
	DCB	0x0
	DCB	0x0
	DCB	0x0
	DCB	0x0
	DCB	0x0
	DCB	0x0
	DCB	0x0
	DCB	0x0
	DCB	0x0
	DCB	0x0
	DCB	0x0
	DCB	0x0
	DCB	0x0
	DCB	0x0
	DCB	0x0
	DCB	0x0
	DCB	0x0
	DCB	0x0
	DCB	0x0
	DCB	0x0
	DCB	0x0
	DCB	0x0
	DCB	0x0
	DCB	0x0
	DCB	0x0
	DCB	0x0
	DCB	0x0
	DCB	0x0
	DCB	0x0
	DCB	0x0
	DCB	0x0
	DCB	0x0
	DCB	0x0
	DCB	0x0
	DCB	0x0
	DCB	0x0
	DCB	0x0
	DCB	0x0
	DCB	0x0
	DCB	0x0
	DCB	0x0
	DCB	0x0
	DCB	0x0
	DCB	0x0
	DCB	0x0
	DCB	0x0
	DCB	0x0
	DCB	0x0
	DCB	0x0
	DCB	0x0
	DCB	0x0
	DCB	0x0
	DCB	0x0
	DCB	0x0
	DCB	0x0
	DCB	0x0
	DCB	0x0
	DCB	0x0
	DCB	0x0
	DCB	0x0
	DCB	0x0
	DCB	0x0
	DCB	0x0
	DCB	0x0
	DCB	0x0
	DCB	0x0
	DCB	0x0
	DCB	0x0
	DCB	0x0
	DCB	0x0
	DCB	0x0
	DCB	0x0
	DCB	0x0
	DCB	0x0
	DCB	0x0
	DCB	0x0
	DCB	0x0
	DCB	0x0
	DCB	0x0
	DCB	0x0
	DCB	0x0
	DCB	0x0
	DCB	0x0
	DCB	0x0
	DCB	0x0
	DCB	0x0
	DCB	0x0
	DCB	0x0
	DCB	0x0
	DCB	0x0
	DCB	0x0
	DCB	0x0
	DCB	0x0
	DCB	0x0
	DCB	0x0
	DCB	0x0
	DCB	0x0
	DCB	0x0
	DCB	0x0
	DCB	0x0
	DCB	0x0
	DCB	0x0
	DCB	0x0
	DCB	0x0
	DCB	0x0
	DCB	0x0
	DCB	0x0
	DCB	0x0
	DCB	0x0
	DCB	0x0
	DCB	0x0
	DCB	0x0
	DCB	0x0
	DCB	0x0
	DCB	0x0
	DCB	0x0
	DCB	0x0
	DCB	0x0
	DCB	0x0
	DCB	0x0
	DCB	0x0
	DCB	0x0
	DCB	0x0
	DCB	0x0
	DCB	0x0
	DCB	0x0
	DCB	0x0
	DCB	0x0
	DCB	0x0
	DCB	0x0
	DCB	0x0
	DCB	0x0
	DCB	0x0
	DCB	0x0
	DCB	0x0
	DCB	0x0
	DCB	0x0
	DCB	0x0
	DCB	0x0
	DCB	0x0
	DCB	0x0
	DCB	0x0
	DCB	0x0
	DCB	0x0
	DCB	0x0
	DCB	0x0
	DCB	0x0
	DCB	0x0
	DCB	0x0
	DCB	0x0
	DCB	0x0
	DCB	0x0
	DCB	0x0
	DCB	0x0
	DCB	0x0
	DCB	0x0
	DCB	0x0
	DCB	0x0
	DCB	0x0
	DCB	0x0
	DCB	0x0
	DCB	0x0
	DCB	0x0
	DCB	0x0
	DCB	0x0
	DCB	0x0
	DCB	0x0
	DCB	0x0
	DCB	0x0
	DCB	0x0
	DCB	0x0
	DCB	0x0
	DCB	0x0
	DCB	0x0
	DCB	0x0
	DCB	0x0
	DCB	0x0
	DCB	0x0
	DCB	0x0
	DCB	0x0
	DCB	0x0
	DCB	0x0
	DCB	0x0
	DCB	0x0
	DCB	0x0
	DCB	0x0
	DCB	0x0
	DCB	0x0
	DCB	0x0
	DCB	0x0
	DCB	0x0
	DCB	0x0
	DCB	0x0
	DCB	0x0
	DCB	0x0
	DCB	0x0
	DCB	0x0
	DCB	0x0
	DCB	0x0
	DCB	0x0
	DCB	0x0
	DCB	0x0
	DCB	0x0
	DCB	0x0
	DCB	0x0
	DCB	0x0
	DCB	0x0
	DCB	0x0
	DCB	0x0
	DCB	0x0
	DCB	0x0
	DCB	0x0
	DCB	0x0
	DCB	0x0
	DCB	0x0
	DCB	0x0
	DCB	0x0
	DCB	0x0
	DCB	0x0
	DCB	0x0
	DCB	0x0
	DCB	0x0
	DCB	0x0
	DCB	0x0
	DCB	0x0
	DCB	0x0
	DCB	0x0
	DCB	0x0
	DCB	0x0
	DCB	0x0
	DCB	0x0
	DCB	0x0
	DCB	0x0
	DCB	0x0
	DCB	0x0
	DCB	0x0
	DCB	0x0
	DCB	0x0
	DCB	0x0
	DCB	0x0
	DCB	0x0
	DCB	0x0
	DCB	0x0
	DCB	0x0
	DCB	0x0
	DCB	0x0
	DCB	0x0
	DCB	0x0
	DCB	0x0
	DCB	0x0
	DCB	0x0
	DCB	0x0
	DCB	0x0
	DCB	0x0
	DCB	0x0
	DCB	0x0
	DCB	0x0
	DCB	0x0
	DCB	0x0
	DCB	0x0
	DCB	0x0
	DCB	0x0
	DCB	0x0
	DCB	0x0
	DCB	0x0
	DCB	0x0
	DCB	0x0
	DCB	0x0
	DCB	0x0
	DCB	0x0
	DCB	0x0
	DCB	0x0
	DCB	0x0
	DCB	0x0
	DCB	0x0
	DCB	0x0
	DCB	0x0
	DCB	0x0
	DCB	0x0
	DCB	0x0
	DCB	0x0
	DCB	0x0
	DCB	0x0
	DCB	0x0
	DCB	0x0
	DCB	0x0
	DCB	0x0
	DCB	0x0
	DCB	0x0
	DCB	0x0
	DCB	0x0
	DCB	0x0
	DCB	0x0
	DCB	0x0
	DCB	0x0
	DCB	0x0
	DCB	0x0
	DCB	0x0
	DCB	0x0
	DCB	0x0
	DCB	0x0
	DCB	0x0
	DCB	0x0
	DCB	0x0
	DCB	0x0
	DCB	0x0
	DCB	0x0
	DCB	0x0
	DCB	0x0
	DCB	0x0
	DCB	0x0
	DCB	0x0
	DCB	0x0
	DCB	0x0
	DCB	0x0
	DCB	0x0
	DCB	0x0
	DCB	0x0
	DCB	0x0
	DCB	0x0
	DCB	0x0
	DCB	0x0
	DCB	0x0
	DCB	0x0
	DCB	0x0
	DCB	0x0
	DCB	0x0
	DCB	0x0
	DCB	0x0
	DCB	0x0
	DCB	0x0
	DCB	0x0
	DCB	0x0
	DCB	0x0
	DCB	0x0
	DCB	0x0
	DCB	0x0
	DCB	0x0
	DCB	0x0
	DCB	0x0
	DCB	0x0
	DCB	0x0
	DCB	0x0
	DCB	0x0
	DCB	0x0
	DCB	0x0
	DCB	0x0
	DCB	0x0
	DCB	0x0
	DCB	0x0
	DCB	0x0
	DCB	0x0
	DCB	0x0
	DCB	0x0
	DCB	0x0
	DCB	0x0
	DCB	0x0
	DCB	0x0
	DCB	0x0
	DCB	0x0
	DCB	0x0
	DCB	0x0
	DCB	0x0
	DCB	0x0
	DCB	0x0
	DCB	0x0
	DCB	0x0
	DCB	0x0
	DCB	0x0
	DCB	0x0
	DCB	0x0
	DCB	0x0
	DCB	0x0
	DCB	0x0
	DCB	0x0
	DCB	0x0
	DCB	0x0
	DCB	0x0
	DCB	0x0
	DCB	0x0
	DCB	0x0
	DCB	0x0
	DCB	0x0
	DCB	0x0
	DCB	0x0
	DCB	0x0
	DCB	0x0
	DCB	0x0
	DCB	0x0
	DCB	0x0
	DCB	0x0
	DCB	0x0
	DCB	0x0
	DCB	0x0
	DCB	0x0
	DCB	0x0
	DCB	0x0
	DCB	0x0
	DCB	0x0
	DCB	0x0
	DCB	0x0
	DCB	0x0
	DCB	0x0
	DCB	0x0
	DCB	0x0
	DCB	0x0
	DCB	0x0
	DCB	0x0
	DCB	0x0
	DCB	0x0
	DCB	0x0
	DCB	0x0
	DCB	0x0
	DCB	0x0
	DCB	0x0
	DCB	0x0
	DCB	0x0
	DCB	0x0
	DCB	0x0
	DCB	0x0
	DCB	0x0
	DCB	0x0
	DCB	0x0
	DCB	0x0
	DCB	0x0
	DCB	0x0
	DCB	0x0
	DCB	0x0
	DCB	0x0
	DCB	0x0
	DCB	0x0
	DCB	0x0
	DCB	0x0
	DCB	0x0
	DCB	0x0
	DCB	0x0
	DCB	0x0
	DCB	0x0
	DCB	0x0
	DCB	0x0
	DCB	0x0
	DCB	0x0
	DCB	0x0
	DCB	0x0
	DCB	0x0
	DCB	0x0
	DCB	0x0
	DCB	0x0
	DCB	0x0
	DCB	0x0
	DCB	0x0
	DCB	0x0
	DCB	0x0
	DCB	0x0
	DCB	0x0
	DCB	0x0
	DCB	0x0
	DCB	0x0
	DCB	0x0
	DCB	0x0
	DCB	0x0
	DCB	0x0
	DCB	0x0
	DCB	0x0
	DCB	0x0
	DCB	0x0
	DCB	0x0
	DCB	0x0
	DCB	0x0
	DCB	0x0
	DCB	0x0
	DCB	0x0
	DCB	0x0
	DCB	0x0
	DCB	0x0
	DCB	0x0
	DCB	0x0
	DCB	0x0
	DCB	0x0
	DCB	0x0
	DCB	0x0
	DCB	0x0
	DCB	0x0
	DCB	0x0
	DCB	0x0
	DCB	0x0
	DCB	0x0
	DCB	0x0
	DCB	0x0
	DCB	0x0
	DCB	0x0
	DCB	0x0
	DCB	0x0
	DCB	0x0
	DCB	0x0
	DCB	0x0
	DCB	0x0
	DCB	0x0
	DCB	0x0
	DCB	0x0
	DCB	0x0
	DCB	0x0
	DCB	0x0
	DCB	0x0
	DCB	0x0
	DCB	0x0
	DCB	0x0
	DCB	0x0
	DCB	0x0
	DCB	0x0
	DCB	0x0
	DCB	0x0
	DCB	0x0
	DCB	0x0
	DCB	0x0
	DCB	0x0
	DCB	0x0
	DCB	0x0
	DCB	0x0
	DCB	0x0
	DCB	0x0
	DCB	0x0
	DCB	0x0
	DCB	0x0
	DCB	0x0
	DCB	0x0
	DCB	0x0
	DCB	0x0
	DCB	0x0
	DCB	0x0
	DCB	0x0
	DCB	0x0
	DCB	0x0
	DCB	0x0
	DCB	0x0
	DCB	0x0
	DCB	0x0
	DCB	0x0
	DCB	0x0
	DCB	0x0
	DCB	0x0
	DCB	0x0
	DCB	0x0
	DCB	0x0
	DCB	0x0
	DCB	0x0
	DCB	0x0
	DCB	0x0
	DCB	0x0
	DCB	0x0
	DCB	0x0
	DCB	0x0
	DCB	0x0
	DCB	0x0
	DCB	0x0
	DCB	0x0
	DCB	0x0
	DCB	0x0
	DCB	0x0
	DCB	0x0
	DCB	0x0
	DCB	0x0
	DCB	0x0
	DCB	0x0
	DCB	0x0
	DCB	0x0
	DCB	0x0
	DCB	0x0
	DCB	0x0
	DCB	0x0
	DCB	0x0
	DCB	0x0
	DCB	0x0
	DCB	0x0
	DCB	0x0
	DCB	0x0
	DCB	0x0
	DCB	0x0
	DCB	0x0
	DCB	0x0
	DCB	0x0
	DCB	0x0
	DCB	0x0
	DCB	0x0
	DCB	0x0
	DCB	0x0
	DCB	0x0
	DCB	0x0
	DCB	0x0
	DCB	0x0
	DCB	0x0
	DCB	0x0
	DCB	0x0
	DCB	0x0
	DCB	0x0
	DCB	0x0
	DCB	0x0
	DCB	0x0
	DCB	0x0
	DCB	0x0
	DCB	0x0
	DCB	0x0
	DCB	0x0
	DCB	0x0
	DCB	0x0
	DCB	0x0
	DCB	0x0
	DCB	0x0
	DCB	0x0
	DCB	0x0
	DCB	0x0
	DCB	0x0
	DCB	0x0
	DCB	0x0
	DCB	0x0
	DCB	0x0
	DCB	0x0
	DCB	0x0
	DCB	0x0
	DCB	0x0
	DCB	0x0
	DCB	0x0
	DCB	0x0
	DCB	0x0
	DCB	0x0
	DCB	0x0
	DCB	0x0
	DCB	0x0
	DCB	0x0
	DCB	0x0
	DCB	0x0
	DCB	0x0
	DCB	0x0
	DCB	0x0
	DCB	0x0
	DCB	0x0
	DCB	0x0
	DCB	0x0
	DCB	0x0
	DCB	0x0
	DCB	0x0
	DCB	0x0
	DCB	0x0
	DCB	0x0
	DCB	0x0
	DCB	0x0
	DCB	0x0
	DCB	0x0
	DCB	0x0
	DCB	0x0
	DCB	0x0
	DCB	0x0
	DCB	0x0
	DCB	0x0
	DCB	0x0
	DCB	0x0
	DCB	0x0
	DCB	0x0
	DCB	0x0
	DCB	0x0
	DCB	0x0
	DCB	0x0
	DCB	0x0
	DCB	0x0
	DCB	0x0
	DCB	0x0
	DCB	0x0
	DCB	0x0
	DCB	0x0
	DCB	0x0
	DCB	0x0
	DCB	0x0
	DCB	0x0
	DCB	0x0
	DCB	0x0
	DCB	0x0
	DCB	0x0
	DCB	0x0
	DCB	0x0
	DCB	0x0
	DCB	0x0
	DCB	0x0
	DCB	0x0
	DCB	0x0
	DCB	0x0
	DCB	0x0
	DCB	0x0
	DCB	0x0
	DCB	0x0
	DCB	0x0
	DCB	0x0
	DCB	0x0
	DCB	0x0
	DCB	0x0
	DCB	0x0
	DCB	0x0
	DCB	0x0
	DCB	0x0
	DCB	0x0
	DCB	0x0
	DCB	0x0
	DCB	0x0
	DCB	0x0
	DCB	0x0
	DCB	0x0
	DCB	0x0
	DCB	0x0
	DCB	0x0
	DCB	0x0
	DCB	0x0
	DCB	0x0
	DCB	0x0
	DCB	0x0
	DCB	0x0
	DCB	0x0
	DCB	0x0
	DCB	0x0
	DCB	0x0
	DCB	0x0
	DCB	0x0
	DCB	0x0
	DCB	0x0
	DCB	0x0
	DCB	0x0
	DCB	0x0
	DCB	0x0
	DCB	0x0
	DCB	0x0
	DCB	0x0
	DCB	0x0
	DCB	0x0
	DCB	0x0
	DCB	0x0
	DCB	0x0
	DCB	0x0
	DCB	0x0
	DCB	0x0
	DCB	0x0
	DCB	0x0
	DCB	0x0
	DCB	0x0
	DCB	0x0
	DCB	0x0
	DCB	0x0
	DCB	0x0
	DCB	0x0
	DCB	0x0
	DCB	0x0
	DCB	0x0
	DCB	0x0
	DCB	0x0
	DCB	0x0
	DCB	0x0
	DCB	0x0
	DCB	0x0
	DCB	0x0
	DCB	0x0
	DCB	0x0
	DCB	0x0
	DCB	0x0
	DCB	0x0
	DCB	0x0
	DCB	0x0
	DCB	0x0
	DCB	0x0
	DCB	0x0
	DCB	0x0
	DCB	0x0
	DCB	0x0
	DCB	0x0
	DCB	0x0
	DCB	0x0
	DCB	0x0
	DCB	0x0
	DCB	0x0
	DCB	0x0
	DCB	0x0
	DCB	0x0
	DCB	0x0
	DCB	0x0
	DCB	0x0
	DCB	0x0
	DCB	0x0
	DCB	0x0
	DCB	0x0
	DCB	0x0
	DCB	0x0
	DCB	0x0
	DCB	0x0
	DCB	0x0
	DCB	0x0
	DCB	0x0
	DCB	0x0
	DCB	0x0
	DCB	0x0
	DCB	0x0
	DCB	0x0
	DCB	0x0
	DCB	0x0
	DCB	0x0
	DCB	0x0
	DCB	0x0
	DCB	0x0
	DCB	0x0
	DCB	0x0
	DCB	0x0
	DCB	0x0
	DCB	0x0
	DCB	0x0
	DCB	0x0
	DCB	0x0
	DCB	0x0
	DCB	0x0
	DCB	0x0
	DCB	0x0
	DCB	0x0
	DCB	0x0
	DCB	0x0
	DCB	0x0
	DCB	0x0
	DCB	0x0
	DCB	0x0
	DCB	0x0
	DCB	0x0
	DCB	0x0
	DCB	0x0
	DCB	0x0
	DCB	0x0
	DCB	0x0
	DCB	0x0
	DCB	0x0
	DCB	0x0
	DCB	0x0
	DCB	0x0
	DCB	0x0
	DCB	0x0
	DCB	0x0
	DCB	0x0
	DCB	0x0
	DCB	0x0
	DCB	0x0
	DCB	0x0
	DCB	0x0
	DCB	0x0
	DCB	0x0
	DCB	0x0
	DCB	0x0
	DCB	0x0
	DCB	0x0
	DCB	0x0
	DCB	0x0
	DCB	0x0
	DCB	0x0
	DCB	0x0
	DCB	0x0
	DCB	0x0
	DCB	0x0
	DCB	0x0
	DCB	0x0
	DCB	0x0
	DCB	0x0
	DCB	0x0
	DCB	0x0
	DCB	0x0
	DCB	0x0
	DCB	0x0
	DCB	0x0
	DCB	0x0
	DCB	0x0
	DCB	0x0
	DCB	0x0
	DCB	0x0
	DCB	0x0
	DCB	0x0
	DCB	0x0
	DCB	0x0
	DCB	0x0
	DCB	0x0
	DCB	0x0
	DCB	0x0
	DCB	0x0
	DCB	0x0
	DCB	0x0
	DCB	0x0
	DCB	0x0
	DCB	0x0
	DCB	0x0
	DCB	0x0
	DCB	0x0
	DCB	0x0
	DCB	0x0
	DCB	0x0
	DCB	0x0
	DCB	0x0
	DCB	0x0
	DCB	0x0
	DCB	0x0
	DCB	0x0
	DCB	0x0
	DCB	0x0
	DCB	0x0
	DCB	0x0
	DCB	0x0
	DCB	0x0
	DCB	0x0
	DCB	0x0
	DCB	0x0
	DCB	0x0
	DCB	0x0
	DCB	0x0
	DCB	0x0
	DCB	0x0
	DCB	0x0
	DCB	0x0
	DCB	0x0
	DCB	0x0
	DCB	0x0
	DCB	0x0
	DCB	0x0
	DCB	0x0
	DCB	0x0
	DCB	0x0
	DCB	0x0
	DCB	0x0
	DCB	0x0
	DCB	0x0
	DCB	0x0
	DCB	0x0
	DCB	0x0
	DCB	0x0
	DCB	0x0
	DCB	0x0
	DCB	0x0
	DCB	0x0
	DCB	0x0
	DCB	0x0
	DCB	0x0
	DCB	0x0
	DCB	0x0
	DCB	0x0
	DCB	0x0
	DCB	0x0
	DCB	0x0
	DCB	0x0
	DCB	0x0
	DCB	0x0
	DCB	0x0
	DCB	0x0
	DCB	0x0
	DCB	0x0
	DCB	0x0
	DCB	0x0
	DCB	0x0
	DCB	0x0
	DCB	0x0
	DCB	0x0
	DCB	0x0
	DCB	0x0
	DCB	0x0
	DCB	0x0
	DCB	0x0
	DCB	0x0
	DCB	0x0
	DCB	0x0
	DCB	0x0
	DCB	0x0
	DCB	0x0
	DCB	0x0
	DCB	0x0
	DCB	0x0
	DCB	0x0
	DCB	0x0
	DCB	0x0
	DCB	0x0
	DCB	0x0
	DCB	0x0
	DCB	0x0
	DCB	0x0
	DCB	0x0
	DCB	0x0
	DCB	0x0
	DCB	0x0
	DCB	0x0
	DCB	0x0
	DCB	0x0
	DCB	0x0
	DCB	0x0
	DCB	0x0
	DCB	0x0
	DCB	0x0
	DCB	0x0
	DCB	0x0
	DCB	0x0
	DCB	0x0
	DCB	0x0
	DCB	0x0
	DCB	0x0
	DCB	0x0
	DCB	0x0
	DCB	0x0
	DCB	0x0
	DCB	0x0
	DCB	0x0
	DCB	0x0
	DCB	0x0
	DCB	0x0
	DCB	0x0
	DCB	0x0
	DCB	0x0
	DCB	0x0
	DCB	0x0
	DCB	0x0
	DCB	0x0
	DCB	0x0
	DCB	0x0
	DCB	0x0
	DCB	0x0
	DCB	0x0
	DCB	0x0
	DCB	0x0
	DCB	0x0
	DCB	0x0
	DCB	0x0
	DCB	0x0
	DCB	0x0
	DCB	0x0
	DCB	0x0
	DCB	0x0
	DCB	0x0
	DCB	0x0
	DCB	0x0
	DCB	0x0
	DCB	0x0
	DCB	0x0
	DCB	0x0
	DCB	0x0
	DCB	0x0
	DCB	0x0
	DCB	0x0
	DCB	0x0
	DCB	0x0
	DCB	0x0
	DCB	0x0
	DCB	0x0
	DCB	0x0
	DCB	0x0
	DCB	0x0
	DCB	0x0
	DCB	0x0
	DCB	0x0
	DCB	0x0
	DCB	0x0
	DCB	0x0
	DCB	0x0
	DCB	0x0
	DCB	0x0
	DCB	0x0
	DCB	0x0
	DCB	0x0
	DCB	0x0
	DCB	0x0
	DCB	0x0
	DCB	0x0
	DCB	0x0
	DCB	0x0
	DCB	0x0
	DCB	0x0
	DCB	0x0
	DCB	0x0
	DCB	0x0
	DCB	0x0
	DCB	0x0
	DCB	0x0
	DCB	0x0
	DCB	0x0
	DCB	0x0
	DCB	0x0
	DCB	0x0
	DCB	0x0
	DCB	0x0
	DCB	0x0
	DCB	0x0
	DCB	0x0
	DCB	0x0
	DCB	0x0
	DCB	0x0
	DCB	0x0
	DCB	0x0
	DCB	0x0
	DCB	0x0
	DCB	0x0
	DCB	0x0
	DCB	0x0
	DCB	0x0
	DCB	0x0
	DCB	0x0
	DCB	0x0
	DCB	0x0
	DCB	0x0
	DCB	0x0
	DCB	0x0
	DCB	0x0
	DCB	0x0
	DCB	0x0
	DCB	0x0
	DCB	0x0
	DCB	0x0
	DCB	0x0
	DCB	0x0
	DCB	0x0
	DCB	0x0
	DCB	0x0
	DCB	0x0
	DCB	0x0
	DCB	0x0
	DCB	0x0
	DCB	0x0
	DCB	0x0
	DCB	0x0
	DCB	0x0
	DCB	0x0
	DCB	0x0
	DCB	0x0
	DCB	0x0
	DCB	0x0
	DCB	0x0
	DCB	0x0
	DCB	0x0
	DCB	0x0
	DCB	0x0
	DCB	0x0
	DCB	0x0
	DCB	0x0
	DCB	0x0
	DCB	0x0
	DCB	0x0
	DCB	0x0
	DCB	0x0
	DCB	0x0
	DCB	0x0
	DCB	0x0
	DCB	0x0
	DCB	0x0
	DCB	0x0
	DCB	0x0
	DCB	0x0
	DCB	0x0
	DCB	0x0
	DCB	0x0
	DCB	0x0
	DCB	0x0
	DCB	0x0
	DCB	0x0
	DCB	0x0
	DCB	0x0
	DCB	0x0
	DCB	0x0
	DCB	0x0
	DCB	0x0
	DCB	0x0
	DCB	0x0
	DCB	0x0
	DCB	0x0
	DCB	0x0
	DCB	0x0
	DCB	0x0
	DCB	0x0
	DCB	0x0
	DCB	0x0
	DCB	0x0
	DCB	0x0
	DCB	0x0
	DCB	0x0
	DCB	0x0
	DCB	0x0
	DCB	0x0
	DCB	0x0
	DCB	0x0
	DCB	0x0
	DCB	0x0
	DCB	0x0
	DCB	0x0
	DCB	0x0
	DCB	0x0
	DCB	0x0
	DCB	0x0
	DCB	0x0
	DCB	0x0
	DCB	0x0
	DCB	0x0
	DCB	0x0
	DCB	0x0
	DCB	0x0
	DCB	0x0
	DCB	0x0
	DCB	0x0
	DCB	0x0
	DCB	0x0
	DCB	0x0
	DCB	0x0
	DCB	0x0
	DCB	0x0
	DCB	0x0
	DCB	0x0
	DCB	0x0
	DCB	0x0
	DCB	0x0
	DCB	0x0
	DCB	0x0
	DCB	0x0
	DCB	0x0
	DCB	0x0
	DCB	0x0
	DCB	0x0
	DCB	0x0
	DCB	0x0
	DCB	0x0
	IMPORT	|TWLWriteRegs|
; File c:\wince600\platform\common\src\soc\common_ti_v1\triton\inc\twl.h

  00000			 AREA	 |.pdata|, PDATA
|$T49193| DCD	|$LN5@TWLWriteBy|
	DCD	0x40000803
; Function compile flags: /Ogspy

  00000			 AREA	 |.text|, CODE, ARM

  00000		 |TWLWriteByteReg| PROC

; 57   : {

  00000		 |$LN5@TWLWriteBy|
  00000	e1a0c00d	 mov         r12, sp
  00004	e92d000f	 stmdb       sp!, {r0 - r3}
  00008	e92d5000	 stmdb       sp!, {r12, lr}
  0000c		 |$M49190|

; 58   :     return TWLWriteRegs(hTWL,address,&data,sizeof(data));

  0000c	e3a03001	 mov         r3, #1
  00010	e28d2010	 add         r2, sp, #0x10
  00014	eb000000	 bl          TWLWriteRegs

; 59   : }

  00018	e89d6000	 ldmia       sp, {sp, lr}
  0001c	e12fff1e	 bx          lr
  00020		 |$M49191|

			 ENDP  ; |TWLWriteByteReg|

	EXPORT	|InitGraphicsEngine|

  00014			 AREA	 |.bss|, NOINIT
|g_nBpp| %	0x4
|g_nBpp| %	0x4
; File c:\wince600\platform\z2170p\src\bootloader\display\bsp_logo.c

  00000			 AREA	 |.pdata|, PDATA
|$T49206| DCD	|$LN5@InitGraphi|
	DCD	0x40000b01
; Function compile flags: /Ogspy

  00000			 AREA	 |.text|, CODE, ARM

  00000		 |InitGraphicsEngine| PROC

; 641  : {

  00000		 |$LN5@InitGraphi|
  00000	e92d4010	 stmdb       sp!, {r4, lr}
  00004		 |$M49203|
  00004	e1a0e000	 mov         lr, r0

; 642  : 		
; 643  : 	g_nHeight = nHeight;

  00008	e59f4018	 ldr         r4, [pc, #0x18]

; 644  : 	g_nWidth  = nWidth;	
; 645  : 	g_nBpp = (DWORD)nBpp; 
; 646  :     g_dwFrameBuffer = (volatile DWORD *) dwFrameBuffer;
; 647  : 	
; 648  : 	//FillASCII();
; 649  : 	
; 650  : 	return TRUE;

  0000c	e3a00001	 mov         r0, #1
  00010	e5841004	 str         r1, [r4, #4]
  00014	e584e008	 str         lr, [r4, #8]
  00018	e5842000	 str         r2, [r4]
  0001c	e5843010	 str         r3, [r4, #0x10]

; 651  : }

  00020	e8bd4010	 ldmia       sp!, {r4, lr}
  00024	e12fff1e	 bx          lr
  00028		 |$LN6@InitGraphi|
  00028		 |$LN7@InitGraphi|
  00028	00000000	 DCD         |g_nBpp|
  0002c		 |$M49204|

			 ENDP  ; |InitGraphicsEngine|

	EXPORT	|FillASCII|

  00000			 AREA	 |.pdata|, PDATA
|$T49232| DCD	|$LN22@FillASCII|
	DCD	0x40004c02
; Function compile flags: /Ogspy

  00000			 AREA	 |.text|, CODE, ARM

  00000		 |FillASCII| PROC

; 654  : {

  00000		 |$LN22@FillASCII|
  00000	e92d4ff0	 stmdb       sp!, {r4 - r11, lr}
  00004	e24dd018	 sub         sp, sp, #0x18
  00008		 |$M49229|
  00008	e1a0a000	 mov         r10, r0
  0000c	e58da014	 str         r10, [sp, #0x14]

; 655  :     volatile DWORD *mem = g_dwFrameBuffer;
; 656  :     //static DWORD nWidth	= 360;  
; 657  :     static DWORD nWidth	= 180;
; 658  :     int printMode = 0;
; 659  : 	int printN = 15;
; 660  : 	//BYTE showChar[] ={45,80,66,69,74,79,72,15,15,15};	//Loading...
; 661  : 	UINT16 tempbit, i, j;// k;
; 662  :     int p = 8;
; 663  :     unsigned long offset;
; 664  :     int offh = 0, offw = 0;
; 665  :     unsigned char bit;
; 666  : 	BYTE c = 0; 
; 667  : 	static int cur_col  = 13;
; 668  : 	static int cur_row  = 7;        //shift a row place equal a pixel, Ray 131003  
; 669  : 	BYTE n = 0;
; 670  : 	int shiftPalce = 8;	
; 671  :     BOOL drawEnd = FALSE;
; 672  : 
; 673  : 	offw =  FONT_WIDTH * cur_row ;  			// offw = 8

  00010	e59f1114	 ldr         r1, [pc, #0x114]

; 674  : 	
; 675  : 	while(n < printN)

  00014	e59f210c	 ldr         r2, [pc, #0x10C]
  00018	e3a0e000	 mov         lr, #0
  0001c	e591300c	 ldr         r3, [r1, #0xC]
  00020	e5910008	 ldr         r0, [r1, #8]
  00024	e5916004	 ldr         r6, [r1, #4]
  00028	e1a05183	 mov         r5, r3, lsl #3
  0002c	e5913000	 ldr         r3, [r1]
  00030	e5929004	 ldr         r9, [r2, #4]
  00034	e592b000	 ldr         r11, [r2]
  00038	e58d3010	 str         r3, [sp, #0x10]
  0003c	e3a03000	 mov         r3, #0
  00040	e58d0004	 str         r0, [sp, #4]
  00044	e58d5008	 str         r5, [sp, #8]
  00048	e58d600c	 str         r6, [sp, #0xC]
  0004c	e3a01008	 mov         r1, #8
  00050	e5cde000	 strb        lr, [sp]
  00054		 |$LL11@FillASCII|

; 676  : 	{
; 677  : 		c = showCharMode[printMode][n];

  00054	e7d3800a	 ldrb        r8, [r3, +r10]

; 678  : 		//c = showChar[n];
; 679  : 		for (i=0; i<16; i++) 
; 680  : 		{
; 681  :         	offh =  FONT_HEIGHT * cur_col + i;     //offh =  16+0, 16+1.....
; 682  :      
; 683  :         	for (j=0; j<8; j++) 
; 684  :         	{
; 685  :             	tempbit = 1 << j; 
; 686  :             	bit = (unsigned char)tempbit;
; 687  :             	bit &= asciiFont[c][i];                 //do array location & bit 
; 688  :                 offset = nWidth * offh + offw;
; 689  :                 if (bit) {							//Non-zero is Running
; 690  :         	  		mem[ p + offset ] = g_wFontColor;
; 691  :                 	p--;
; 692  :             	}else {
; 693  :                 	mem[ p + offset ] = g_wBkColor;
; 694  :                 	p--;
; 695  :             	}
; 696  :             	
; 697  :             	if(p == 0){
; 698  :                 	p = 8;
; 699  :             	}
; 700  :         	}
; 701  :     	}
; 702  : 		offw += shiftPalce;
; 703  : 		n++;

  00058	e59da010	 ldr         r10, [sp, #0x10]
  0005c	e59de004	 ldr         lr, [sp, #4]
  00060	e5cd8001	 strb        r8, [sp, #1]
  00064	e3a02000	 mov         r2, #0
  00068	e3a04000	 mov         r4, #0
  0006c		 |$LL9@FillASCII|
  0006c	e082320e	 add         r3, r2, lr, lsl #4
  00070	e0205396	 mla         r0, r6, r3, r5
  00074	e0827208	 add         r7, r2, r8, lsl #4
  00078	e59f80a4	 ldr         r8, [pc, #0xA4]
  0007c	e3a06000	 mov         r6, #0
  00080	e3a05001	 mov         r5, #1
  00084	e3a02000	 mov         r2, #0
  00088		 |$LL6@FillASCII|
  00088	e7d73008	 ldrb        r3, [r7, +r8]
  0008c	e1130215	 tst         r3, r5, lsl r2
  00090	e0803001	 add         r3, r0, r1
  00094	e0893103	 add         r3, r9, r3, lsl #2
  00098	1583b000	 strne       r11, [r3]
  0009c	0583a000	 streq       r10, [r3]
  000a0	e2863001	 add         r3, r6, #1
  000a4	e2411001	 sub         r1, r1, #1
  000a8	e1a02803	 mov         r2, r3, lsl #16
  000ac	e3510000	 cmp         r1, #0
  000b0	e1a02822	 mov         r2, r2, lsr #16
  000b4	03a01008	 moveq       r1, #8
  000b8	e1a06002	 mov         r6, r2
  000bc	e3520008	 cmp         r2, #8
  000c0	3afffff0	 bcc         |$LL6@FillASCII|
  000c4	e2843001	 add         r3, r4, #1
  000c8	e1a02803	 mov         r2, r3, lsl #16
  000cc	e1a02822	 mov         r2, r2, lsr #16
  000d0	e59d5008	 ldr         r5, [sp, #8]
  000d4	e5dd8001	 ldrb        r8, [sp, #1]
  000d8	e59de004	 ldr         lr, [sp, #4]
  000dc	e59d600c	 ldr         r6, [sp, #0xC]
  000e0	e1a04002	 mov         r4, r2
  000e4	e3520010	 cmp         r2, #0x10
  000e8	3affffdf	 bcc         |$LL9@FillASCII|
  000ec	e5dde000	 ldrb        lr, [sp]
  000f0	e2855008	 add         r5, r5, #8
  000f4	e59da014	 ldr         r10, [sp, #0x14]
  000f8	e28e3001	 add         r3, lr, #1
  000fc	e203e0ff	 and         lr, r3, #0xFF
  00100	e5cde000	 strb        lr, [sp]
  00104	e1a0300e	 mov         r3, lr
  00108	e35e000f	 cmp         lr, #0xF
  0010c	e58d5008	 str         r5, [sp, #8]
  00110	baffffcf	 blt         |$LL11@FillASCII|

; 704  : 		drawEnd = TRUE;
; 705  : 	}
; 706  : 	
; 707  : 	return drawEnd;

  00114	e3a00001	 mov         r0, #1

; 708  : }

  00118	e28dd018	 add         sp, sp, #0x18
  0011c	e8bd4ff0	 ldmia       sp!, {r4 - r11, lr}
  00120	e12fff1e	 bx          lr
  00124		 |$LN23@FillASCII|
  00124		 |$LN24@FillASCII|
  00124	00000000	 DCD         |asciiFont|
  00128		 |$LN25@FillASCII|
  00128	00000000	 DCD         |g_wFontColor|
  0012c		 |$LN26@FillASCII|
  0012c	00000000	 DCD         |g_wBkColor|
  00130		 |$M49230|

			 ENDP  ; |FillASCII|

	EXPORT	|__$ArrayPad$| [ DATA ]
	EXPORT	|FillASCIIMode|
	EXPORT	|??_C@_07PCBHAKJL@Updates?$AA@| [ DATA ] ; `string'
	EXPORT	|??_C@_02JJNJIDOO@F2?$AA@| [ DATA ]	; `string'
	EXPORT	|??_C@_08NKCLJDKG@Reserved?$AA@| [ DATA ] ; `string'
	EXPORT	|??_C@_02MPIDCEGI@F4?$AA@| [ DATA ]	; `string'
	EXPORT	|??_C@_05OFCJKLCH@F1?$CLF2?$AA@| [ DATA ] ; `string'
	EXPORT	|??_C@_05PMDCJKGG@F1?$CLF3?$AA@| [ DATA ] ; `string'
	EXPORT	|??_C@_05LDHDAMKB@F1?$CLF4?$AA@| [ DATA ] ; `string'
	EXPORT	|??_C@_05LLJCOALG@F2?$CLF3?$AA@| [ DATA ] ; `string'
	EXPORT	|??_C@_05PENDHGHB@F2?$CLF4?$AA@| [ DATA ] ; `string'
	EXPORT	|??_C@_05MJLDFPMB@F3?$CLF4?$AA@| [ DATA ] ; `string'
	IMPORT	|__GSHandlerCheck|
	IMPORT	|__security_cookie|
	IMPORT	|memset|
	IMPORT	|memcpy|
	IMPORT	|__security_check_cookie|

  00000			 AREA	 |.pdata|, PDATA
|$T49257| DCD	|$LN12@FillASCIIM|
	DCD	0xc0007d02

  00000			 AREA	 |.xdata|, DATA
|$T49253| DCD	0xfffffff4

  00000			 AREA	 |.rdata|, DATA, READONLY
|??_C@_07PCBHAKJL@Updates?$AA@| DCB "Updates", 0x0	; `string'

  00000			 AREA	 |.rdata|, DATA, READONLY
|??_C@_02JJNJIDOO@F2?$AA@| DCB "F2", 0x0		; `string'

  00000			 AREA	 |.rdata|, DATA, READONLY
|??_C@_08NKCLJDKG@Reserved?$AA@| DCB "Reserved", 0x0	; `string'

  00000			 AREA	 |.rdata|, DATA, READONLY
|??_C@_02MPIDCEGI@F4?$AA@| DCB "F4", 0x0		; `string'

  00000			 AREA	 |.rdata|, DATA, READONLY
|??_C@_05OFCJKLCH@F1?$CLF2?$AA@| DCB "F1+F2", 0x0	; `string'

  00000			 AREA	 |.rdata|, DATA, READONLY
|??_C@_05PMDCJKGG@F1?$CLF3?$AA@| DCB "F1+F3", 0x0	; `string'

  00000			 AREA	 |.rdata|, DATA, READONLY
|??_C@_05LDHDAMKB@F1?$CLF4?$AA@| DCB "F1+F4", 0x0	; `string'

  00000			 AREA	 |.rdata|, DATA, READONLY
|??_C@_05LLJCOALG@F2?$CLF3?$AA@| DCB "F2+F3", 0x0	; `string'

  00000			 AREA	 |.rdata|, DATA, READONLY
|??_C@_05PENDHGHB@F2?$CLF4?$AA@| DCB "F2+F4", 0x0	; `string'

  00000			 AREA	 |.rdata|, DATA, READONLY
|??_C@_05MJLDFPMB@F3?$CLF4?$AA@| DCB "F3+F4", 0x0	; `string'
; Function compile flags: /Ogspy

  00000			 AREA	 |.text|, CODE, ARM

  00000	00000000	 DCD         |__GSHandlerCheck|
  00004	00000000	 DCD         |$T49253|

  00008		 |FillASCIIMode| PROC

; 711  : {                           

  00008		 |$LN12@FillASCIIM|
  00008	e92d4010	 stmdb       sp!, {r4, lr}
  0000c	e24dd0ac	 sub         sp, sp, #0xAC
  00010		 |$M49254|
  00010	e1a04000	 mov         r4, r0
  00014	e59f31dc	 ldr         r3, [pc, #0x1DC]
  00018	e5933000	 ldr         r3, [r3]
  0001c	e58d30a8	 str         r3, [sp, #0xA8]

; 712  :    char showChar[][15] = { "Updates",	     //F1       ,Ray 131106

  00020	e59f21cc	 ldr         r2, [pc, #0x1CC]
  00024	e3a00000	 mov         r0, #0

; 713  :                                "F2",             //F2

  00028	e59f11c0	 ldr         r1, [pc, #0x1C0]
  0002c	e5923000	 ldr         r3, [r2]
  00030	e5922004	 ldr         r2, [r2, #4]
  00034	e1cd00bc	 strh        r0, [sp, #0xC]
  00038	e58d0008	 str         r0, [sp, #8]
  0003c	e58d2004	 str         r2, [sp, #4]
  00040	e5cd000e	 strb        r0, [sp, #0xE]
  00044	e3a02003	 mov         r2, #3
  00048	e28d000f	 add         r0, sp, #0xF
  0004c	e58d3000	 str         r3, [sp]
  00050	eb000000	 bl          memcpy
  00054	e3a0200c	 mov         r2, #0xC
  00058	e3a01000	 mov         r1, #0
  0005c	e28d0012	 add         r0, sp, #0x12
  00060	eb000000	 bl          memset

; 714  :                                "Reserved",        //F3

  00064	e59f1180	 ldr         r1, [pc, #0x180]
  00068	e28d001e	 add         r0, sp, #0x1E
  0006c	e3a02009	 mov         r2, #9
  00070	eb000000	 bl          memcpy
  00074	e3a02006	 mov         r2, #6
  00078	e3a01000	 mov         r1, #0
  0007c	e28d0027	 add         r0, sp, #0x27
  00080	eb000000	 bl          memset

; 715  :                                "F4",             //F4    

  00084	e59f115c	 ldr         r1, [pc, #0x15C]
  00088	e28d002d	 add         r0, sp, #0x2D
  0008c	e3a02003	 mov         r2, #3
  00090	eb000000	 bl          memcpy

; 716  :                                "F1+F2",          //F1+F2

  00094	e59f3148	 ldr         r3, [pc, #0x148]
  00098	e3a01000	 mov         r1, #0
  0009c	e58d1030	 str         r1, [sp, #0x30]
  000a0	e5932000	 ldr         r2, [r3]
  000a4	e1d330b4	 ldrh        r3, [r3, #4]
  000a8	e58d1034	 str         r1, [sp, #0x34]
  000ac	e58d203c	 str         r2, [sp, #0x3C]
  000b0	e58d1038	 str         r1, [sp, #0x38]
  000b4	e3a02009	 mov         r2, #9
  000b8	e3a01000	 mov         r1, #0
  000bc	e28d0042	 add         r0, sp, #0x42
  000c0	e1cd34b0	 strh        r3, [sp, #0x40]
  000c4	eb000000	 bl          memset

; 717  :                                "F1+F3",

  000c8	e59f1110	 ldr         r1, [pc, #0x110]
  000cc	e28d004b	 add         r0, sp, #0x4B
  000d0	e3a02006	 mov         r2, #6
  000d4	eb000000	 bl          memcpy
  000d8	e3a02009	 mov         r2, #9
  000dc	e3a01000	 mov         r1, #0
  000e0	e28d0051	 add         r0, sp, #0x51
  000e4	eb000000	 bl          memset

; 718  :                                "F1+F4",

  000e8	e59f10ec	 ldr         r1, [pc, #0xEC]
  000ec	e28d005a	 add         r0, sp, #0x5A
  000f0	e3a02006	 mov         r2, #6
  000f4	eb000000	 bl          memcpy

; 719  :                                "F2+F3",

  000f8	e59f10d8	 ldr         r1, [pc, #0xD8]
  000fc	e3a03000	 mov         r3, #0
  00100	e28d0069	 add         r0, sp, #0x69
  00104	e3a02006	 mov         r2, #6
  00108	e58d3060	 str         r3, [sp, #0x60]
  0010c	e58d3064	 str         r3, [sp, #0x64]
  00110	e5cd3068	 strb        r3, [sp, #0x68]
  00114	eb000000	 bl          memcpy
  00118	e3a02009	 mov         r2, #9
  0011c	e3a01000	 mov         r1, #0
  00120	e28d006f	 add         r0, sp, #0x6F
  00124	eb000000	 bl          memset

; 720  :                                "F2+F4",

  00128	e59f00a4	 ldr         r0, [pc, #0xA4]
  0012c	e3a02009	 mov         r2, #9
  00130	e3a01000	 mov         r1, #0
  00134	e5903000	 ldr         r3, [r0]
  00138	e1d0e0b4	 ldrh        lr, [r0, #4]
  0013c	e28d007e	 add         r0, sp, #0x7E
  00140	e58d3078	 str         r3, [sp, #0x78]
  00144	e1cde7bc	 strh        lr, [sp, #0x7C]
  00148	eb000000	 bl          memset

; 721  :                                "F3+F4"};

  0014c	e59f107c	 ldr         r1, [pc, #0x7C]
  00150	e28d0087	 add         r0, sp, #0x87
  00154	e3a02006	 mov         r2, #6
  00158	eb000000	 bl          memcpy
  0015c	e3a02009	 mov         r2, #9
  00160	e3a01000	 mov         r1, #0
  00164	e28d008d	 add         r0, sp, #0x8D
  00168	eb000000	 bl          memset

; 722  :                                     
; 723  :                                
; 724  :    BYTE showCharToDec[1][15];                       //Ray 131105
; 725  :    int i=0, SIZE = 15;
; 726  :    char c;
; 727  :    //BYTE asciiToHexa; 
; 728  :    
; 729  :   // for(i=0; i<15; i++){
; 730  :     do{
; 731  :         c = showChar[mode][i];
; 732  :         showCharToDec[0][i] = (BYTE)c;
; 733  :         i++;
; 734  :     }while(c == '\0' || i < SIZE);

  0016c	e0642204	 rsb         r2, r4, r4, lsl #4
  00170	e28d3000	 add         r3, sp, #0
  00174	e0821003	 add         r1, r2, r3
  00178	e3a02000	 mov         r2, #0
  0017c	e28d0098	 add         r0, sp, #0x98
  00180		 |$LL5@FillASCIIM|
  00180	e19130d2	 ldrsb       r3, [r1, +r2]
  00184	e7c23000	 strb        r3, [r2, +r0]
  00188	e2822001	 add         r2, r2, #1
  0018c	e3530000	 cmp         r3, #0
  00190	0afffffa	 beq         |$LL5@FillASCIIM|
  00194	e352000f	 cmp         r2, #0xF
  00198	bafffff8	 blt         |$LL5@FillASCIIM|

; 735  : 
; 736  :     if(FillASCII((showCharToDec+0))){        //entry drawing, Ray 131105

  0019c	e28d0098	 add         r0, sp, #0x98
  001a0	eb000000	 bl          FillASCII
  001a4	e3500000	 cmp         r0, #0

; 737  :         return TRUE;

  001a8	e59d00a8	 ldr         r0, [sp, #0xA8]
  001ac	0a000002	 beq         |$LN2@FillASCIIM|
  001b0	eb000000	 bl          __security_check_cookie
  001b4	e3a00001	 mov         r0, #1
  001b8	ea000001	 b           |$LN1@FillASCIIM|
  001bc		 |$LN2@FillASCIIM|

; 738  :     }else{
; 739  :         return FALSE;

  001bc	eb000000	 bl          __security_check_cookie
  001c0	e3a00000	 mov         r0, #0
  001c4		 |$LN1@FillASCIIM|

; 740  :     }
; 741  : }

  001c4	e28dd0ac	 add         sp, sp, #0xAC
  001c8	e8bd4010	 ldmia       sp!, {r4, lr}
  001cc	e12fff1e	 bx          lr
  001d0		 |$LN13@FillASCIIM|
  001d0		 |$LN14@FillASCIIM|
  001d0	00000000	 DCD         |??_C@_05MJLDFPMB@F3?$CLF4?$AA@|
  001d4		 |$LN15@FillASCIIM|
  001d4	00000000	 DCD         |??_C@_05PENDHGHB@F2?$CLF4?$AA@|
  001d8		 |$LN16@FillASCIIM|
  001d8	00000000	 DCD         |??_C@_05LLJCOALG@F2?$CLF3?$AA@|
  001dc		 |$LN17@FillASCIIM|
  001dc	00000000	 DCD         |??_C@_05LDHDAMKB@F1?$CLF4?$AA@|
  001e0		 |$LN18@FillASCIIM|
  001e0	00000000	 DCD         |??_C@_05PMDCJKGG@F1?$CLF3?$AA@|
  001e4		 |$LN19@FillASCIIM|
  001e4	00000000	 DCD         |??_C@_05OFCJKLCH@F1?$CLF2?$AA@|
  001e8		 |$LN20@FillASCIIM|
  001e8	00000000	 DCD         |??_C@_02MPIDCEGI@F4?$AA@|
  001ec		 |$LN21@FillASCIIM|
  001ec	00000000	 DCD         |??_C@_08NKCLJDKG@Reserved?$AA@|
  001f0		 |$LN22@FillASCIIM|
  001f0	00000000	 DCD         |??_C@_02JJNJIDOO@F2?$AA@|
  001f4		 |$LN23@FillASCIIM|
  001f4	00000000	 DCD         |??_C@_07PCBHAKJL@Updates?$AA@|
  001f8		 |$LN24@FillASCIIM|
  001f8	00000000	 DCD         |__security_cookie|
  001fc		 |$M49255|

			 ENDP  ; |FillASCIIMode|

	EXPORT	|ClearDisplayBuffer|
	IMPORT	|LcdPdd_GetMemory|

  00000			 AREA	 |.pdata|, PDATA
|$T49279| DCD	|$LN10@ClearDispl|
	DCD	0x40000f02
; Function compile flags: /Ogspy

  00000			 AREA	 |.text|, CODE, ARM

  00000		 |ClearDisplayBuffer| PROC

; 998  : {

  00000		 |$LN10@ClearDispl|
  00000	e52de004	 str         lr, [sp, #-4]!
  00004	e24dd004	 sub         sp, sp, #4
  00008		 |$M49276|

; 999  : 	DWORD framebufferPA;
; 1000 : 	DWORD i, len;
; 1001 : 	
; 1002 : 	len = (320 * 240 * 3) / 4;
; 1003 : 	LcdPdd_GetMemory( NULL, &framebufferPA );

  00008	e28d1000	 add         r1, sp, #0
  0000c	e3a00000	 mov         r0, #0
  00010	eb000000	 bl          LcdPdd_GetMemory
  00014	e3a02000	 mov         r2, #0
  00018	e3a01000	 mov         r1, #0
  0001c		 |$LL3@ClearDispl|

; 1004 : 	for( i=0 ; i<len ; i++ )
; 1005 : 		*((DWORD *)framebufferPA + i) = 0x0;

  0001c	e59d3000	 ldr         r3, [sp]
  00020	e7821003	 str         r1, [r2, +r3]
  00024	e2822004	 add         r2, r2, #4
  00028	e3520be1	 cmp         r2, #0xE1, 22
  0002c	3afffffa	 bcc         |$LL3@ClearDispl|

; 1006 : }

  00030	e28dd004	 add         sp, sp, #4
  00034	e49de004	 ldr         lr, [sp], #4
  00038	e12fff1e	 bx          lr
  0003c		 |$M49277|

			 ENDP  ; |ClearDisplayBuffer|


  00000			 AREA	 |.pdata|, PDATA
|$T49294| DCD	|$LN10@FlipFrameB|
	DCD	0x40001a01
; Function compile flags: /Ogspy

  00000			 AREA	 |.text|, CODE, ARM

  00000		 |FlipFrameBuffer| PROC

; 1009 : {

  00000		 |$LN10@FlipFrameB|
  00000	e92d41f0	 stmdb       sp!, {r4 - r8, lr}
  00004		 |$M49291|
  00004	e1a07003	 mov         r7, r3
  00008	e1a04002	 mov         r4, r2
  0000c	e1a05000	 mov         r5, r0

; 1010 :     DWORD y;
; 1011 :     PUCHAR top;
; 1012 :     PUCHAR bottom;
; 1013 : 
; 1014 :     top = fb;
; 1015 :     bottom = fb + ((h-1)*lineSize);

  00010	e241e001	 sub         lr, r1, #1
  00014	e026549e	 mla         r6, lr, r4, r5

; 1016 :     
; 1017 :     for (y=0;y<h/2;y++)

  00018	e1b080a1	 movs        r8, r1, lsr #1
  0001c	0a00000f	 beq         |$LN1@FlipFrameB|
  00020		 |$LL3@FlipFrameB|

; 1018 :     {
; 1019 :         memcpy(temporaryBuffer,top,lineSize);

  00020	e1a02004	 mov         r2, r4
  00024	e1a01005	 mov         r1, r5
  00028	e1a00007	 mov         r0, r7
  0002c	eb000000	 bl          memcpy

; 1020 :         memcpy(top,bottom,lineSize);

  00030	e1a02004	 mov         r2, r4
  00034	e1a01006	 mov         r1, r6
  00038	e1a00005	 mov         r0, r5
  0003c	eb000000	 bl          memcpy

; 1021 :         memcpy(bottom,temporaryBuffer,lineSize);

  00040	e1a02004	 mov         r2, r4
  00044	e1a01007	 mov         r1, r7
  00048	e1a00006	 mov         r0, r6
  0004c	eb000000	 bl          memcpy

; 1022 :         top += lineSize;

  00050	e0855004	 add         r5, r5, r4

; 1023 :         bottom -= lineSize;

  00054	e0466004	 sub         r6, r6, r4
  00058	e2588001	 subs        r8, r8, #1
  0005c	1affffef	 bne         |$LL3@FlipFrameB|
  00060		 |$LN1@FlipFrameB|

; 1024 :     }
; 1025 : }

  00060	e8bd41f0	 ldmia       sp!, {r4 - r8, lr}
  00064	e12fff1e	 bx          lr
  00068		 |$M49292|

			 ENDP  ; |FlipFrameBuffer|

	EXPORT	|reset_display_controller|
	IMPORT	|OALPAtoVA|

  00000			 AREA	 |.pdata|, PDATA
|$T49317| DCD	|$LN18@reset_disp|
	DCD	0x40002901
; Function compile flags: /Ogspy

  00000			 AREA	 |.text|, CODE, ARM

  00000		 |reset_display_controller| PROC

; 1655 : {

  00000		 |$LN18@reset_disp|
  00000	e92d4030	 stmdb       sp!, {r4, r5, lr}
  00004		 |$M49314|
  00004	e3a03312	 mov         r3, #0x12, 6

; 1656 :     
; 1657 :     UINT32 reg_val;
; 1658 :     UINT16 count;
; 1659 :     UINT32 timeout;
; 1660 :     UINT32 fclk, iclk;
; 1661 :     OMAP_PRCM_DSS_CM_REGS *pPrcmRegs = OALPAtoUA(OMAP_PRCM_DSS_CM_REGS_PA);

  00008	e3830c4e	 orr         r0, r3, #0x4E, 24
  0000c	e3a01000	 mov         r1, #0
  00010	eb000000	 bl          OALPAtoVA
  00014	e1a04000	 mov         r4, r0

; 1662 :     OMAP_DISPC_REGS  *pDisplayRegs = OALPAtoUA(OMAP_DISC1_REGS_PA);

  00018	e59f0080	 ldr         r0, [pc, #0x80]
  0001c	e3a01000	 mov         r1, #0
  00020	eb000000	 bl          OALPAtoVA

; 1663 :     
; 1664 : 	//OALMSG(OAL_INFO, (L"reset_display_controller+\r\n"));
; 1665 : 
; 1666 :     // enable all display clocks
; 1667 :     fclk = INREG32(&pPrcmRegs->CM_FCLKEN_DSS); // functional clock
; 1668 :     iclk = INREG32(&pPrcmRegs->CM_ICLKEN_DSS); // interconnect clock

  00024	e594e000	 ldr         lr, [r4]
  00028	e1a01004	 mov         r1, r4
  0002c	e5b15010	 ldr         r5, [r1, #0x10]!

; 1669 : 
; 1670 :     OUTREG32(&pPrcmRegs->CM_FCLKEN_DSS, (fclk | CM_CLKEN_DSS1 | CM_CLKEN_DSS2));

  00030	e38e3003	 orr         r3, lr, #3
  00034	e5843000	 str         r3, [r4]

; 1671 :     OUTREG32(&pPrcmRegs->CM_ICLKEN_DSS, (iclk | CM_CLKEN_DSS));
; 1672 :   
; 1673 :     // disable the display controller
; 1674 :     //disable_dss();
; 1675 : 
; 1676 :     // reset the display controller
; 1677 :     OUTREG32(&pDisplayRegs->DISPC_SYSCONFIG, DISPC_SYSCONFIG_SOFTRESET);
; 1678 :     
; 1679 :     // wait until reset completes OR timeout occurs
; 1680 :     timeout=10000;
; 1681 :     while(!((reg_val=INREG32(&pDisplayRegs->DISPC_SYSSTATUS)) & DISPC_SYSSTATUS_RESETDONE) && (timeout > 0))

  00038	e3a02c27	 mov         r2, #0x27, 24
  0003c	e3853001	 orr         r3, r5, #1
  00040	e5813000	 str         r3, [r1]
  00044	e3a03002	 mov         r3, #2
  00048	e5803010	 str         r3, [r0, #0x10]
  0004c	e3822010	 orr         r2, r2, #0x10
  00050	ea000008	 b           |$LN15@reset_disp|
  00054		 |$LL6@reset_disp|
  00054	e3520000	 cmp         r2, #0
  00058	0a000009	 beq         |$LN13@reset_disp|

; 1682 :     {
; 1683 :         // delay
; 1684 :         for(count=0;count<DELAY_COUNT;++count);

  0005c	e3a03000	 mov         r3, #0
  00060		 |$LL4@reset_disp|
  00060	e2833001	 add         r3, r3, #1
  00064	e1a03803	 mov         r3, r3, lsl #16
  00068	e1a03823	 mov         r3, r3, lsr #16
  0006c	e3530064	 cmp         r3, #0x64
  00070	3afffffa	 bcc         |$LL4@reset_disp|

; 1685 :         timeout--;

  00074	e2422001	 sub         r2, r2, #1
  00078		 |$LN15@reset_disp|

; 1682 :     {
; 1683 :         // delay
; 1684 :         for(count=0;count<DELAY_COUNT;++count);

  00078	e5903014	 ldr         r3, [r0, #0x14]

; 1685 :         timeout--;

  0007c	e3130001	 tst         r3, #1
  00080	0afffff3	 beq         |$LL6@reset_disp|
  00084		 |$LN13@reset_disp|

; 1686 :     }
; 1687 : 
; 1688 :     if(!(reg_val & DISPC_SYSSTATUS_RESETDONE))
; 1689 :     {
; 1690 :         // OALMSG(OAL_INFO, (L"reset_display_controller: DSS reset timeout\r\n"));
; 1691 :     }
; 1692 :     
; 1693 :     reg_val=INREG32(&pDisplayRegs->DISPC_SYSCONFIG);

  00084	e5903010	 ldr         r3, [r0, #0x10]

; 1694 :     reg_val &=~(DISPC_SYSCONFIG_SOFTRESET);

  00088	e3c33002	 bic         r3, r3, #2

; 1695 :     OUTREG32(&pDisplayRegs->DISPC_SYSCONFIG,reg_val);

  0008c	e5803010	 str         r3, [r0, #0x10]

; 1696 : 
; 1697 :     // restore old clock settings
; 1698 :     OUTREG32(&pPrcmRegs->CM_FCLKEN_DSS, fclk);

  00090	e584e000	 str         lr, [r4]

; 1699 :     OUTREG32(&pPrcmRegs->CM_ICLKEN_DSS, iclk);

  00094	e5815000	 str         r5, [r1]

; 1700 :     
; 1701 : 	//OALMSG(OAL_INFO, (L"reset_display_controller-\r\n"));
; 1702 : }

  00098	e8bd4030	 ldmia       sp!, {r4, r5, lr}
  0009c	e12fff1e	 bx          lr
  000a0		 |$LN19@reset_disp|
  000a0		 |$LN20@reset_disp|
  000a0	48050400	 DCD         0x48050400
  000a4		 |$M49315|

			 ENDP  ; |reset_display_controller|

	EXPORT	|disable_dss|

  00000			 AREA	 |.pdata|, PDATA
|$T49326| DCD	|$LN5@disable_ds|
	DCD	0x40000100
; Function compile flags: /Ogspy

  00000			 AREA	 |.text|, CODE, ARM

  00000		 |disable_dss| PROC

; 1753 : {

  00000		 |$LN5@disable_ds|
  00000		 |$M49323|

; 1754 :      //OALMSG(OAL_INFO, (L"disable_dss+\r\n"));
; 1755 : 
; 1756 :      //OALMSG(OAL_INFO, (L"disable_dss-\r\n"));
; 1757 : }

  00000	e12fff1e	 bx          lr
  00004		 |$M49324|

			 ENDP  ; |disable_dss|

	EXPORT	|enable_lcd_power|

  00000			 AREA	 |.pdata|, PDATA
|$T49336| DCD	|$LN5@enable_lcd|
	DCD	0x40000f01
; Function compile flags: /Ogspy

  00000			 AREA	 |.text|, CODE, ARM

  00000		 |enable_lcd_power| PROC

; 1766 : {

  00000		 |$LN5@enable_lcd|
  00000	e52de004	 str         lr, [sp, #-4]!
  00004		 |$M49333|
  00004	e3a03312	 mov         r3, #0x12, 6

; 1767 :     OMAP_PRCM_DSS_CM_REGS *pPrcmRegs = OALPAtoUA(OMAP_PRCM_DSS_CM_REGS_PA);

  00008	e3830c4e	 orr         r0, r3, #0x4E, 24
  0000c	e3a01000	 mov         r1, #0
  00010	eb000000	 bl          OALPAtoVA
  00014	e1a02000	 mov         r2, r0

; 1768 :     
; 1769 : 	//OALMSG(OAL_INFO, (L"enable DSS1_ALWON_FCLK, DSS2_ALWON_FCLK,\r\n"));
; 1770 : 	//OALMSG(OAL_INFO, (L"enable DSS_L3_ICLK, DSS_L4_ICLK,\r\n"));
; 1771 :     SETREG32(&pPrcmRegs->CM_FCLKEN_DSS, (CM_CLKEN_DSS1 | CM_CLKEN_DSS2));

  00018	e5923000	 ldr         r3, [r2]

; 1772 :     SETREG32(&pPrcmRegs->CM_ICLKEN_DSS, (CM_CLKEN_DSS));
; 1773 : 
; 1774 : 	//OALMSG(OAL_INFO, (L"enable_lcd_power-\r\n"));
; 1775 : 
; 1776 :     return ERROR_SUCCESS;

  0001c	e3a00000	 mov         r0, #0
  00020	e3833003	 orr         r3, r3, #3
  00024	e5823000	 str         r3, [r2]
  00028	e5b23010	 ldr         r3, [r2, #0x10]!
  0002c	e3833001	 orr         r3, r3, #1
  00030	e5823000	 str         r3, [r2]

; 1777 : }

  00034	e49de004	 ldr         lr, [sp], #4
  00038	e12fff1e	 bx          lr
  0003c		 |$M49334|

			 ENDP  ; |enable_lcd_power|

	EXPORT	|disable_lcd_power|

  00000			 AREA	 |.pdata|, PDATA
|$T49346| DCD	|$LN5@disable_lc|
	DCD	0x40000f01
; Function compile flags: /Ogspy

  00000			 AREA	 |.text|, CODE, ARM

  00000		 |disable_lcd_power| PROC

; 1786 : {

  00000		 |$LN5@disable_lc|
  00000	e52de004	 str         lr, [sp, #-4]!
  00004		 |$M49343|
  00004	e3a03312	 mov         r3, #0x12, 6

; 1787 :     OMAP_PRCM_DSS_CM_REGS *pPrcmRegs = OALPAtoUA(OMAP_PRCM_DSS_CM_REGS_PA);

  00008	e3830c4e	 orr         r0, r3, #0x4E, 24
  0000c	e3a01000	 mov         r1, #0
  00010	eb000000	 bl          OALPAtoVA
  00014	e1a02000	 mov         r2, r0

; 1788 : 
; 1789 :      //OALMSG(OAL_INFO, (L"disable_lcd_power+\r\n"));
; 1790 : 
; 1791 :     CLRREG32(&pPrcmRegs->CM_FCLKEN_DSS, (CM_CLKEN_DSS1 | CM_CLKEN_DSS2));

  00018	e5923000	 ldr         r3, [r2]

; 1792 :     CLRREG32(&pPrcmRegs->CM_ICLKEN_DSS, (CM_CLKEN_DSS));
; 1793 :     
; 1794 :      //OALMSG(OAL_INFO, (L"disable_lcd_power-\r\n"));
; 1795 :     return ERROR_SUCCESS;

  0001c	e3a00000	 mov         r0, #0
  00020	e3c33003	 bic         r3, r3, #3
  00024	e5823000	 str         r3, [r2]
  00028	e5b23010	 ldr         r3, [r2, #0x10]!
  0002c	e3c33001	 bic         r3, r3, #1
  00030	e5823000	 str         r3, [r2]

; 1796 : }

  00034	e49de004	 ldr         lr, [sp], #4
  00038	e12fff1e	 bx          lr
  0003c		 |$M49344|

			 ENDP  ; |disable_lcd_power|

	EXPORT	|disable_lcd_backlight|
	IMPORT	|TWLClose|
	IMPORT	|TWLOpen|
; File c:\wince600\platform\common\src\soc\common_ti_v1\triton\inc\twl.h

  00000			 AREA	 |.pdata|, PDATA
|$T49368| DCD	|$LN11@disable_lc@2|
	DCD	0x40002002
; Function compile flags: /Ogspy
; File c:\wince600\platform\z2170p\src\bootloader\display\bsp_logo.c

  00000			 AREA	 |.text|, CODE, ARM

  00000		 |disable_lcd_backlight| PROC

; 1858 : {

  00000		 |$LN11@disable_lc@2|
  00000	e92d4030	 stmdb       sp!, {r4, r5, lr}
  00004	e24dd004	 sub         sp, sp, #4
  00008		 |$M49365|

; 1859 :     HANDLE hTwl;
; 1860 : 
; 1861 : 	//OALMSG(OAL_INFO, (L"disable_lcd_backlight+\r\n"));
; 1862 :     // Enable LEDA on TPS659XX
; 1863 :     hTwl = TWLOpen();

  00008	eb000000	 bl          TWLOpen
  0000c	e3a05801	 mov         r5, #1, 16

; 1864 : 	TWLWriteByteReg(hTwl, TWL_PMBR1, 0x00);

  00010	e3a0e000	 mov         lr, #0
  00014	e3851092	 orr         r1, r5, #0x92
  00018	e3a03001	 mov         r3, #1
  0001c	e28d2000	 add         r2, sp, #0
  00020	e5cde000	 strb        lr, [sp]
  00024	e1a04000	 mov         r4, r0
  00028	eb000000	 bl          TWLWriteRegs

; 1865 : 	TWLWriteByteReg(hTwl, TWL_GPBR1, 0x00);

  0002c	e3a03000	 mov         r3, #0
  00030	e5cd3000	 strb        r3, [sp]
  00034	e3a03001	 mov         r3, #1
  00038	e28d2000	 add         r2, sp, #0
  0003c	e3851091	 orr         r1, r5, #0x91
  00040	e1a00004	 mov         r0, r4
  00044	eb000000	 bl          TWLWriteRegs
  00048	e3a03802	 mov         r3, #2, 16

; 1866 : 	TWLWriteByteReg(hTwl, TWL_PWM0OFF, 0x7F);

  0004c	e38310f9	 orr         r1, r3, #0xF9
  00050	e3a0e07f	 mov         lr, #0x7F
  00054	e3a03001	 mov         r3, #1
  00058	e28d2000	 add         r2, sp, #0
  0005c	e1a00004	 mov         r0, r4
  00060	e5cde000	 strb        lr, [sp]
  00064	eb000000	 bl          TWLWriteRegs

; 1867 : /*#ifdef BSP_EVM2
; 1868 :     TWLWriteByteReg(hTwl, TWL_LEDEN, 0x00);
; 1869 : #else
; 1870 :     // The hardware design is completely backwards.  In order
; 1871 :     // to disable the LED control signal, the LEDPWM signal must 
; 1872 :     // be enabled 100%
; 1873 :     // Set LEDAON, LEDAPWM
; 1874 :     TWLWriteByteReg(hTwl, TWL_LEDEN, 0x11);
; 1875 :     // Set PWM registers to same value to trigger 100% duty cycle
; 1876 :     TWLWriteByteReg(hTwl, TWL_PWMAOFF, 0x00);
; 1877 :     TWLWriteByteReg(hTwl, TWL_PWMAON, 0x00);
; 1878 : #endif
; 1879 : */    
; 1880 :     TWLClose(hTwl);

  00068	e1a00004	 mov         r0, r4
  0006c	eb000000	 bl          TWLClose

; 1881 :      //OALMSG(OAL_INFO, (L"disable_lcd_backlight-\r\n"));
; 1882 :     return ERROR_SUCCESS;

  00070	e3a00000	 mov         r0, #0

; 1883 : }

  00074	e28dd004	 add         sp, sp, #4
  00078	e8bd4030	 ldmia       sp!, {r4, r5, lr}
  0007c	e12fff1e	 bx          lr
  00080		 |$M49366|

			 ENDP  ; |disable_lcd_backlight|

	EXPORT	|SetDrawCalibration|
	IMPORT	|LcdPdd_LCD_GetMode|

  00000			 AREA	 |.pdata|, PDATA
|$T49435| DCD	|$LN165@SetDrawCal|
	DCD	0x4000ee02
; Function compile flags: /Ogspy

  00000			 AREA	 |.text|, CODE, ARM

  00000		 |SetDrawCalibration| PROC

; 1896 : {

  00000		 |$LN165@SetDrawCal|
  00000	e92d41f0	 stmdb       sp!, {r4 - r8, lr}
  00004	e24dd00c	 sub         sp, sp, #0xC
  00008		 |$M49432|
  00008	e1a04000	 mov         r4, r0

; 1897 :     //HANDLE  hFlash = NULL;
; 1898 :     DWORD	framebuffer;
; 1899 :     DWORD	framebufferPA;
; 1900 :     PUCHAR  pChar;
; 1901 :     ULONG   x, y;
; 1902 :     //WORD	wSignature = 0;
; 1903 :     //DWORD   dwOffset = 0;
; 1904 :     DWORD   dwLcdWidth, dwLcdHeight;
; 1905 :     DWORD   dwLength;
; 1906 : 
; 1907 :     //  Get the LCD width and height
; 1908 :     LcdPdd_LCD_GetMode( NULL, &dwLcdWidth, &dwLcdHeight, NULL );

  0000c	e3a03000	 mov         r3, #0
  00010	e28d2004	 add         r2, sp, #4
  00014	e28d1000	 add         r1, sp, #0
  00018	e3a00000	 mov         r0, #0
  0001c	eb000000	 bl          LcdPdd_LCD_GetMode

; 1909 :     dwLength = BYTES_PER_PIXEL * LOGO_WIDTH * LOGO_HEIGHT;
; 1910 : 
; 1911 :     //  Get the video memory
; 1912 :     LcdPdd_GetMemory( NULL, &framebufferPA );

  00020	e28d1008	 add         r1, sp, #8
  00024	e3a00000	 mov         r0, #0
  00028	eb000000	 bl          LcdPdd_GetMemory

; 1913 :     framebuffer = (DWORD) OALPAtoUA(framebufferPA);

  0002c	e59d0008	 ldr         r0, [sp, #8]
  00030	e3a01000	 mov         r1, #0
  00034	eb000000	 bl          OALPAtoVA

; 1914 :     pChar = (PUCHAR)framebuffer;
; 1915 :     
; 1916 :     if(position == 0)

  00038	e3a03c01	 mov         r3, #1, 24
  0003c	e383602f	 orr         r6, r3, #0x2F

; 1917 :     {
; 1918 :         for (y= 0; y < dwLcdHeight; y++)

  00040	e59d3004	 ldr         r3, [sp, #4]
  00044	e3a070ff	 mov         r7, #0xFF
  00048	e3a08000	 mov         r8, #0
  0004c	e3540000	 cmp         r4, #0
  00050	1a000026	 bne         |$LN148@SetDrawCal|
  00054	e3530000	 cmp         r3, #0
  00058	e3a0e000	 mov         lr, #0
  0005c	0a00002e	 beq         |$LN147@SetDrawCal|
  00060	e59d2000	 ldr         r2, [sp]
  00064		 |$LL115@SetDrawCal|

; 1919 :             {
; 1920 :                 for( x = 0; x < dwLcdWidth; x++ )

  00064	e3a01000	 mov         r1, #0
  00068	e3520000	 cmp         r2, #0
  0006c	0a00001b	 beq         |$LN114@SetDrawCal|
  00070	e24e5097	 sub         r5, lr, #0x97
  00074		 |$LL112@SetDrawCal|

; 1921 :                 {
; 1922 :                         if( y < 16 )

  00074	e35e0010	 cmp         lr, #0x10
  00078	2a000007	 bcs         |$LN109@SetDrawCal|
  0007c		 |$LN161@SetDrawCal|

; 1923 :                         {
; 1924 :                             if( x < 16)

  0007c	e3510010	 cmp         r1, #0x10

; 1925 :                             {
; 1926 :                                 *pChar++ = 0xFF;    //  Blue

  00080	e4c07001	 strb        r7, [r0], #1

; 1927 :                                 *pChar++ = 0x00;    //  Green
; 1928 :                                 *pChar++ = 0x00;    //  Red

  00084	3a000001	 bcc         |$LN149@SetDrawCal|

; 1929 :                             }else if( x > 223){

  00088	e35100df	 cmp         r1, #0xDF
  0008c	9a00000c	 bls         |$LN106@SetDrawCal|
  00090		 |$LN149@SetDrawCal|

; 1930 :                                 *pChar++ = 0xFF;    //  Blue
; 1931 :                                 *pChar++ = 0x00;    //  Green

  00090	e4c08001	 strb        r8, [r0], #1

; 1932 :                                 *pChar++ = 0x00;    //  Red

  00094	e4c08001	 strb        r8, [r0], #1

; 1933 :                             }else{

  00098	ea00000b	 b           |$LN111@SetDrawCal|
  0009c		 |$LN109@SetDrawCal|

; 1934 :                                 *pChar++ = 0xFF;    //  Blue
; 1935 :                                 *pChar++ = 0xFF;    //  Green
; 1936 :                                 *pChar++ = 0xFF;    //  Red
; 1937 :                             }
; 1938 :                         }else if( y >= 151 && y <167){

  0009c	e355000f	 cmp         r5, #0xF
  000a0	8a000004	 bhi         |$LN103@SetDrawCal|

; 1939 :                             if( x > 111 && x < 127)

  000a4	e2413070	 sub         r3, r1, #0x70
  000a8	e353000e	 cmp         r3, #0xE

; 1940 :                             {
; 1941 :                                 *pChar++ = 0xFF;    //  Blue

  000ac	e4c07001	 strb        r7, [r0], #1
  000b0	8a000003	 bhi         |$LN106@SetDrawCal|

; 1942 :                                 *pChar++ = 0x00;    //  Green
; 1943 :                                 *pChar++ = 0x00;    //  Red
; 1944 :                             }else{

  000b4	eafffff5	 b           |$LN149@SetDrawCal|
  000b8		 |$LN103@SetDrawCal|

; 1945 :                                 *pChar++ = 0xFF;    //  Blue
; 1946 :                                 *pChar++ = 0xFF;    //  Green
; 1947 :                                 *pChar++ = 0xFF;    //  Red
; 1948 :                             }
; 1949 :                         }else if( y > 303 ){

  000b8	e15e0006	 cmp         lr, r6

; 1950 :                             if( x < 16)
; 1951 :                             {
; 1952 :                                 *pChar++ = 0xFF;    //  Blue
; 1953 :                                 *pChar++ = 0x00;    //  Green
; 1954 :                                 *pChar++ = 0x00;    //  Red

  000bc	8affffee	 bhi         |$LN161@SetDrawCal|

; 1955 :                             }else if( x > 223){
; 1956 :                                 *pChar++ = 0xFF;    //  Blue
; 1957 :                                 *pChar++ = 0x00;    //  Green
; 1958 :                                 *pChar++ = 0x00;    //  Red
; 1959 :                             }else{
; 1960 :                                 *pChar++ = 0xFF;    //  Blue
; 1961 :                                 *pChar++ = 0xFF;    //  Green
; 1962 :                                 *pChar++ = 0xFF;    //  Red
; 1963 :                             }
; 1964 :                         }else{
; 1965 :                                 *pChar++ = 0xFF;    //  Blue

  000c0	e4c07001	 strb        r7, [r0], #1
  000c4		 |$LN106@SetDrawCal|

; 1966 :                                 *pChar++ = 0xFF;    //  Green

  000c4	e4c07001	 strb        r7, [r0], #1

; 1967 :                                 *pChar++ = 0xFF;    //  Red

  000c8	e4c07001	 strb        r7, [r0], #1
  000cc		 |$LN111@SetDrawCal|
  000cc	e59d2000	 ldr         r2, [sp]
  000d0	e2811001	 add         r1, r1, #1
  000d4	e1510002	 cmp         r1, r2
  000d8	3affffe5	 bcc         |$LL112@SetDrawCal|

; 1919 :             {
; 1920 :                 for( x = 0; x < dwLcdWidth; x++ )

  000dc	e59d3004	 ldr         r3, [sp, #4]
  000e0		 |$LN114@SetDrawCal|

; 1917 :     {
; 1918 :         for (y= 0; y < dwLcdHeight; y++)

  000e0	e28ee001	 add         lr, lr, #1
  000e4	e15e0003	 cmp         lr, r3
  000e8	3affffdd	 bcc         |$LL115@SetDrawCal|
  000ec	ea000000	 b           |$LN113@SetDrawCal|
  000f0		 |$LN148@SetDrawCal|
  000f0	e59d2000	 ldr         r2, [sp]
  000f4		 |$LN113@SetDrawCal|

; 1968 :                         }
; 1969 :                     }
; 1970 :                 }
; 1971 :     } 
; 1972 :     
; 1973 :     switch(position)

  000f4	e3540001	 cmp         r4, #1
  000f8	0a000096	 beq         |$LN91@SetDrawCal|
  000fc	e3540002	 cmp         r4, #2
  00100	0a000080	 beq         |$LN80@SetDrawCal|
  00104	e3540003	 cmp         r4, #3
  00108	0a000058	 beq         |$LN69@SetDrawCal|
  0010c	e3540004	 cmp         r4, #4
  00110	0a00002e	 beq         |$LN46@SetDrawCal|
  00114	e3540005	 cmp         r4, #5
  00118	0a000001	 beq         |$LN23@SetDrawCal|
  0011c		 |$LN147@SetDrawCal|

; 2193 :             break;
; 2194 :             
; 2195 :     }
; 2196 :     return FALSE;

  0011c	e3a00000	 mov         r0, #0
  00120	ea0000a1	 b           |$LN117@SetDrawCal|
  00124		 |$LN23@SetDrawCal|

; 2136 :             break;
; 2137 :           case 5:
; 2138 :             for (y= 0; y < dwLcdHeight; y++)

  00124	e3a0e000	 mov         lr, #0
  00128	e3530000	 cmp         r3, #0
  0012c	0a00009d	 beq         |$LN20@SetDrawCal|
  00130		 |$LL22@SetDrawCal|

; 2139 :             {
; 2140 :                 for( x = 0; x < dwLcdWidth; x++ )

  00130	e3a01000	 mov         r1, #0
  00134	e3520000	 cmp         r2, #0
  00138	0a000010	 beq         |$LN21@SetDrawCal|
  0013c	e24e4097	 sub         r4, lr, #0x97
  00140		 |$LL19@SetDrawCal|

; 2141 :                 {
; 2142 :                         if( y < 16 )

  00140	e35e0010	 cmp         lr, #0x10
  00144	2a000011	 bcs         |$LN16@SetDrawCal|

; 2143 :                         {
; 2144 :                             if( x < 16)

  00148	e3510010	 cmp         r1, #0x10
  0014c	2a000001	 bcs         |$LN15@SetDrawCal|
  00150		 |$LN152@SetDrawCal|

; 2145 :                             {
; 2146 :                                 pChar++;    //  Blue
; 2147 :                                 pChar++;    //  Green
; 2148 :                                 pChar++;    //  Red

  00150	e2800003	 add         r0, r0, #3
  00154	ea000005	 b           |$LN18@SetDrawCal|
  00158		 |$LN15@SetDrawCal|

; 2149 :                             }else if( x > 223){

  00158	e35100df	 cmp         r1, #0xDF
  0015c	8afffffb	 bhi         |$LN152@SetDrawCal|
  00160		 |$LN6@SetDrawCal|

; 2180 :                                 *pChar++ = 0xFF;    //  Blue
; 2181 :                                 *pChar++ = 0xFF;    //  Green
; 2182 :                                 *pChar++ = 0xFF;    //  Red
; 2183 :                             }
; 2184 :                         }else{
; 2185 :                                 *pChar++ = 0xFF;    //  Blue

  00160	e4c07001	 strb        r7, [r0], #1

; 2186 :                                 *pChar++ = 0xFF;    //  Green

  00164	e4c07001	 strb        r7, [r0], #1
  00168		 |$LN151@SetDrawCal|

; 2187 :                                 *pChar++ = 0xFF;    //  Red

  00168	e4c07001	 strb        r7, [r0], #1
  0016c	e59d2000	 ldr         r2, [sp]
  00170		 |$LN18@SetDrawCal|
  00170	e2811001	 add         r1, r1, #1
  00174	e1510002	 cmp         r1, r2
  00178	3afffff0	 bcc         |$LL19@SetDrawCal|

; 2139 :             {
; 2140 :                 for( x = 0; x < dwLcdWidth; x++ )

  0017c	e59d3004	 ldr         r3, [sp, #4]
  00180		 |$LN21@SetDrawCal|

; 2136 :             break;
; 2137 :           case 5:
; 2138 :             for (y= 0; y < dwLcdHeight; y++)

  00180	e28ee001	 add         lr, lr, #1
  00184	e15e0003	 cmp         lr, r3
  00188	3affffe8	 bcc         |$LL22@SetDrawCal|

; 2188 :                         }
; 2189 :                     }
; 2190 :                 }
; 2191 :             //OALLog(L"\r Calibration lRight OK!!\r\n");
; 2192 :             return TRUE; 

  0018c	ea000085	 b           |$LN20@SetDrawCal|
  00190		 |$LN16@SetDrawCal|

; 2150 :                                 pChar++;    //  Blue
; 2151 :                                 pChar++;    //  Green
; 2152 :                                 pChar++;    //  Red
; 2153 :                             }else{
; 2154 :                                 *pChar++ = 0xFF;    //  Blue
; 2155 :                                 *pChar++ = 0xFF;    //  Green
; 2156 :                                 *pChar++ = 0xFF;    //  Red
; 2157 :                             }
; 2158 :                         }else if( y >= 151 && y <167){

  00190	e354000f	 cmp         r4, #0xF
  00194	8a000004	 bhi         |$LN10@SetDrawCal|

; 2159 :                             if( x > 111 && x < 127)

  00198	e2413070	 sub         r3, r1, #0x70
  0019c	e353000e	 cmp         r3, #0xE
  001a0	8affffee	 bhi         |$LN6@SetDrawCal|

; 2145 :                             {
; 2146 :                                 pChar++;    //  Blue
; 2147 :                                 pChar++;    //  Green
; 2148 :                                 pChar++;    //  Red

  001a4	e2800003	 add         r0, r0, #3
  001a8	eafffff0	 b           |$LN18@SetDrawCal|
  001ac		 |$LN10@SetDrawCal|

; 2160 :                             {
; 2161 :                                 pChar++;    //  Blue
; 2162 :                                 pChar++;    //  Green
; 2163 :                                 pChar++;    //  Red
; 2164 :                             }else{
; 2165 :                                 *pChar++ = 0xFF;    //  Blue
; 2166 :                                 *pChar++ = 0xFF;    //  Green
; 2167 :                                 *pChar++ = 0xFF;    //  Red
; 2168 :                             }
; 2169 :                         }else if( y > 303 ){

  001ac	e15e0006	 cmp         lr, r6
  001b0	9affffea	 bls         |$LN6@SetDrawCal|

; 2170 :                             if( x < 16)

  001b4	e3510010	 cmp         r1, #0x10

; 2171 :                             {
; 2172 :                                 pChar++;    //  Blue
; 2173 :                                 pChar++;    //  Green
; 2174 :                                 pChar++;    //  Red

  001b8	3affffe4	 bcc         |$LN152@SetDrawCal|

; 2175 :                             }else if( x > 223){

  001bc	e35100df	 cmp         r1, #0xDF
  001c0	9affffe6	 bls         |$LN6@SetDrawCal|

; 2176 :                                 *pChar++ = 0x00;    //  Blue

  001c4	e4c08001	 strb        r8, [r0], #1

; 2177 :                                 *pChar++ = 0x00;    //  Green

  001c8	e4c08001	 strb        r8, [r0], #1

; 2178 :                                 *pChar++ = 0xFF;    //  Red
; 2179 :                             }else{

  001cc	eaffffe5	 b           |$LN151@SetDrawCal|
  001d0		 |$LN46@SetDrawCal|

; 2079 :             break;
; 2080 :         case 4:
; 2081 :             for (y = 0; y <dwLcdHeight ; y++)

  001d0	e3a0e000	 mov         lr, #0
  001d4	e3530000	 cmp         r3, #0
  001d8	0a000072	 beq         |$LN20@SetDrawCal|
  001dc		 |$LL45@SetDrawCal|

; 2082 :             {
; 2083 :                 for( x = 0 ; x <dwLcdWidth ; x++ )

  001dc	e3a01000	 mov         r1, #0
  001e0	e3520000	 cmp         r2, #0
  001e4	0a00001d	 beq         |$LN44@SetDrawCal|
  001e8	e24e4097	 sub         r4, lr, #0x97
  001ec		 |$LL42@SetDrawCal|

; 2084 :                 {
; 2085 :                         if( y < 16 )

  001ec	e35e0010	 cmp         lr, #0x10
  001f0	2a000003	 bcs         |$LN39@SetDrawCal|

; 2086 :                         {
; 2087 :                             if( x < 16)

  001f4	e3510010	 cmp         r1, #0x10
  001f8	2a00000e	 bcs         |$LN28@SetDrawCal|
  001fc		 |$LN155@SetDrawCal|

; 2088 :                             {
; 2089 :                                 pChar++;    //  Blue
; 2090 :                                 pChar++;    //  Green
; 2091 :                                 pChar++;    //  Red

  001fc	e2800003	 add         r0, r0, #3
  00200	ea000012	 b           |$LN41@SetDrawCal|
  00204		 |$LN39@SetDrawCal|

; 2092 :                             }else if( x > 223){
; 2093 :                                 pChar++;    //  Blue
; 2094 :                                 pChar++;    //  Green
; 2095 :                                 pChar++;    //  Red
; 2096 :                             }else{
; 2097 :                                 *pChar++ = 0xFF;    //  Blue
; 2098 :                                 *pChar++ = 0xFF;    //  Green
; 2099 :                                 *pChar++ = 0xFF;    //  Red
; 2100 :                             }
; 2101 :                         }else if( y >= 151 && y <167){

  00204	e354000f	 cmp         r4, #0xF
  00208	8a000004	 bhi         |$LN33@SetDrawCal|

; 2102 :                             if( x > 111 && x < 127)

  0020c	e2413070	 sub         r3, r1, #0x70
  00210	e353000e	 cmp         r3, #0xE
  00214	8a000009	 bhi         |$LN29@SetDrawCal|

; 2088 :                             {
; 2089 :                                 pChar++;    //  Blue
; 2090 :                                 pChar++;    //  Green
; 2091 :                                 pChar++;    //  Red

  00218	e2800003	 add         r0, r0, #3
  0021c	ea00000b	 b           |$LN41@SetDrawCal|
  00220		 |$LN33@SetDrawCal|

; 2103 :                             {
; 2104 :                                 pChar++;    //  Blue
; 2105 :                                 pChar++;    //  Green
; 2106 :                                 pChar++;    //  Red
; 2107 :                             }else{
; 2108 :                                 *pChar++ = 0xFF;    //  Blue
; 2109 :                                 *pChar++ = 0xFF;    //  Green
; 2110 :                                 *pChar++ = 0xFF;    //  Red
; 2111 :                             }
; 2112 :                         }else if( y > 303 ){

  00220	e15e0006	 cmp         lr, r6
  00224	9a000005	 bls         |$LN29@SetDrawCal|

; 2113 :                             if( x < 16)

  00228	e3510010	 cmp         r1, #0x10

; 2114 :                             {
; 2115 :                                 *pChar++ = 0x00;    //  Blue

  0022c	34c08001	 strccb      r8, [r0], #1

; 2116 :                                 *pChar++ = 0x00;    //  Green

  00230	34c08001	 strccb      r8, [r0], #1
  00234	3a000003	 bcc         |$LN154@SetDrawCal|
  00238		 |$LN28@SetDrawCal|

; 2117 :                                 *pChar++ = 0xFF;    //  Red
; 2118 :                             }else if( x > 223){

  00238	e35100df	 cmp         r1, #0xDF

; 2119 :                                 pChar++;    //  Blue
; 2120 :                                 pChar++;    //  Green
; 2121 :                                 pChar++;    //  Red
; 2122 :                             }else{

  0023c	8affffee	 bhi         |$LN155@SetDrawCal|
  00240		 |$LN29@SetDrawCal|

; 2123 :                                 *pChar++ = 0xFF;    //  Blue
; 2124 :                                 *pChar++ = 0xFF;    //  Green
; 2125 :                                 *pChar++ = 0xFF;    //  Red
; 2126 :                             }
; 2127 :                         }else{
; 2128 :                                 *pChar++ = 0xFF;    //  Blue

  00240	e4c07001	 strb        r7, [r0], #1

; 2129 :                                 *pChar++ = 0xFF;    //  Green

  00244	e4c07001	 strb        r7, [r0], #1
  00248		 |$LN154@SetDrawCal|

; 2130 :                                 *pChar++ = 0xFF;    //  Red

  00248	e4c07001	 strb        r7, [r0], #1
  0024c	e59d2000	 ldr         r2, [sp]
  00250		 |$LN41@SetDrawCal|
  00250	e2811001	 add         r1, r1, #1
  00254	e1510002	 cmp         r1, r2
  00258	3affffe3	 bcc         |$LL42@SetDrawCal|

; 2082 :             {
; 2083 :                 for( x = 0 ; x <dwLcdWidth ; x++ )

  0025c	e59d3004	 ldr         r3, [sp, #4]
  00260		 |$LN44@SetDrawCal|

; 2079 :             break;
; 2080 :         case 4:
; 2081 :             for (y = 0; y <dwLcdHeight ; y++)

  00260	e28ee001	 add         lr, lr, #1
  00264	e15e0003	 cmp         lr, r3
  00268	3affffdb	 bcc         |$LL45@SetDrawCal|

; 2131 :                         }
; 2132 :                     }
; 2133 :                 }
; 2134 :             //OALLog(L"\r Calibration lLeft OK!!\r\n");
; 2135 :             return TRUE; 

  0026c	ea00004d	 b           |$LN20@SetDrawCal|
  00270		 |$LN69@SetDrawCal|

; 2022 :             break;
; 2023 :         case 3:
; 2024 :             for (y= 0; y < dwLcdHeight; y++)

  00270	e3a0e000	 mov         lr, #0
  00274	e3530000	 cmp         r3, #0
  00278	0a00004a	 beq         |$LN20@SetDrawCal|
  0027c		 |$LL68@SetDrawCal|

; 2025 :             {
; 2026 :                 for( x = 0; x < dwLcdWidth; x++ )

  0027c	e3a01000	 mov         r1, #0
  00280	e3520000	 cmp         r2, #0
  00284	0a00001b	 beq         |$LN67@SetDrawCal|
  00288	e24e4097	 sub         r4, lr, #0x97
  0028c		 |$LL65@SetDrawCal|

; 2027 :                 {
; 2028 :                         if( y < 16 )

  0028c	e35e0010	 cmp         lr, #0x10
  00290	2a000003	 bcs         |$LN62@SetDrawCal|
  00294		 |$LN162@SetDrawCal|

; 2029 :                         {
; 2030 :                             if( x < 16)

  00294	e3510010	 cmp         r1, #0x10
  00298	2a00000c	 bcs         |$LN51@SetDrawCal|
  0029c		 |$LN158@SetDrawCal|

; 2031 :                             {
; 2032 :                                 pChar++;    //  Blue
; 2033 :                                 pChar++;    //  Green
; 2034 :                                 pChar++;    //  Red

  0029c	e2800003	 add         r0, r0, #3
  002a0	ea000010	 b           |$LN64@SetDrawCal|
  002a4		 |$LN62@SetDrawCal|

; 2035 :                             }else if( x > 223){
; 2036 :                                 pChar++;    //  Blue
; 2037 :                                 pChar++;    //  Green
; 2038 :                                 pChar++;    //  Red
; 2039 :                             }else{
; 2040 :                                 *pChar++ = 0xFF;    //  Blue
; 2041 :                                 *pChar++ = 0xFF;    //  Green
; 2042 :                                 *pChar++ = 0xFF;    //  Red
; 2043 :                             }
; 2044 :                         }else if( y >= 151 && y <167){

  002a4	e354000f	 cmp         r4, #0xF
  002a8	8a000005	 bhi         |$LN56@SetDrawCal|

; 2045 :                             if( x > 111 && x < 127)

  002ac	e2413070	 sub         r3, r1, #0x70
  002b0	e353000e	 cmp         r3, #0xE
  002b4	8a000007	 bhi         |$LN52@SetDrawCal|

; 2046 :                             {
; 2047 :                                 *pChar++ = 0x00;    //  Blue

  002b8	e4c08001	 strb        r8, [r0], #1

; 2048 :                                 *pChar++ = 0x00;    //  Green

  002bc	e4c08001	 strb        r8, [r0], #1

; 2049 :                                 *pChar++ = 0xFF;    //  Red
; 2050 :                             }else{

  002c0	ea000006	 b           |$LN157@SetDrawCal|
  002c4		 |$LN56@SetDrawCal|

; 2051 :                                 *pChar++ = 0xFF;    //  Blue
; 2052 :                                 *pChar++ = 0xFF;    //  Green
; 2053 :                                 *pChar++ = 0xFF;    //  Red
; 2054 :                             }
; 2055 :                         }else if( y > 303 ){

  002c4	e15e0006	 cmp         lr, r6
  002c8	9a000002	 bls         |$LN52@SetDrawCal|
  002cc	eafffff0	 b           |$LN162@SetDrawCal|
  002d0		 |$LN51@SetDrawCal|

; 2056 :                             if( x < 16)
; 2057 :                             {
; 2058 :                                 pChar++;    //  Blue
; 2059 :                                 pChar++;    //  Green
; 2060 :                                 pChar++;    //  Red
; 2061 :                             }else if( x > 223){

  002d0	e35100df	 cmp         r1, #0xDF

; 2062 :                                 pChar++;    //  Blue
; 2063 :                                 pChar++;    //  Green
; 2064 :                                 pChar++;    //  Red
; 2065 :                             }else{

  002d4	8afffff0	 bhi         |$LN158@SetDrawCal|
  002d8		 |$LN52@SetDrawCal|

; 2066 :                                 *pChar++ = 0xFF;    //  Blue
; 2067 :                                 *pChar++ = 0xFF;    //  Green
; 2068 :                                 *pChar++ = 0xFF;    //  Red
; 2069 :                             }
; 2070 :                         }else{
; 2071 :                                 *pChar++ = 0xFF;    //  Blue

  002d8	e4c07001	 strb        r7, [r0], #1

; 2072 :                                 *pChar++ = 0xFF;    //  Green

  002dc	e4c07001	 strb        r7, [r0], #1
  002e0		 |$LN157@SetDrawCal|

; 2073 :                                 *pChar++ = 0xFF;    //  Red

  002e0	e4c07001	 strb        r7, [r0], #1
  002e4	e59d2000	 ldr         r2, [sp]
  002e8		 |$LN64@SetDrawCal|
  002e8	e2811001	 add         r1, r1, #1
  002ec	e1510002	 cmp         r1, r2
  002f0	3affffe5	 bcc         |$LL65@SetDrawCal|

; 2025 :             {
; 2026 :                 for( x = 0; x < dwLcdWidth; x++ )

  002f4	e59d3004	 ldr         r3, [sp, #4]
  002f8		 |$LN67@SetDrawCal|

; 2022 :             break;
; 2023 :         case 3:
; 2024 :             for (y= 0; y < dwLcdHeight; y++)

  002f8	e28ee001	 add         lr, lr, #1
  002fc	e15e0003	 cmp         lr, r3
  00300	3affffdd	 bcc         |$LL68@SetDrawCal|

; 2074 :                         }
; 2075 :                     }
; 2076 :                 }
; 2077 :             //OALLog(L"\r Calibration center OK!!\r\n");
; 2078 :             return TRUE; 

  00304	ea000027	 b           |$LN20@SetDrawCal|
  00308		 |$LN80@SetDrawCal|

; 1998 :             break;
; 1999 :         case 2:
; 2000 :             for (y= 0; y < 16; y++)

  00308	e3a01010	 mov         r1, #0x10
  0030c		 |$LL79@SetDrawCal|

; 2001 :             {
; 2002 :                 for( x = 0; x < dwLcdWidth; x++ )

  0030c	e3a03000	 mov         r3, #0
  00310	e3520000	 cmp         r2, #0
  00314	0a00000c	 beq         |$LN78@SetDrawCal|
  00318		 |$LL76@SetDrawCal|

; 2003 :                 {
; 2004 :                     if( x < 16)

  00318	e3530010	 cmp         r3, #0x10

; 2005 :                     {
; 2006 :                         pChar++;    //  Blue
; 2007 :                         pChar++;    //  Green
; 2008 :                         pChar++;    //  Red

  0031c	32800003	 addcc       r0, r0, #3
  00320	3a000006	 bcc         |$LN75@SetDrawCal|

; 2009 :                     }else if( x > 223){

  00324	e35300df	 cmp         r3, #0xDF

; 2010 :                         *pChar++ = 0x00;    //  Blue

  00328	84c08001	 strhib      r8, [r0], #1

; 2011 :                         *pChar++ = 0x00;    //  Green

  0032c	84c08001	 strhib      r8, [r0], #1

; 2012 :                         *pChar++ = 0xFF;    //  Red  
; 2013 :                     }else{
; 2014 :                         *pChar++ = 0xFF;    //  Blue

  00330	94c07001	 strlsb      r7, [r0], #1

; 2015 :                         *pChar++ = 0xFF;    //  Green

  00334	94c07001	 strlsb      r7, [r0], #1

; 2016 :                         *pChar++ = 0xFF;    //  Red

  00338	e4c07001	 strb        r7, [r0], #1
  0033c	e59d2000	 ldr         r2, [sp]
  00340		 |$LN75@SetDrawCal|
  00340	e2833001	 add         r3, r3, #1
  00344	e1530002	 cmp         r3, r2
  00348	3afffff2	 bcc         |$LL76@SetDrawCal|
  0034c		 |$LN78@SetDrawCal|

; 1998 :             break;
; 1999 :         case 2:
; 2000 :             for (y= 0; y < 16; y++)

  0034c	e2511001	 subs        r1, r1, #1
  00350	1affffed	 bne         |$LL79@SetDrawCal|

; 2017 :                     }
; 2018 :                 }  
; 2019 :             }
; 2020 :             //OALLog(L"\r Calibration uRight OK!!\r\n");
; 2021 :             return TRUE; 

  00354	ea000013	 b           |$LN20@SetDrawCal|
  00358		 |$LN91@SetDrawCal|

; 1974 :     {
; 1975 :         case 1:
; 1976 :             for (y= 0; y < 16; y++)

  00358	e3a01010	 mov         r1, #0x10
  0035c		 |$LL90@SetDrawCal|

; 1977 :             {
; 1978 :                 for( x = 0; x < dwLcdWidth; x++ )

  0035c	e3a03000	 mov         r3, #0
  00360	e3520000	 cmp         r2, #0
  00364	0a00000d	 beq         |$LN89@SetDrawCal|
  00368		 |$LL87@SetDrawCal|

; 1979 :                 {
; 1980 :                     if( x < 16)

  00368	e3530010	 cmp         r3, #0x10

; 1981 :                     {
; 1982 :                         *pChar++ = 0x00;    //  Blue

  0036c	34c08001	 strccb      r8, [r0], #1

; 1983 :                         *pChar++ = 0x00;    //  Green

  00370	34c08001	 strccb      r8, [r0], #1
  00374	3a000004	 bcc         |$LN160@SetDrawCal|

; 1984 :                         *pChar++ = 0xFF;    //  Red
; 1985 :                     }else if( x > 223){

  00378	e35300df	 cmp         r3, #0xDF

; 1986 :                         pChar++;    //  Blue
; 1987 :                         pChar++;    //  Green
; 1988 :                         pChar++;    //  Red

  0037c	82800003	 addhi       r0, r0, #3
  00380	8a000003	 bhi         |$LN86@SetDrawCal|

; 1989 :                     }else{
; 1990 :                         *pChar++ = 0xFF;    //  Blue

  00384	e4c07001	 strb        r7, [r0], #1

; 1991 :                         *pChar++ = 0xFF;    //  Green

  00388	e4c07001	 strb        r7, [r0], #1
  0038c		 |$LN160@SetDrawCal|

; 1992 :                         *pChar++ = 0xFF;    //  Red

  0038c	e4c07001	 strb        r7, [r0], #1
  00390	e59d2000	 ldr         r2, [sp]
  00394		 |$LN86@SetDrawCal|
  00394	e2833001	 add         r3, r3, #1
  00398	e1530002	 cmp         r3, r2
  0039c	3afffff1	 bcc         |$LL87@SetDrawCal|
  003a0		 |$LN89@SetDrawCal|

; 1974 :     {
; 1975 :         case 1:
; 1976 :             for (y= 0; y < 16; y++)

  003a0	e2511001	 subs        r1, r1, #1
  003a4	1affffec	 bne         |$LL90@SetDrawCal|
  003a8		 |$LN20@SetDrawCal|

; 1993 :                     }
; 1994 :                 }  
; 1995 :             }
; 1996 :             //OALLog(L"\r Calibration uLeft OK!!\r\n");
; 1997 :             return TRUE;  

  003a8	e3a00001	 mov         r0, #1
  003ac		 |$LN117@SetDrawCal|

; 2197 : }

  003ac	e28dd00c	 add         sp, sp, #0xC
  003b0	e8bd41f0	 ldmia       sp!, {r4 - r8, lr}
  003b4	e12fff1e	 bx          lr
  003b8		 |$M49433|

			 ENDP  ; |SetDrawCalibration|

	EXPORT	|Initial_lcd_TSC2046|
	IMPORT	|GPIOSetMode|
	IMPORT	|GPIOOpen|

  00000			 AREA	 |.pdata|, PDATA
|$T49443| DCD	|$LN5@Initial_lc|
	DCD	0x40001701
; Function compile flags: /Ogspy

  00000			 AREA	 |.text|, CODE, ARM

  00000		 |Initial_lcd_TSC2046| PROC

; 2365 : {

  00000		 |$LN5@Initial_lc|
  00000	e92d4010	 stmdb       sp!, {r4, lr}
  00004		 |$M49440|

; 2366 :     HANDLE hGPIO_2046;
; 2367 :    
; 2368 :     hGPIO_2046 = GPIOOpen();

  00004	eb000000	 bl          GPIOOpen

; 2369 :     
; 2370 :     //Initialization the "SPI4" buses, Ray 131119    
; 2371 :     GPIOSetMode(hGPIO_2046, TSC2046_CS,   GPIO_DIR_OUTPUT);

  00008	e3a02000	 mov         r2, #0
  0000c	e3a010a1	 mov         r1, #0xA1
  00010	e1a04000	 mov         r4, r0
  00014	eb000000	 bl          GPIOSetMode

; 2372 :     GPIOSetMode(hGPIO_2046, TSC2046_DCLK, GPIO_DIR_OUTPUT);

  00018	e3a02000	 mov         r2, #0
  0001c	e3a0109c	 mov         r1, #0x9C
  00020	e1a00004	 mov         r0, r4
  00024	eb000000	 bl          GPIOSetMode

; 2373 :     GPIOSetMode(hGPIO_2046, TSC2046_DIN,  GPIO_DIR_OUTPUT);

  00028	e3a02000	 mov         r2, #0
  0002c	e3a0109e	 mov         r1, #0x9E
  00030	e1a00004	 mov         r0, r4
  00034	eb000000	 bl          GPIOSetMode

; 2374 :     GPIOSetMode(hGPIO_2046, TSC2046_DOUT, GPIO_DIR_INPUT);

  00038	e3a02001	 mov         r2, #1
  0003c	e3a0109f	 mov         r1, #0x9F
  00040	e1a00004	 mov         r0, r4
  00044	eb000000	 bl          GPIOSetMode

; 2375 :     
; 2376 :     //OALMSG(OAL_INFO, (L"Initial_lcd_TSC2046\r\n"));   //e-test comment, Ray
; 2377 :     g_hGPIO_2046 = hGPIO_2046;

  00048	e59f3008	 ldr         r3, [pc, #8]
  0004c	e5834000	 str         r4, [r3]

; 2378 : }

  00050	e8bd4010	 ldmia       sp!, {r4, lr}
  00054	e12fff1e	 bx          lr
  00058		 |$LN6@Initial_lc|
  00058		 |$LN7@Initial_lc|
  00058	00000000	 DCD         |g_hGPIO_2046|
  0005c		 |$M49441|

			 ENDP  ; |Initial_lcd_TSC2046|

	EXPORT	|configure_dss|
	IMPORT	|LcdPdd_LCD_Initialize|

  00000			 AREA	 |.pdata|, PDATA
|$T49456| DCD	|$LN5@configure_|
	DCD	0x40003c01
; Function compile flags: /Ogspy

  00000			 AREA	 |.text|, CODE, ARM

  00000		 |configure_dss| PROC

; 2387 : {

  00000		 |$LN5@configure_|
  00000	e92d41f0	 stmdb       sp!, {r4 - r8, lr}
  00004		 |$M49453|
  00004	e1a05000	 mov         r5, r0
  00008	e3a03312	 mov         r3, #0x12, 6

; 2388 :     OMAP_DSS_REGS   *pDSSRegs = OALPAtoUA(OMAP_DSS1_REGS_PA);

  0000c	e3830805	 orr         r0, r3, #5, 16
  00010	e3a01000	 mov         r1, #0
  00014	eb000000	 bl          OALPAtoVA
  00018	e1a04000	 mov         r4, r0

; 2389 :     OMAP_DISPC_REGS *pDisplayRegs = OALPAtoUA(OMAP_DISC1_REGS_PA);

  0001c	e59f00c8	 ldr         r0, [pc, #0xC8]
  00020	e3a01000	 mov         r1, #0
  00024	eb000000	 bl          OALPAtoVA
  00028	e1a06000	 mov         r6, r0

; 2390 :     OMAP_RFBI_REGS *pRfbiRegs = OALPAtoUA(OMAP_RFBI1_REGS_PA);

  0002c	e59f00b4	 ldr         r0, [pc, #0xB4]
  00030	e3a01000	 mov         r1, #0
  00034	eb000000	 bl          OALPAtoVA

; 2391 :     //HANDLE hGpio = GPIOOpen();
; 2392 : 
; 2393 : 	//OALMSG(OAL_INFO, (L"\r\nconfigure_dss+\r\n"));
; 2394 : 
; 2395 :     //  Configure the clock source
; 2396 :     OUTREG32( &pDSSRegs->DSS_CONTROL, 
; 2397 : 			DSS_CONTROL_DISPC_CLK_SWITCH_DSS1_ALWON | DSS_CONTROL_DSI_CLK_SWITCH_DSS1_ALWON);

  00038	e3a03a01	 mov         r3, #1, 20
  0003c	e3a08000	 mov         r8, #0

; 2398 :     
; 2399 :     //  Configure interconnect parameters
; 2400 :     OUTREG32( &pDSSRegs->DSS_SYSCONFIG, DISPC_SYSCONFIG_AUTOIDLE );
; 2401 :     OUTREG32( &pDisplayRegs->DISPC_SYSCONFIG, DISPC_SYSCONFIG_AUTOIDLE|SYSCONFIG_NOIDLE|SYSCONFIG_NOSTANDBY );

  00040	e3a07001	 mov         r7, #1
  00044	e5848040	 str         r8, [r4, #0x40]
  00048	e3833009	 orr         r3, r3, #9
  0004c	e5847010	 str         r7, [r4, #0x10]
  00050	e5863010	 str         r3, [r6, #0x10]
  00054	e1a02000	 mov         r2, r0

; 2402 : 
; 2403 :     // Not enabling any interrupts
; 2404 :     OUTREG32( &pDisplayRegs->DISPC_IRQENABLE, 0x00000000 );
; 2405 :     
; 2406 :     //  Configure the LCD
; 2407 :     LcdPdd_LCD_Initialize( pDSSRegs, pDisplayRegs, pRfbiRegs, NULL);

  00058	e3a03000	 mov         r3, #0
  0005c	e1a01006	 mov         r1, r6
  00060	e1a00004	 mov         r0, r4
  00064	e586801c	 str         r8, [r6, #0x1C]
  00068	eb000000	 bl          LcdPdd_LCD_Initialize

; 2408 :     	
; 2409 :     //  Over-ride default LCD config
; 2410 :     OUTREG32(&pDisplayRegs->DISPC_CONFIG,BSP_LCD_CONFIG);
; 2411 :     
; 2412 :     
; 2413 :     // Configure Graphics Window
; 2414 :     //--------------------------
; 2415 :     
; 2416 :     OUTREG32(&pDisplayRegs->DISPC_GFX_BA0 ,framebuffer );
; 2417 :  
; 2418 :     // configure the position of graphics window
; 2419 :     OUTREG32(&pDisplayRegs->DISPC_GFX_POSITION,BSP_GFX_POS);

  0006c	e59f3070	 ldr         r3, [pc, #0x70]
  00070	e59f2068	 ldr         r2, [pc, #0x68]
  00074	e3a01f81	 mov         r1, #0x81, 30
  00078	e5861044	 str         r1, [r6, #0x44]
  0007c	e5865080	 str         r5, [r6, #0x80]
  00080	e5931000	 ldr         r1, [r3]
  00084	e5923000	 ldr         r3, [r2]

; 2420 :     
; 2421 :     // size of graphics window
; 2422 :     OUTREG32(&pDisplayRegs->DISPC_GFX_SIZE,BSP_GFX_SIZE);

  00088	e59f204c	 ldr         r2, [pc, #0x4C]
  0008c	e59f0044	 ldr         r0, [pc, #0x44]
  00090	e1813803	 orr         r3, r1, r3, lsl #16
  00094	e5863088	 str         r3, [r6, #0x88]
  00098	e5922000	 ldr         r2, [r2]
  0009c	e5903000	 ldr         r3, [r0]
  000a0	e2422001	 sub         r2, r2, #1
  000a4	e2433001	 sub         r3, r3, #1
  000a8	e1833802	 orr         r3, r3, r2, lsl #16
  000ac	e586308c	 str         r3, [r6, #0x8C]

; 2423 :     
; 2424 :     // GW Enabled, RGB24 packed, Little Endian
; 2425 :     OUTREG32(&pDisplayRegs->DISPC_GFX_ATTRIBUTES,LOGO_GFX_ATTRIBUTES);

  000b0	e3a03013	 mov         r3, #0x13
  000b4	e3a0273f	 mov         r2, #0x3F, 14
  000b8	e58630a0	 str         r3, [r6, #0xA0]

; 2426 :     
; 2427 :     OUTREG32(&pDisplayRegs->DISPC_GFX_FIFO_THRESHOLD,BSP_GFX_FIFO_THRESHOLD);

  000bc	e38230c0	 orr         r3, r2, #0xC0
  000c0	e58630a4	 str         r3, [r6, #0xA4]

; 2428 :     OUTREG32(&pDisplayRegs->DISPC_GFX_ROW_INC,BSP_GFX_ROW_INC); 

  000c4	e58670ac	 str         r7, [r6, #0xAC]

; 2429 :     OUTREG32(&pDisplayRegs->DISPC_GFX_PIXEL_INC,BSP_GFX_PIXEL_INC); 

  000c8	e58670b0	 str         r7, [r6, #0xB0]

; 2430 :     OUTREG32(&pDisplayRegs->DISPC_GFX_WINDOW_SKIP,BSP_GFX_WINDOW_SKIP);

  000cc	e58680b4	 str         r8, [r6, #0xB4]

; 2431 : 
; 2432 :     //OALMSG(OAL_INFO, (L"configure_dss-\r\n"));
; 2433 : 
; 2434 : 	//GPIOClose(hGpio);
; 2435 : }

  000d0	e8bd41f0	 ldmia       sp!, {r4 - r8, lr}
  000d4	e12fff1e	 bx          lr
  000d8		 |$LN6@configure_|
  000d8		 |$LN7@configure_|
  000d8	00000000	 DCD         |g_dwLogoWidth|
  000dc		 |$LN8@configure_|
  000dc	00000000	 DCD         |g_dwLogoHeight|
  000e0		 |$LN9@configure_|
  000e0	00000000	 DCD         |g_dwLogoPosY|
  000e4		 |$LN10@configure_|
  000e4	00000000	 DCD         |g_dwLogoPosX|
  000e8		 |$LN11@configure_|
  000e8	48050800	 DCD         0x48050800
  000ec		 |$LN12@configure_|
  000ec	48050400	 DCD         0x48050400
  000f0		 |$M49454|

			 ENDP  ; |configure_dss|

	EXPORT	|display_lcd_image|

  00000			 AREA	 |.pdata|, PDATA
|$T49477| DCD	|$LN15@display_lc|
	DCD	0x40001701
; Function compile flags: /Ogspy

  00000			 AREA	 |.text|, CODE, ARM

  00000		 |display_lcd_image| PROC

; 2444 : {

  00000		 |$LN15@display_lc|
  00000	e92d4010	 stmdb       sp!, {r4, lr}
  00004		 |$M49474|

; 2445 :     UINT8  count, timeout = DELAY_COUNT  ;
; 2446 :     UINT16 ctrl;
; 2447 :     OMAP_DISPC_REGS *pDisplayRegs = OALPAtoUA(OMAP_DISC1_REGS_PA);

  00004	e59f004c	 ldr         r0, [pc, #0x4C]
  00008	e3a01000	 mov         r1, #0
  0000c	e3a04064	 mov         r4, #0x64
  00010	eb000000	 bl          OALPAtoVA

; 2448 :     
; 2449 :     // Apply display configuration
; 2450 :     SETREG32(&pDisplayRegs->DISPC_CONTROL,DISPC_CONTROL_GOLCD);

  00014	e5903040	 ldr         r3, [r0, #0x40]
  00018	e3833020	 orr         r3, r3, #0x20
  0001c	e5803040	 str         r3, [r0, #0x40]
  00020		 |$LL7@display_lc|

; 2451 :     
; 2452 :     // wait for configuration to take effect
; 2453 :     do
; 2454 :     {
; 2455 :         for(count=0;count<DELAY_COUNT;++count);

  00020	e3a03000	 mov         r3, #0
  00024		 |$LL4@display_lc|
  00024	e2833001	 add         r3, r3, #1
  00028	e20330ff	 and         r3, r3, #0xFF
  0002c	e3530064	 cmp         r3, #0x64
  00030	3afffffb	 bcc         |$LL4@display_lc|

; 2456 :         ctrl=INREG16(&pDisplayRegs->DISPC_CONTROL);

  00034	e1d024b0	 ldrh        r2, [r0, #0x40]

; 2457 :         timeout-- ;

  00038	e28430ff	 add         r3, r4, #0xFF
  0003c	e20340ff	 and         r4, r3, #0xFF

; 2458 :     }
; 2459 :     while((ctrl & DISPC_CONTROL_GOLCD) && (timeout > 0));

  00040	e3120020	 tst         r2, #0x20
  00044	0a000001	 beq         |$LN1@display_lc|
  00048	e3540000	 cmp         r4, #0
  0004c	1afffff3	 bne         |$LL7@display_lc|
  00050		 |$LN1@display_lc|

; 2460 :     
; 2461 : 	// Power up and start scanning
; 2462 :     // LcdPdd_SetPowerLevel(D0);   
; 2463 :     
; 2464 : 	// OALMSG(OAL_INFO, (L"display_lcd_image-\r\n"));
; 2465 : }

  00050	e8bd4010	 ldmia       sp!, {r4, lr}
  00054	e12fff1e	 bx          lr
  00058		 |$LN16@display_lc|
  00058		 |$LN17@display_lc|
  00058	48050400	 DCD         0x48050400
  0005c		 |$M49475|

			 ENDP  ; |display_lcd_image|

	EXPORT	|LcdStall|
	IMPORT	|OALStall|

  00000			 AREA	 |.pdata|, PDATA
|$T49487| DCD	|$LN5@LcdStall|
	DCD	0x40000401
; Function compile flags: /Ogspy

  00000			 AREA	 |.text|, CODE, ARM

  00000		 |LcdStall| PROC

; 2469 : {

  00000		 |$LN5@LcdStall|
  00000	e52de004	 str         lr, [sp, #-4]!
  00004		 |$M49484|

; 2470 :     OALStall(dwMicroseconds);

  00004	eb000000	 bl          OALStall

; 2471 : }

  00008	e49de004	 ldr         lr, [sp], #4
  0000c	e12fff1e	 bx          lr
  00010		 |$M49485|

			 ENDP  ; |LcdStall|

	EXPORT	|LcdSleep|

  00000			 AREA	 |.pdata|, PDATA
|$T49495| DCD	|$LN5@LcdSleep|
	DCD	0x40000601
; Function compile flags: /Ogspy

  00000			 AREA	 |.text|, CODE, ARM

  00000		 |LcdSleep| PROC

; 2474 : {

  00000		 |$LN5@LcdSleep|
  00000	e52de004	 str         lr, [sp, #-4]!
  00004		 |$M49492|

; 2475 :     OALStall(1000 * dwMilliseconds);

  00004	e3a02ffa	 mov         r2, #0xFA, 30
  00008	e0000092	 mul         r0, r2, r0
  0000c	eb000000	 bl          OALStall

; 2476 : }

  00010	e49de004	 ldr         lr, [sp], #4
  00014	e12fff1e	 bx          lr
  00018		 |$M49493|

			 ENDP  ; |LcdSleep|

	EXPORT	|spiWrBitHigh|
	IMPORT	|GPIOClrBit|
	IMPORT	|GPIOSetBit|

  00000			 AREA	 |.pdata|, PDATA
|$T49508| DCD	|$LN9@spiWrBitHi|
	DCD	0x40001501
; Function compile flags: /Ogspy

  00000			 AREA	 |.text|, CODE, ARM

  00000		 |spiWrBitHigh| PROC

; 746  : {

  00000		 |$LN9@spiWrBitHi|
  00000	e92d4010	 stmdb       sp!, {r4, lr}
  00004		 |$M49505|

; 747  :     DWORD delay = 10;
; 748  : 
; 749  :     GPIOSetBit(hGpio, SPI_DOUT_PIN);

  00004	e59f4044	 ldr         r4, [pc, #0x44]
  00008	e3a010ac	 mov         r1, #0xAC
  0000c	e5940000	 ldr         r0, [r4]
  00010	eb000000	 bl          GPIOSetBit

; 750  : 
; 751  :     GPIOClrBit(hGpio, SPI_CLK_PIN);

  00014	e5940000	 ldr         r0, [r4]
  00018	e3a010ab	 mov         r1, #0xAB
  0001c	eb000000	 bl          GPIOClrBit

; 752  :     LcdStall(delay);

  00020	e3a0000a	 mov         r0, #0xA
  00024	eb000000	 bl          OALStall

; 753  :     GPIOSetBit(hGpio, SPI_CLK_PIN);

  00028	e5940000	 ldr         r0, [r4]
  0002c	e3a010ab	 mov         r1, #0xAB
  00030	eb000000	 bl          GPIOSetBit

; 754  :     LcdStall(delay);

  00034	e3a0000a	 mov         r0, #0xA
  00038	eb000000	 bl          OALStall

; 755  :     GPIOClrBit(hGpio, SPI_CLK_PIN);

  0003c	e5940000	 ldr         r0, [r4]
  00040	e3a010ab	 mov         r1, #0xAB
  00044	eb000000	 bl          GPIOClrBit

; 756  : }

  00048	e8bd4010	 ldmia       sp!, {r4, lr}
  0004c	e12fff1e	 bx          lr
  00050		 |$LN10@spiWrBitHi|
  00050		 |$LN11@spiWrBitHi|
  00050	00000000	 DCD         |hGpio|
  00054		 |$M49506|

			 ENDP  ; |spiWrBitHigh|

	EXPORT	|spiWrBitLow|

  00000			 AREA	 |.pdata|, PDATA
|$T49523| DCD	|$LN9@spiWrBitLo|
	DCD	0x40001501
; Function compile flags: /Ogspy

  00000			 AREA	 |.text|, CODE, ARM

  00000		 |spiWrBitLow| PROC

; 759  : {

  00000		 |$LN9@spiWrBitLo|
  00000	e92d4010	 stmdb       sp!, {r4, lr}
  00004		 |$M49520|

; 760  :     int delay = 10;
; 761  :     
; 762  :     GPIOClrBit(hGpio, SPI_DOUT_PIN);

  00004	e59f4044	 ldr         r4, [pc, #0x44]
  00008	e3a010ac	 mov         r1, #0xAC
  0000c	e5940000	 ldr         r0, [r4]
  00010	eb000000	 bl          GPIOClrBit

; 763  : 
; 764  :     GPIOClrBit(hGpio, SPI_CLK_PIN);

  00014	e5940000	 ldr         r0, [r4]
  00018	e3a010ab	 mov         r1, #0xAB
  0001c	eb000000	 bl          GPIOClrBit

; 765  :     LcdStall(delay);

  00020	e3a0000a	 mov         r0, #0xA
  00024	eb000000	 bl          OALStall

; 766  :     GPIOSetBit(hGpio, SPI_CLK_PIN);

  00028	e5940000	 ldr         r0, [r4]
  0002c	e3a010ab	 mov         r1, #0xAB
  00030	eb000000	 bl          GPIOSetBit

; 767  :     LcdStall(delay);

  00034	e3a0000a	 mov         r0, #0xA
  00038	eb000000	 bl          OALStall

; 768  :     GPIOClrBit(hGpio, SPI_CLK_PIN);

  0003c	e5940000	 ldr         r0, [r4]
  00040	e3a010ab	 mov         r1, #0xAB
  00044	eb000000	 bl          GPIOClrBit

; 769  : }

  00048	e8bd4010	 ldmia       sp!, {r4, lr}
  0004c	e12fff1e	 bx          lr
  00050		 |$LN10@spiWrBitLo|
  00050		 |$LN11@spiWrBitLo|
  00050	00000000	 DCD         |hGpio|
  00054		 |$M49521|

			 ENDP  ; |spiWrBitLow|

	EXPORT	|spi_SendData|

  00000			 AREA	 |.pdata|, PDATA
|$T49536| DCD	|$LN12@spi_SendDa|
	DCD	0x40001701
; Function compile flags: /Ogspy

  00000			 AREA	 |.text|, CODE, ARM

  00000		 |spi_SendData| PROC

; 772  : {

  00000		 |$LN12@spi_SendDa|
  00000	e92d40f0	 stmdb       sp!, {r4 - r7, lr}
  00004		 |$M49533|
  00004	e1a06000	 mov         r6, r0

; 773  :     short iCount = 0;
; 774  : 	
; 775  : 	GPIOClrBit(hGpio, SPI_CS0_PIN);

  00008	e59f5048	 ldr         r5, [pc, #0x48]
  0000c	e3a010ae	 mov         r1, #0xAE
  00010	e5950000	 ldr         r0, [r5]
  00014	eb000000	 bl          GPIOClrBit

; 776  :     for(iCount=8; iCount>=0; iCount--)

  00018	e3a04008	 mov         r4, #8
  0001c	e3a07001	 mov         r7, #1
  00020		 |$LL5@spi_SendDa|

; 777  :     {
; 778  : 		if(iSendData & (1<<iCount)) 

  00020	e1160417	 tst         r6, r7, lsl r4
  00024	0a000001	 beq         |$LN2@spi_SendDa|

; 779  : 			spiWrBitHigh();

  00028	eb000000	 bl          spiWrBitHigh

; 780  : 		else 

  0002c	ea000000	 b           |$LN4@spi_SendDa|
  00030		 |$LN2@spi_SendDa|

; 781  : 			spiWrBitLow();

  00030	eb000000	 bl          spiWrBitLow
  00034		 |$LN4@spi_SendDa|

; 776  :     for(iCount=8; iCount>=0; iCount--)

  00034	e2443001	 sub         r3, r4, #1
  00038	e1a04803	 mov         r4, r3, lsl #16
  0003c	e1b04844	 movs        r4, r4, asr #16
  00040	5afffff6	 bpl         |$LL5@spi_SendDa|

; 782  : 	}
; 783  : 	GPIOSetBit(hGpio, SPI_CS0_PIN);

  00044	e5950000	 ldr         r0, [r5]
  00048	e3a010ae	 mov         r1, #0xAE
  0004c	eb000000	 bl          GPIOSetBit

; 784  : }

  00050	e8bd40f0	 ldmia       sp!, {r4 - r7, lr}
  00054	e12fff1e	 bx          lr
  00058		 |$LN13@spi_SendDa|
  00058		 |$LN14@spi_SendDa|
  00058	00000000	 DCD         |hGpio|
  0005c		 |$M49534|

			 ENDP  ; |spi_SendData|

	EXPORT	|WMLCDCOMD|

  00000			 AREA	 |.pdata|, PDATA
|$T49546| DCD	|$LN5@WMLCDCOMD|
	DCD	0x40000401
; Function compile flags: /Ogspy

  00000			 AREA	 |.text|, CODE, ARM

  00000		 |WMLCDCOMD| PROC

; 787  : {

  00000		 |$LN5@WMLCDCOMD|
  00000	e52de004	 str         lr, [sp, #-4]!
  00004		 |$M49543|

; 788  :     spi_SendData(cmd);

  00004	eb000000	 bl          spi_SendData

; 789  : }

  00008	e49de004	 ldr         lr, [sp], #4
  0000c	e12fff1e	 bx          lr
  00010		 |$M49544|

			 ENDP  ; |WMLCDCOMD|

	EXPORT	|WMLCDDATA|

  00000			 AREA	 |.pdata|, PDATA
|$T49554| DCD	|$LN5@WMLCDDATA|
	DCD	0x40000701
; Function compile flags: /Ogspy

  00000			 AREA	 |.text|, CODE, ARM

  00000		 |WMLCDDATA| PROC

; 792  : {

  00000		 |$LN5@WMLCDDATA|
  00000	e52de004	 str         lr, [sp, #-4]!
  00004		 |$M49551|

; 793  : 	dat |= 0x0100;

  00004	e3803c01	 orr         r3, r0, #1, 24

; 794  : 	spi_SendData(dat);

  00008	e1a00803	 mov         r0, r3, lsl #16
  0000c	e1a00840	 mov         r0, r0, asr #16
  00010	eb000000	 bl          spi_SendData

; 795  : }

  00014	e49de004	 ldr         lr, [sp], #4
  00018	e12fff1e	 bx          lr
  0001c		 |$M49552|

			 ENDP  ; |WMLCDDATA|

	EXPORT	|LCD_Initial_Code|

  00000			 AREA	 |.pdata|, PDATA
|$T50206| DCD	|$LN345@LCD_Initia|
	DCD	0x40015e01
; Function compile flags: /Ogspy

  00000			 AREA	 |.text|, CODE, ARM

  00000		 |LCD_Initial_Code| PROC

; 798  : {

  00000		 |$LN345@LCD_Initia|
  00000	e92d4070	 stmdb       sp!, {r4 - r6, lr}
  00004		 |$M50203|

; 799  : 	WMLCDCOMD(0xB0); // Manufacturer Command Access Protect

  00004	e3a000b0	 mov         r0, #0xB0
  00008	eb000000	 bl          spi_SendData

; 800  :     WMLCDDATA(0x3F);

  0000c	e3a06c01	 mov         r6, #1, 24
  00010	e386003f	 orr         r0, r6, #0x3F
  00014	eb000000	 bl          spi_SendData

; 801  : 	WMLCDDATA(0x3F);

  00018	e386003f	 orr         r0, r6, #0x3F
  0001c	eb000000	 bl          spi_SendData
  00020	e3a03c13	 mov         r3, #0x13, 24

; 802  : 	LcdSleep(5);

  00024	e3830088	 orr         r0, r3, #0x88
  00028	eb000000	 bl          OALStall

; 803  : 	
; 804  : 	WMLCDCOMD(0xFE);

  0002c	e3a000fe	 mov         r0, #0xFE
  00030	eb000000	 bl          spi_SendData

; 805  : 	WMLCDDATA(0x00);

  00034	e3a00c01	 mov         r0, #1, 24
  00038	eb000000	 bl          spi_SendData

; 806  : 	WMLCDDATA(0x00);

  0003c	e3a00c01	 mov         r0, #1, 24
  00040	eb000000	 bl          spi_SendData

; 807  : 	WMLCDDATA(0x00);

  00044	e3a00c01	 mov         r0, #1, 24
  00048	eb000000	 bl          spi_SendData

; 808  : 	WMLCDDATA(0x21);

  0004c	e3860021	 orr         r0, r6, #0x21
  00050	eb000000	 bl          spi_SendData

; 809  : 	WMLCDDATA(0xB4);

  00054	e3a00f6d	 mov         r0, #0x6D, 30
  00058	eb000000	 bl          spi_SendData

; 810  : 	
; 811  : 	WMLCDCOMD(0xB3); // Frame Memory Access and Interface Setting

  0005c	e3a000b3	 mov         r0, #0xB3
  00060	eb000000	 bl          spi_SendData

; 812  : 	WMLCDDATA(0x00);

  00064	e3a00c01	 mov         r0, #1, 24
  00068	eb000000	 bl          spi_SendData

; 813  : 	WMLCDDATA(0x10);

  0006c	e3a00e11	 mov         r0, #0x11, 28
  00070	eb000000	 bl          spi_SendData

; 814  : 	
; 815  : 	WMLCDCOMD(0xE0); // NVM Access Control

  00074	e3a000e0	 mov         r0, #0xE0
  00078	eb000000	 bl          spi_SendData

; 816  : 	WMLCDDATA(0x00); // NVAE: NVM access enable register. NVM access is enabled when NVAE=1

  0007c	e3a00c01	 mov         r0, #1, 24
  00080	eb000000	 bl          spi_SendData

; 817  : 	WMLCDDATA(0x40); // FTT: NVM control bit.

  00084	e3a00d05	 mov         r0, #5, 26
  00088	eb000000	 bl          spi_SendData
  0008c	e3a03c27	 mov         r3, #0x27, 24

; 818  : 	//Sleep(10);
; 819  : 	LcdSleep(10);

  00090	e3830010	 orr         r0, r3, #0x10
  00094	eb000000	 bl          OALStall

; 820  : 	WMLCDCOMD(0xB3); // Frame Memory Access and Interface Setting

  00098	e3a000b3	 mov         r0, #0xB3
  0009c	eb000000	 bl          spi_SendData

; 821  : 	WMLCDDATA(0x00);

  000a0	e3a00c01	 mov         r0, #1, 24
  000a4	eb000000	 bl          spi_SendData

; 822  : 	WMLCDDATA(0x00);

  000a8	e3a00c01	 mov         r0, #1, 24
  000ac	eb000000	 bl          spi_SendData

; 823  : 	
; 824  : 	WMLCDCOMD(0xFE); // MAGIC - TODO

  000b0	e3a000fe	 mov         r0, #0xFE
  000b4	eb000000	 bl          spi_SendData

; 825  : 	WMLCDDATA(0x00);

  000b8	e3a00c01	 mov         r0, #1, 24
  000bc	eb000000	 bl          spi_SendData

; 826  : 	WMLCDDATA(0x00);

  000c0	e3a00c01	 mov         r0, #1, 24
  000c4	eb000000	 bl          spi_SendData

; 827  : 	WMLCDDATA(0x00);

  000c8	e3a00c01	 mov         r0, #1, 24
  000cc	eb000000	 bl          spi_SendData

; 828  : 	WMLCDDATA(0x21);

  000d0	e3860021	 orr         r0, r6, #0x21
  000d4	eb000000	 bl          spi_SendData

; 829  : 	WMLCDDATA(0x30);

  000d8	e3a00e13	 mov         r0, #0x13, 28
  000dc	eb000000	 bl          spi_SendData

; 830  : 	
; 831  : 	WMLCDCOMD(0xB0); // Manufacturer Command Access Protect

  000e0	e3a000b0	 mov         r0, #0xB0
  000e4	eb000000	 bl          spi_SendData

; 832  : 	WMLCDDATA(0x3F);

  000e8	e386003f	 orr         r0, r6, #0x3F
  000ec	eb000000	 bl          spi_SendData

; 833  : 	WMLCDDATA(0x3F); 

  000f0	e386003f	 orr         r0, r6, #0x3F
  000f4	eb000000	 bl          spi_SendData

; 834  : 	
; 835  : 	WMLCDCOMD(0xB3); // Frame Memory Access and Interface Setting

  000f8	e3a000b3	 mov         r0, #0xB3
  000fc	eb000000	 bl          spi_SendData

; 836  : 	WMLCDDATA(0x02);

  00100	e3860002	 orr         r0, r6, #2
  00104	eb000000	 bl          spi_SendData

; 837  : 	WMLCDDATA(0x00);

  00108	e3a00c01	 mov         r0, #1, 24
  0010c	eb000000	 bl          spi_SendData

; 838  : 	WMLCDDATA(0x00);

  00110	e3a00c01	 mov         r0, #1, 24
  00114	eb000000	 bl          spi_SendData

; 839  : 	WMLCDDATA(0x00);

  00118	e3a00c01	 mov         r0, #1, 24
  0011c	eb000000	 bl          spi_SendData

; 840  : 	        	   	
; 841  : 	WMLCDCOMD(0xB4); //SET interface

  00120	e3a000b4	 mov         r0, #0xB4
  00124	eb000000	 bl          spi_SendData

; 842  : 	WMLCDDATA(0x10);

  00128	e3a00e11	 mov         r0, #0x11, 28
  0012c	eb000000	 bl          spi_SendData

; 843  : 	
; 844  : 	WMLCDCOMD(0xC0); //Panel Driving Setting

  00130	e3a000c0	 mov         r0, #0xC0
  00134	eb000000	 bl          spi_SendData

; 845  : 	WMLCDDATA(0x03); //GIP REV  SM GS BGR SS

  00138	e3860003	 orr         r0, r6, #3
  0013c	eb000000	 bl          spi_SendData
  00140	e3a05c01	 mov         r5, #1, 24

; 846  : 	WMLCDDATA(0x4F);

  00144	e385004f	 orr         r0, r5, #0x4F
  00148	eb000000	 bl          spi_SendData

; 847  : 	WMLCDDATA(0x00);

  0014c	e3a00c01	 mov         r0, #1, 24
  00150	eb000000	 bl          spi_SendData

; 848  : 	WMLCDDATA(0x10);

  00154	e3a00e11	 mov         r0, #0x11, 28
  00158	eb000000	 bl          spi_SendData

; 849  : 	WMLCDDATA(0xA2); //BLV=0 LINE

  0015c	e38500a2	 orr         r0, r5, #0xA2
  00160	eb000000	 bl          spi_SendData

; 850  : 	WMLCDDATA(0x00);

  00164	e3a00c01	 mov         r0, #1, 24
  00168	eb000000	 bl          spi_SendData

; 851  : 	WMLCDDATA(0x01);

  0016c	e3850001	 orr         r0, r5, #1
  00170	eb000000	 bl          spi_SendData

; 852  : 	WMLCDDATA(0x00);

  00174	e3a00c01	 mov         r0, #1, 24
  00178	eb000000	 bl          spi_SendData

; 853  : 	
; 854  : 	WMLCDCOMD(0xC1); //Display Timing Setting for Normal/Partial Mode

  0017c	e3a000c1	 mov         r0, #0xC1
  00180	eb000000	 bl          spi_SendData

; 855  : 	WMLCDDATA(0x01);

  00184	e3850001	 orr         r0, r5, #1
  00188	eb000000	 bl          spi_SendData

; 856  : 	WMLCDDATA(0x02);

  0018c	e3860002	 orr         r0, r6, #2
  00190	eb000000	 bl          spi_SendData

; 857  : 	WMLCDDATA(0x19);

  00194	e3850019	 orr         r0, r5, #0x19
  00198	eb000000	 bl          spi_SendData

; 858  : 	WMLCDDATA(0x08);

  0019c	e3a00f42	 mov         r0, #0x42, 30
  001a0	eb000000	 bl          spi_SendData

; 859  : 	WMLCDDATA(0x08);

  001a4	e3a00f42	 mov         r0, #0x42, 30
  001a8	eb000000	 bl          spi_SendData

; 860  : 
; 861  :     LcdSleep(25);

  001ac	e3a04c61	 mov         r4, #0x61, 24
  001b0	e38400a8	 orr         r0, r4, #0xA8
  001b4	eb000000	 bl          OALStall

; 862  : 	WMLCDCOMD(0xC3); //PRTIAL MODE

  001b8	e3a000c3	 mov         r0, #0xC3
  001bc	eb000000	 bl          spi_SendData

; 863  : 	WMLCDDATA(0x01);

  001c0	e3850001	 orr         r0, r5, #1
  001c4	eb000000	 bl          spi_SendData

; 864  : 	WMLCDDATA(0x00);

  001c8	e3a00c01	 mov         r0, #1, 24
  001cc	eb000000	 bl          spi_SendData

; 865  : 	WMLCDDATA(0x28);

  001d0	e3a00f4a	 mov         r0, #0x4A, 30
  001d4	eb000000	 bl          spi_SendData

; 866  : 	WMLCDDATA(0x08);

  001d8	e3a00f42	 mov         r0, #0x42, 30
  001dc	eb000000	 bl          spi_SendData

; 867  : 	WMLCDDATA(0x08);

  001e0	e3a00f42	 mov         r0, #0x42, 30
  001e4	eb000000	 bl          spi_SendData

; 868  : 
; 869  : 	LcdSleep(25);

  001e8	e38400a8	 orr         r0, r4, #0xA8
  001ec	eb000000	 bl          OALStall

; 870  : 	WMLCDCOMD(0xC4);

  001f0	e3a000c4	 mov         r0, #0xC4
  001f4	eb000000	 bl          spi_SendData

; 871  : 	WMLCDDATA(0x11);

  001f8	e3850011	 orr         r0, r5, #0x11
  001fc	eb000000	 bl          spi_SendData

; 872  : 	WMLCDDATA(0x01);

  00200	e3850001	 orr         r0, r5, #1
  00204	eb000000	 bl          spi_SendData

; 873  : 	WMLCDDATA(0x43);

  00208	e3850043	 orr         r0, r5, #0x43
  0020c	eb000000	 bl          spi_SendData

; 874  : 	WMLCDDATA(0x04);

  00210	e3a00f41	 mov         r0, #0x41, 30
  00214	eb000000	 bl          spi_SendData

; 875  : 	
; 876  : 	WMLCDCOMD(0xC8); //set gamma

  00218	e3a000c8	 mov         r0, #0xC8
  0021c	eb000000	 bl          spi_SendData

; 877  : 	WMLCDDATA(0x0C);

  00220	e3a00f43	 mov         r0, #0x43, 30
  00224	eb000000	 bl          spi_SendData

; 878  : 	WMLCDDATA(0x0C);

  00228	e3a00f43	 mov         r0, #0x43, 30
  0022c	eb000000	 bl          spi_SendData

; 879  : 	WMLCDDATA(0x0D);

  00230	e385000d	 orr         r0, r5, #0xD
  00234	eb000000	 bl          spi_SendData

; 880  : 	WMLCDDATA(0x14);

  00238	e3a00f45	 mov         r0, #0x45, 30
  0023c	eb000000	 bl          spi_SendData

; 881  : 	WMLCDDATA(0x18);

  00240	e3a00f46	 mov         r0, #0x46, 30
  00244	eb000000	 bl          spi_SendData

; 882  : 	WMLCDDATA(0x0E);

  00248	e385000e	 orr         r0, r5, #0xE
  0024c	eb000000	 bl          spi_SendData

; 883  : 	WMLCDDATA(0x09);

  00250	e3850009	 orr         r0, r5, #9
  00254	eb000000	 bl          spi_SendData

; 884  : 	WMLCDDATA(0x09);

  00258	e3850009	 orr         r0, r5, #9
  0025c	eb000000	 bl          spi_SendData

; 885  : 	WMLCDDATA(0x03);

  00260	e3860003	 orr         r0, r6, #3
  00264	eb000000	 bl          spi_SendData

; 886  : 	WMLCDDATA(0x05);

  00268	e3850005	 orr         r0, r5, #5
  0026c	eb000000	 bl          spi_SendData

; 887  : 	WMLCDDATA(0x00);

  00270	e3a00c01	 mov         r0, #1, 24
  00274	eb000000	 bl          spi_SendData

; 888  : 	WMLCDDATA(0x03);

  00278	e3860003	 orr         r0, r6, #3
  0027c	eb000000	 bl          spi_SendData

; 889  : 	WMLCDDATA(0x08);

  00280	e3a00f42	 mov         r0, #0x42, 30
  00284	eb000000	 bl          spi_SendData

; 890  : 	WMLCDDATA(0x07);

  00288	e3850007	 orr         r0, r5, #7
  0028c	eb000000	 bl          spi_SendData

; 891  : 	WMLCDDATA(0x0E);

  00290	e385000e	 orr         r0, r5, #0xE
  00294	eb000000	 bl          spi_SendData

; 892  : 	WMLCDDATA(0x15);

  00298	e3850015	 orr         r0, r5, #0x15
  0029c	eb000000	 bl          spi_SendData

; 893  : 	WMLCDDATA(0x12);

  002a0	e3850012	 orr         r0, r5, #0x12
  002a4	eb000000	 bl          spi_SendData

; 894  : 	WMLCDDATA(0x0A);

  002a8	e385000a	 orr         r0, r5, #0xA
  002ac	eb000000	 bl          spi_SendData

; 895  : 	WMLCDDATA(0x0E);

  002b0	e385000e	 orr         r0, r5, #0xE
  002b4	eb000000	 bl          spi_SendData

; 896  : 	WMLCDDATA(0x0A);

  002b8	e385000a	 orr         r0, r5, #0xA
  002bc	eb000000	 bl          spi_SendData

; 897  : 	WMLCDDATA(0x0A);

  002c0	e385000a	 orr         r0, r5, #0xA
  002c4	eb000000	 bl          spi_SendData

; 898  : 	WMLCDDATA(0x00);

  002c8	e3a00c01	 mov         r0, #1, 24
  002cc	eb000000	 bl          spi_SendData

; 899  : 	
; 900  : 	WMLCDCOMD(0xC9); //set gamma

  002d0	e3a000c9	 mov         r0, #0xC9
  002d4	eb000000	 bl          spi_SendData

; 901  : 	WMLCDDATA(0x0C);

  002d8	e3a00f43	 mov         r0, #0x43, 30
  002dc	eb000000	 bl          spi_SendData

; 902  : 	WMLCDDATA(0x0C);

  002e0	e3a00f43	 mov         r0, #0x43, 30
  002e4	eb000000	 bl          spi_SendData

; 903  : 	WMLCDDATA(0x0D);

  002e8	e385000d	 orr         r0, r5, #0xD
  002ec	eb000000	 bl          spi_SendData

; 904  : 	WMLCDDATA(0x14);

  002f0	e3a00f45	 mov         r0, #0x45, 30
  002f4	eb000000	 bl          spi_SendData

; 905  : 	WMLCDDATA(0x18);

  002f8	e3a00f46	 mov         r0, #0x46, 30
  002fc	eb000000	 bl          spi_SendData

; 906  : 	WMLCDDATA(0x0E);

  00300	e385000e	 orr         r0, r5, #0xE
  00304	eb000000	 bl          spi_SendData

; 907  : 	WMLCDDATA(0x09);

  00308	e3850009	 orr         r0, r5, #9
  0030c	eb000000	 bl          spi_SendData

; 908  : 	WMLCDDATA(0x09);

  00310	e3850009	 orr         r0, r5, #9
  00314	eb000000	 bl          spi_SendData

; 909  : 	WMLCDDATA(0x03);

  00318	e3860003	 orr         r0, r6, #3
  0031c	eb000000	 bl          spi_SendData

; 910  : 	WMLCDDATA(0x05);

  00320	e3850005	 orr         r0, r5, #5
  00324	eb000000	 bl          spi_SendData

; 911  : 	WMLCDDATA(0x00);

  00328	e3a00c01	 mov         r0, #1, 24
  0032c	eb000000	 bl          spi_SendData

; 912  : 	WMLCDDATA(0x03);

  00330	e3860003	 orr         r0, r6, #3
  00334	eb000000	 bl          spi_SendData

; 913  : 	WMLCDDATA(0x08);

  00338	e3a00f42	 mov         r0, #0x42, 30
  0033c	eb000000	 bl          spi_SendData

; 914  : 	WMLCDDATA(0x07);

  00340	e3850007	 orr         r0, r5, #7
  00344	eb000000	 bl          spi_SendData

; 915  : 	WMLCDDATA(0x0E);

  00348	e385000e	 orr         r0, r5, #0xE
  0034c	eb000000	 bl          spi_SendData

; 916  : 	WMLCDDATA(0x15);

  00350	e3850015	 orr         r0, r5, #0x15
  00354	eb000000	 bl          spi_SendData

; 917  : 	WMLCDDATA(0x12);

  00358	e3850012	 orr         r0, r5, #0x12
  0035c	eb000000	 bl          spi_SendData

; 918  : 	WMLCDDATA(0x0A);

  00360	e385000a	 orr         r0, r5, #0xA
  00364	eb000000	 bl          spi_SendData

; 919  : 	WMLCDDATA(0x0E);

  00368	e385000e	 orr         r0, r5, #0xE
  0036c	eb000000	 bl          spi_SendData

; 920  : 	WMLCDDATA(0x0A);

  00370	e385000a	 orr         r0, r5, #0xA
  00374	eb000000	 bl          spi_SendData

; 921  : 	WMLCDDATA(0x0A);

  00378	e385000a	 orr         r0, r5, #0xA
  0037c	eb000000	 bl          spi_SendData

; 922  : 	WMLCDDATA(0x00);

  00380	e3a00c01	 mov         r0, #1, 24
  00384	eb000000	 bl          spi_SendData

; 923  : 	
; 924  : 	WMLCDCOMD(0xCA); //set gamma

  00388	e3a000ca	 mov         r0, #0xCA
  0038c	eb000000	 bl          spi_SendData

; 925  : 	WMLCDDATA(0x0C);

  00390	e3a00f43	 mov         r0, #0x43, 30
  00394	eb000000	 bl          spi_SendData

; 926  : 	WMLCDDATA(0x0C);

  00398	e3a00f43	 mov         r0, #0x43, 30
  0039c	eb000000	 bl          spi_SendData

; 927  : 	WMLCDDATA(0x0D);

  003a0	e385000d	 orr         r0, r5, #0xD
  003a4	eb000000	 bl          spi_SendData

; 928  : 	WMLCDDATA(0x14);

  003a8	e3a00f45	 mov         r0, #0x45, 30
  003ac	eb000000	 bl          spi_SendData

; 929  : 	WMLCDDATA(0x18);

  003b0	e3a00f46	 mov         r0, #0x46, 30
  003b4	eb000000	 bl          spi_SendData

; 930  : 	WMLCDDATA(0x0E);

  003b8	e385000e	 orr         r0, r5, #0xE
  003bc	eb000000	 bl          spi_SendData

; 931  : 	WMLCDDATA(0x09);

  003c0	e3850009	 orr         r0, r5, #9
  003c4	eb000000	 bl          spi_SendData

; 932  : 	WMLCDDATA(0x09);

  003c8	e3850009	 orr         r0, r5, #9
  003cc	eb000000	 bl          spi_SendData

; 933  : 	WMLCDDATA(0x03);

  003d0	e3860003	 orr         r0, r6, #3
  003d4	eb000000	 bl          spi_SendData

; 934  : 	WMLCDDATA(0x05);

  003d8	e3850005	 orr         r0, r5, #5
  003dc	eb000000	 bl          spi_SendData

; 935  : 	WMLCDDATA(0x00);

  003e0	e3a00c01	 mov         r0, #1, 24
  003e4	eb000000	 bl          spi_SendData

; 936  : 	WMLCDDATA(0x03);

  003e8	e3860003	 orr         r0, r6, #3
  003ec	eb000000	 bl          spi_SendData

; 937  : 	WMLCDDATA(0x08);

  003f0	e3a00f42	 mov         r0, #0x42, 30
  003f4	eb000000	 bl          spi_SendData

; 938  : 	WMLCDDATA(0x07);

  003f8	e3850007	 orr         r0, r5, #7
  003fc	eb000000	 bl          spi_SendData

; 939  : 	WMLCDDATA(0x0E);

  00400	e385000e	 orr         r0, r5, #0xE
  00404	eb000000	 bl          spi_SendData

; 940  : 	WMLCDDATA(0x15);

  00408	e3850015	 orr         r0, r5, #0x15
  0040c	eb000000	 bl          spi_SendData

; 941  : 	WMLCDDATA(0x12);

  00410	e3850012	 orr         r0, r5, #0x12
  00414	eb000000	 bl          spi_SendData

; 942  : 	WMLCDDATA(0x0A);

  00418	e385000a	 orr         r0, r5, #0xA
  0041c	eb000000	 bl          spi_SendData

; 943  : 	WMLCDDATA(0x0E);

  00420	e385000e	 orr         r0, r5, #0xE
  00424	eb000000	 bl          spi_SendData

; 944  : 	WMLCDDATA(0x0A);

  00428	e385000a	 orr         r0, r5, #0xA
  0042c	eb000000	 bl          spi_SendData

; 945  : 	WMLCDDATA(0x0A);

  00430	e385000a	 orr         r0, r5, #0xA
  00434	eb000000	 bl          spi_SendData

; 946  : 	WMLCDDATA(0x00);

  00438	e3a00c01	 mov         r0, #1, 24
  0043c	eb000000	 bl          spi_SendData

; 947  : 	
; 948  : 	WMLCDCOMD(0xD0); //Power Setting

  00440	e3a000d0	 mov         r0, #0xD0
  00444	eb000000	 bl          spi_SendData

; 949  : 	WMLCDDATA(0x63); //BT[2:0]=110  VCI+VCI22  :5   -(VCI22):

  00448	e3850063	 orr         r0, r5, #0x63
  0044c	eb000000	 bl          spi_SendData

; 950  : 	WMLCDDATA(0x53);

  00450	e3850053	 orr         r0, r5, #0x53
  00454	eb000000	 bl          spi_SendData

; 951  : 	WMLCDDATA(0x82); //VC2[2:0]=010,VCI2=5V

  00458	e3850082	 orr         r0, r5, #0x82
  0045c	eb000000	 bl          spi_SendData

; 952  : 	WMLCDDATA(0x3F); //VREG=5.0V 

  00460	e386003f	 orr         r0, r6, #0x3F
  00464	eb000000	 bl          spi_SendData

; 953  : 	
; 954  : 	WMLCDCOMD(0xD1); //set vcom

  00468	e3a000d1	 mov         r0, #0xD1
  0046c	eb000000	 bl          spi_SendData

; 955  : 	WMLCDDATA(0x6A); //VCOMH

  00470	e385006a	 orr         r0, r5, #0x6A
  00474	eb000000	 bl          spi_SendData

; 956  : 	WMLCDDATA(0x64); //VDV

  00478	e3a00f59	 mov         r0, #0x59, 30
  0047c	eb000000	 bl          spi_SendData

; 957  : 	
; 958  : 	WMLCDCOMD(0xD2); //Power Setting (Note 1) for Normal/Partial Mode

  00480	e3a000d2	 mov         r0, #0xD2
  00484	eb000000	 bl          spi_SendData

; 959  : 	WMLCDDATA(0x03);

  00488	e3860003	 orr         r0, r6, #3
  0048c	eb000000	 bl          spi_SendData

; 960  : 	WMLCDDATA(0x24);

  00490	e3a00f49	 mov         r0, #0x49, 30
  00494	eb000000	 bl          spi_SendData

; 961  : 	
; 962  : 	WMLCDCOMD(0xD4); //Power Setting (Note 1) for Idle Mode

  00498	e3a000d4	 mov         r0, #0xD4
  0049c	eb000000	 bl          spi_SendData

; 963  : 	WMLCDDATA(0x03);

  004a0	e3860003	 orr         r0, r6, #3
  004a4	eb000000	 bl          spi_SendData

; 964  : 	WMLCDDATA(0x24);

  004a8	e3a00f49	 mov         r0, #0x49, 30
  004ac	eb000000	 bl          spi_SendData

; 965  : 	
; 966  : 	WMLCDCOMD(0xE2); //NVM Load Control

  004b0	e3a000e2	 mov         r0, #0xE2
  004b4	eb000000	 bl          spi_SendData

; 967  : 	WMLCDDATA(0x3F);

  004b8	e386003f	 orr         r0, r6, #0x3F
  004bc	eb000000	 bl          spi_SendData

; 968  : 
; 969  : 	WMLCDCOMD(0x35); //set_tear_on

  004c0	e3a00035	 mov         r0, #0x35
  004c4	eb000000	 bl          spi_SendData

; 970  : 	WMLCDDATA(0x00);

  004c8	e3a00c01	 mov         r0, #1, 24
  004cc	eb000000	 bl          spi_SendData

; 971  : 	
; 972  : 	WMLCDCOMD(0x36);

  004d0	e3a00036	 mov         r0, #0x36
  004d4	eb000000	 bl          spi_SendData

; 973  : 	WMLCDDATA(0x00);

  004d8	e3a00c01	 mov         r0, #1, 24
  004dc	eb000000	 bl          spi_SendData

; 974  : 	
; 975  : 	WMLCDCOMD(0x3A); //set_pixel_format

  004e0	e3a0003a	 mov         r0, #0x3A
  004e4	eb000000	 bl          spi_SendData

; 976  : 	WMLCDDATA(0x66); // 66 18-bits

  004e8	e3850066	 orr         r0, r5, #0x66
  004ec	eb000000	 bl          spi_SendData

; 977  : 	
; 978  : 	WMLCDCOMD(0x2A); //set_column_address

  004f0	e3a0002a	 mov         r0, #0x2A
  004f4	eb000000	 bl          spi_SendData

; 979  : 	WMLCDDATA(0x00);

  004f8	e3a00c01	 mov         r0, #1, 24
  004fc	eb000000	 bl          spi_SendData

; 980  : 	WMLCDDATA(0x00);

  00500	e3a00c01	 mov         r0, #1, 24
  00504	eb000000	 bl          spi_SendData

; 981  : 	WMLCDDATA(0x00);

  00508	e3a00c01	 mov         r0, #1, 24
  0050c	eb000000	 bl          spi_SendData

; 982  : 	WMLCDDATA(0xEF);

  00510	e38500ef	 orr         r0, r5, #0xEF
  00514	eb000000	 bl          spi_SendData

; 983  : 	
; 984  : 	WMLCDCOMD(0x2B); //set_page_address:

  00518	e3a0002b	 mov         r0, #0x2B
  0051c	eb000000	 bl          spi_SendData

; 985  : 	WMLCDDATA(0x00);

  00520	e3a00c01	 mov         r0, #1, 24
  00524	eb000000	 bl          spi_SendData

; 986  : 	WMLCDDATA(0x00);

  00528	e3a00c01	 mov         r0, #1, 24
  0052c	eb000000	 bl          spi_SendData

; 987  : 	WMLCDDATA(0x01);

  00530	e3850001	 orr         r0, r5, #1
  00534	eb000000	 bl          spi_SendData

; 988  : 	WMLCDDATA(0x3F);

  00538	e386003f	 orr         r0, r6, #0x3F
  0053c	eb000000	 bl          spi_SendData

; 989  : 	\
; 990  : 	WMLCDCOMD(0x11); //exit_sleep_mode

  00540	e3a00011	 mov         r0, #0x11
  00544	eb000000	 bl          spi_SendData
  00548	e3a03b75	 mov         r3, #0x75, 22

; 991  : 	LcdSleep(120);

  0054c	e38300c0	 orr         r0, r3, #0xC0
  00550	eb000000	 bl          OALStall

; 992  : 	WMLCDCOMD(0x29); //set_display_on

  00554	e3a00029	 mov         r0, #0x29
  00558	eb000000	 bl          spi_SendData
  0055c	e3a03c75	 mov         r3, #0x75, 24

; 993  : 	LcdSleep(30);

  00560	e3830030	 orr         r0, r3, #0x30
  00564	eb000000	 bl          OALStall

; 994  : 	WMLCDCOMD(0x2C); //send DDRAM set

  00568	e3a0002c	 mov         r0, #0x2C
  0056c	eb000000	 bl          spi_SendData

; 995  : }

  00570	e8bd4070	 ldmia       sp!, {r4 - r6, lr}
  00574	e12fff1e	 bx          lr
  00578		 |$M50204|

			 ENDP  ; |LCD_Initial_Code|

	EXPORT	|lcd_shutdown|
	IMPORT	|LcdPdd_SetPowerLevel|

  00000			 AREA	 |.pdata|, PDATA
|$T50213| DCD	|$LN5@lcd_shutdo|
	DCD	0x40000701
; Function compile flags: /Ogspy

  00000			 AREA	 |.text|, CODE, ARM

  00000		 |lcd_shutdown| PROC

; 1740 : {

  00000		 |$LN5@lcd_shutdo|
  00000	e52de004	 str         lr, [sp, #-4]!
  00004		 |$M50210|

; 1741 :     disable_lcd_backlight();

  00004	eb000000	 bl          disable_lcd_backlight

; 1742 :     LcdPdd_SetPowerLevel(D4);

  00008	e3a00004	 mov         r0, #4
  0000c	eb000000	 bl          LcdPdd_SetPowerLevel

; 1743 :     disable_lcd_power();

  00010	eb000000	 bl          disable_lcd_power

; 1744 : }   

  00014	e49de004	 ldr         lr, [sp], #4
  00018	e12fff1e	 bx          lr
  0001c		 |$M50211|

			 ENDP  ; |lcd_shutdown|

	EXPORT	|enable_lcd_backlight|
	IMPORT	|GPIOClose|

  00000			 AREA	 |.pdata|, PDATA
|$T50225| DCD	|$LN10@enable_lcd@2|
	DCD	0x40003a01
; Function compile flags: /Ogspy

  00000			 AREA	 |.text|, CODE, ARM

  00000		 |enable_lcd_backlight| PROC

; 1805 : {

  00000		 |$LN10@enable_lcd@2|
  00000	e92d4030	 stmdb       sp!, {r4, r5, lr}
  00004		 |$M50222|

; 1806 : #ifdef BSP_Z2000
; 1807 :     void* hTwl;
; 1808 : 
; 1809 :     // Enable LEDA on TPS659XX
; 1810 :     hTwl = TWLOpen();
; 1811 : 	TWLWriteByteReg(hTwl, TWL_PMBR1, 0x04); // PWM0 function is enabled
; 1812 : 	TWLWriteByteReg(hTwl, TWL_GPBR1, 0x05); // PWM0_ENABLE & PWM0_CLK_ENABLE
; 1813 : 	TWLWriteByteReg(hTwl, TWL_PWM0OFF, 0x7F);
; 1814 : 	TWLWriteByteReg(hTwl, TWL_PWM0ON, 0x40);
; 1815 : 
; 1816 :     TWLClose(hTwl);
; 1817 : #else
; 1818 : 	int i = 25;

  00004	e3a05019	 mov         r5, #0x19

; 1819 : 	
; 1820 : 	hGpio = GPIOOpen();             //***740

  00008	eb000000	 bl          GPIOOpen
  0000c	e59f40d0	 ldr         r4, [pc, #0xD0]
  00010	e1a03000	 mov         r3, r0

; 1821 : 
; 1822 : 	GPIOSetMode(hGpio, SPI_CS0_PIN, GPIO_DIR_OUTPUT);

  00014	e3a02000	 mov         r2, #0
  00018	e3a010ae	 mov         r1, #0xAE
  0001c	e5843000	 str         r3, [r4]
  00020	eb000000	 bl          GPIOSetMode

; 1823 : 	GPIOSetMode(hGpio, SPI_DOUT_PIN, GPIO_DIR_OUTPUT);

  00024	e5940000	 ldr         r0, [r4]
  00028	e3a02000	 mov         r2, #0
  0002c	e3a010ac	 mov         r1, #0xAC
  00030	eb000000	 bl          GPIOSetMode

; 1824 : 	GPIOSetMode(hGpio, SPI_CLK_PIN, GPIO_DIR_OUTPUT);

  00034	e5940000	 ldr         r0, [r4]
  00038	e3a02000	 mov         r2, #0
  0003c	e3a010ab	 mov         r1, #0xAB
  00040	eb000000	 bl          GPIOSetMode

; 1825 : 	
; 1826 :     GPIOSetBit(hGpio, SPI_CS0_PIN);

  00044	e5940000	 ldr         r0, [r4]
  00048	e3a010ae	 mov         r1, #0xAE
  0004c	eb000000	 bl          GPIOSetBit

; 1827 :     GPIOSetBit(hGpio, SPI_CLK_PIN);

  00050	e5940000	 ldr         r0, [r4]
  00054	e3a010ab	 mov         r1, #0xAB
  00058	eb000000	 bl          GPIOSetBit

; 1828 :     GPIOSetBit(hGpio, SPI_DOUT_PIN);

  0005c	e5940000	 ldr         r0, [r4]
  00060	e3a010ac	 mov         r1, #0xAC
  00064	eb000000	 bl          GPIOSetBit

; 1829 :     
; 1830 :     //OALMSG(1, (L"LCD send Initial Code\r\n"));    //e-test comment, Ray
; 1831 :     LCD_Initial_Code();

  00068	eb000000	 bl          LCD_Initial_Code

; 1832 :     
; 1833 :     GPIOClrBit(hGpio, BL_EN_SET_GPIO);

  0006c	e5940000	 ldr         r0, [r4]
  00070	e3a0103d	 mov         r1, #0x3D
  00074	eb000000	 bl          GPIOClrBit

; 1834 :     OALStall(1000);

  00078	e3a00ffa	 mov         r0, #0xFA, 30
  0007c	eb000000	 bl          OALStall

; 1835 : 	GPIOSetBit(hGpio, BL_EN_SET_GPIO);

  00080	e5940000	 ldr         r0, [r4]
  00084	e3a0103d	 mov         r1, #0x3D
  00088	eb000000	 bl          GPIOSetBit

; 1836 : 	OALStall(1);

  0008c	e3a00001	 mov         r0, #1
  00090	eb000000	 bl          OALStall
  00094		 |$LL3@enable_lcd@2|

; 1837 :     for(; i > 0; i --)
; 1838 :     {
; 1839 :         GPIOClrBit(hGpio, BL_EN_SET_GPIO);

  00094	e5940000	 ldr         r0, [r4]
  00098	e3a0103d	 mov         r1, #0x3D
  0009c	eb000000	 bl          GPIOClrBit

; 1840 :         OALStall(1);

  000a0	e3a00001	 mov         r0, #1
  000a4	eb000000	 bl          OALStall

; 1841 :         GPIOSetBit(hGpio, BL_EN_SET_GPIO);

  000a8	e5940000	 ldr         r0, [r4]
  000ac	e3a0103d	 mov         r1, #0x3D
  000b0	eb000000	 bl          GPIOSetBit

; 1842 :         OALStall(1);

  000b4	e3a00001	 mov         r0, #1
  000b8	eb000000	 bl          OALStall
  000bc	e2455001	 sub         r5, r5, #1
  000c0	e3550000	 cmp         r5, #0
  000c4	cafffff2	 bgt         |$LL3@enable_lcd@2|

; 1843 :     }
; 1844 : 	GPIOClose(hGpio);

  000c8	e5940000	 ldr         r0, [r4]
  000cc	eb000000	 bl          GPIOClose

; 1845 : 	hGpio = NULL;

  000d0	e3a03000	 mov         r3, #0
  000d4	e5843000	 str         r3, [r4]

; 1846 : #endif
; 1847 : 
; 1848 :     return ERROR_SUCCESS;

  000d8	e3a00000	 mov         r0, #0

; 1849 : }

  000dc	e8bd4030	 ldmia       sp!, {r4, r5, lr}
  000e0	e12fff1e	 bx          lr
  000e4		 |$LN11@enable_lcd@2|
  000e4		 |$LN12@enable_lcd@2|
  000e4	00000000	 DCD         |hGpio|
  000e8		 |$M50223|

			 ENDP  ; |enable_lcd_backlight|

	EXPORT	|spi4Clock|

  00000			 AREA	 |.pdata|, PDATA
|$T50241| DCD	|$LN9@spi4Clock|
	DCD	0x40001001
; Function compile flags: /Ogspy

  00000			 AREA	 |.text|, CODE, ARM

  00000		 |spi4Clock| PROC

; 2202 : {

  00000		 |$LN9@spi4Clock|
  00000	e92d4010	 stmdb       sp!, {r4, lr}
  00004		 |$M50238|
  00004	e1a04000	 mov         r4, r0

; 2203 :     GPIOClrBit(n_hGPIO_2046, TSC2046_DCLK);

  00008	e3a0109c	 mov         r1, #0x9C
  0000c	eb000000	 bl          GPIOClrBit

; 2204 :     LcdStall(50);

  00010	e3a00032	 mov         r0, #0x32
  00014	eb000000	 bl          OALStall

; 2205 :     GPIOSetBit(n_hGPIO_2046, TSC2046_DCLK);

  00018	e3a0109c	 mov         r1, #0x9C
  0001c	e1a00004	 mov         r0, r4
  00020	eb000000	 bl          GPIOSetBit

; 2206 :     LcdStall(50);

  00024	e3a00032	 mov         r0, #0x32
  00028	eb000000	 bl          OALStall

; 2207 :     GPIOClrBit(n_hGPIO_2046, TSC2046_DCLK);

  0002c	e3a0109c	 mov         r1, #0x9C
  00030	e1a00004	 mov         r0, r4
  00034	eb000000	 bl          GPIOClrBit

; 2208 : }

  00038	e8bd4010	 ldmia       sp!, {r4, lr}
  0003c	e12fff1e	 bx          lr
  00040		 |$M50239|

			 ENDP  ; |spi4Clock|

	EXPORT	|spi4ClockRXData|
	IMPORT	|GPIOGetBit|

  00000			 AREA	 |.pdata|, PDATA
|$T50258| DCD	|$LN9@spi4ClockR|
	DCD	0x40001501
; Function compile flags: /Ogspy

  00000			 AREA	 |.text|, CODE, ARM

  00000		 |spi4ClockRXData| PROC

; 2213 : {

  00000		 |$LN9@spi4ClockR|
  00000	e92d4030	 stmdb       sp!, {r4, r5, lr}
  00004		 |$M50255|
  00004	e1a05000	 mov         r5, r0

; 2214 :     DWORD temp=0;
; 2215 : 
; 2216 :     
; 2217 :     GPIOClrBit(n_hGPIO_2046, TSC2046_DCLK);

  00008	e3a0109c	 mov         r1, #0x9C
  0000c	eb000000	 bl          GPIOClrBit

; 2218 :     LcdStall(50);

  00010	e3a00032	 mov         r0, #0x32
  00014	eb000000	 bl          OALStall

; 2219 :     GPIOSetBit(n_hGPIO_2046, TSC2046_DCLK);

  00018	e3a0109c	 mov         r1, #0x9C
  0001c	e1a00005	 mov         r0, r5
  00020	eb000000	 bl          GPIOSetBit

; 2220 :     LcdStall(50);  

  00024	e3a00032	 mov         r0, #0x32
  00028	eb000000	 bl          OALStall

; 2221 :     temp = GPIOGetBit(n_hGPIO_2046, TSC2046_DOUT);

  0002c	e3a0109f	 mov         r1, #0x9F
  00030	e1a00005	 mov         r0, r5
  00034	eb000000	 bl          GPIOGetBit
  00038	e1a04000	 mov         r4, r0

; 2222 :     GPIOClrBit(n_hGPIO_2046, TSC2046_DCLK);

  0003c	e1a00005	 mov         r0, r5
  00040	e3a0109c	 mov         r1, #0x9C
  00044	eb000000	 bl          GPIOClrBit

; 2223 :     
; 2224 :     return temp;
; 2225 : }

  00048	e1a00004	 mov         r0, r4
  0004c	e8bd4030	 ldmia       sp!, {r4, r5, lr}
  00050	e12fff1e	 bx          lr
  00054		 |$M50256|

			 ENDP  ; |spi4ClockRXData|

	EXPORT	|sendData|

  00000			 AREA	 |.pdata|, PDATA
|$T50271| DCD	|$LN13@sendData|
	DCD	0x40001401
; Function compile flags: /Ogspy

  00000			 AREA	 |.text|, CODE, ARM

  00000		 |sendData| PROC

; 2230 : {

  00000		 |$LN13@sendData|
  00000	e92d40f0	 stmdb       sp!, {r4 - r7, lr}
  00004		 |$M50268|
  00004	e1a06001	 mov         r6, r1
  00008	e1a05000	 mov         r5, r0

; 2231 :    int iData;
; 2232 :    
; 2233 :    GPIOClrBit(n_hGPIO_2046, TSC2046_CS);     //Start controlling 

  0000c	e3a010a1	 mov         r1, #0xA1
  00010	eb000000	 bl          GPIOClrBit

; 2234 :    for(iData=7; iData>=0; iData--)

  00014	e3a04007	 mov         r4, #7
  00018	e3a07001	 mov         r7, #1
  0001c		 |$LL5@sendData|

; 2235 :    {
; 2236 :         if(TXControlByte & (1<<iData))

  0001c	e1160417	 tst         r6, r7, lsl r4

; 2237 :         {
; 2238 :             GPIOSetBit(n_hGPIO_2046, TSC2046_DIN);

  00020	e3a0109e	 mov         r1, #0x9E
  00024	e1a00005	 mov         r0, r5
  00028	0a000001	 beq         |$LN2@sendData|
  0002c	eb000000	 bl          GPIOSetBit

; 2239 :             spi4Clock(n_hGPIO_2046);  
; 2240 :         }else{

  00030	ea000000	 b           |$LN10@sendData|
  00034		 |$LN2@sendData|

; 2241 :             GPIOClrBit(n_hGPIO_2046, TSC2046_DIN);

  00034	eb000000	 bl          GPIOClrBit
  00038		 |$LN10@sendData|

; 2242 :             spi4Clock(n_hGPIO_2046); 

  00038	e1a00005	 mov         r0, r5
  0003c	eb000000	 bl          spi4Clock
  00040	e2544001	 subs        r4, r4, #1
  00044	5afffff4	 bpl         |$LL5@sendData|

; 2243 :         }
; 2244 :    }
; 2245 :    //GPIOSetBit(hGPIO_2046, TSC2046_CS);     //Stop controlling 
; 2246 : }

  00048	e8bd40f0	 ldmia       sp!, {r4 - r7, lr}
  0004c	e12fff1e	 bx          lr
  00050		 |$M50269|

			 ENDP  ; |sendData|

	EXPORT	|receiveData|

  00000			 AREA	 |.pdata|, PDATA
|$T50285| DCD	|$LN11@receiveDat|
	DCD	0x40001501
; Function compile flags: /Ogspy

  00000			 AREA	 |.text|, CODE, ARM

  00000		 |receiveData| PROC

; 2251 : {

  00000		 |$LN11@receiveDat|
  00000	e92d40f0	 stmdb       sp!, {r4 - r7, lr}
  00004		 |$M50282|
  00004	e1a06000	 mov         r6, r0

; 2252 :     int iData;
; 2253 :     DWORD RXConversion, sum;
; 2254 : 
; 2255 :     spi4Clock(n_hGPIO_2046);

  00008	eb000000	 bl          spi4Clock

; 2256 :     for(iData=15, sum=0; iData>=0; iData--)

  0000c	e3a05000	 mov         r5, #0
  00010	e3a0400c	 mov         r4, #0xC
  00014	e3a07010	 mov         r7, #0x10
  00018		 |$LL4@receiveDat|

; 2257 :     {
; 2258 :         RXConversion = spi4ClockRXData(n_hGPIO_2046);

  00018	e1a00006	 mov         r0, r6
  0001c	eb000000	 bl          spi4ClockRXData

; 2259 :         if(iData<=15 && iData >2)

  00020	e354000c	 cmp         r4, #0xC

; 2260 :             sum += (RXConversion <<(iData-4));

  00024	92443001	 subls       r3, r4, #1
  00028	90855310	 addls       r5, r5, r0, lsl r3
  0002c	e2577001	 subs        r7, r7, #1
  00030	e2444001	 sub         r4, r4, #1
  00034	1afffff7	 bne         |$LL4@receiveDat|

; 2261 :     }
; 2262 :     GPIOSetBit(n_hGPIO_2046, TSC2046_CS);     //Stop controlling 

  00038	e3a010a1	 mov         r1, #0xA1
  0003c	e1a00006	 mov         r0, r6
  00040	eb000000	 bl          GPIOSetBit

; 2263 : 
; 2264 :     //OALLog(L"\r !Conversion of value: 0X%04X\r\n", sum);
; 2265 :     return (USHORT)sum;

  00044	e1a00805	 mov         r0, r5, lsl #16
  00048	e1a00820	 mov         r0, r0, lsr #16

; 2266 : }

  0004c	e8bd40f0	 ldmia       sp!, {r4 - r7, lr}
  00050	e12fff1e	 bx          lr
  00054		 |$M50283|

			 ENDP  ; |receiveData|

	EXPORT	|read_x|

  00000			 AREA	 |.pdata|, PDATA
|$T50299| DCD	|$LN7@read_x|
	DCD	0x40000901
; Function compile flags: /Ogspy

  00000			 AREA	 |.text|, CODE, ARM

  00000		 |read_x| PROC

; 2271 : {

  00000		 |$LN7@read_x|
  00000	e92d4010	 stmdb       sp!, {r4, lr}
  00004		 |$M50296|
  00004	e1a04000	 mov         r4, r0

; 2272 :    USHORT xData;
; 2273 :    
; 2274 :    sendData(n_hGPIO_2046, xCMD);

  00008	eb000000	 bl          sendData

; 2275 :    LcdStall(1);

  0000c	e3a00001	 mov         r0, #1
  00010	eb000000	 bl          OALStall

; 2276 :    xData = receiveData(n_hGPIO_2046);

  00014	e1a00004	 mov         r0, r4
  00018	eb000000	 bl          receiveData

; 2277 : 
; 2278 :    return xData;
; 2279 : }

  0001c	e8bd4010	 ldmia       sp!, {r4, lr}
  00020	e12fff1e	 bx          lr
  00024		 |$M50297|

			 ENDP  ; |read_x|

	EXPORT	|read_y|

  00000			 AREA	 |.pdata|, PDATA
|$T50313| DCD	|$LN7@read_y|
	DCD	0x40000901
; Function compile flags: /Ogspy

  00000			 AREA	 |.text|, CODE, ARM

  00000		 |read_y| PROC

; 2284 : {

  00000		 |$LN7@read_y|
  00000	e92d4010	 stmdb       sp!, {r4, lr}
  00004		 |$M50310|
  00004	e1a04000	 mov         r4, r0

; 2285 :    USHORT yData;
; 2286 :    
; 2287 :    sendData(n_hGPIO_2046, yCMD);

  00008	eb000000	 bl          sendData

; 2288 :    LcdStall(1);

  0000c	e3a00001	 mov         r0, #1
  00010	eb000000	 bl          OALStall

; 2289 :    yData = receiveData(n_hGPIO_2046);

  00014	e1a00004	 mov         r0, r4
  00018	eb000000	 bl          receiveData

; 2290 : 
; 2291 :    return yData;
; 2292 : }

  0001c	e8bd4010	 ldmia       sp!, {r4, lr}
  00020	e12fff1e	 bx          lr
  00024		 |$M50311|

			 ENDP  ; |read_y|

	EXPORT	|HideLogo|

  00000			 AREA	 |.pdata|, PDATA
|$T50323| DCD	|$LN7@HideLogo|
	DCD	0x40000701
; Function compile flags: /Ogspy

  00000			 AREA	 |.text|, CODE, ARM

  00000		 |HideLogo| PROC

; 1644 : {

  00000		 |$LN7@HideLogo|
  00000	e52de004	 str         lr, [sp, #-4]!
  00004		 |$M50320|

; 1645 :     lcd_shutdown();

  00004	eb000000	 bl          disable_lcd_backlight
  00008	e3a00004	 mov         r0, #4
  0000c	eb000000	 bl          LcdPdd_SetPowerLevel
  00010	eb000000	 bl          disable_lcd_power

; 1646 : }

  00014	e49de004	 ldr         lr, [sp], #4
  00018	e12fff1e	 bx          lr
  0001c		 |$M50321|

			 ENDP  ; |HideLogo|

	EXPORT	|lcd_config|

  00000			 AREA	 |.pdata|, PDATA
|$T50331| DCD	|$LN5@lcd_config|
	DCD	0x40000b01
; Function compile flags: /Ogspy

  00000			 AREA	 |.text|, CODE, ARM

  00000		 |lcd_config| PROC

; 1711 : {

  00000		 |$LN5@lcd_config|
  00000	e92d4010	 stmdb       sp!, {r4, lr}
  00004		 |$M50328|
  00004	e1a04000	 mov         r4, r0

; 1712 : 	//OALMSG(OAL_INFO, (L"lcd_config\r\n"));  //e-test comment, Ray 
; 1713 : 	
; 1714 :     reset_display_controller();

  00008	eb000000	 bl          reset_display_controller

; 1715 : 
; 1716 :     // Enable LCD clocks
; 1717 :     enable_lcd_power();

  0000c	eb000000	 bl          enable_lcd_power

; 1718 : 
; 1719 :     // Configure the DSS registers
; 1720 :     configure_dss(framebuffer);

  00010	e1a00004	 mov         r0, r4
  00014	eb000000	 bl          configure_dss

; 1721 :       
; 1722 :     // Display data on LCD
; 1723 :     display_lcd_image() ;

  00018	eb000000	 bl          display_lcd_image

; 1724 :     
; 1725 : 	// Turn on backlight last
; 1726 : 	enable_lcd_backlight();

  0001c	eb000000	 bl          enable_lcd_backlight

; 1727 : 
; 1728 : 	// Initial Touch Panel, Ray 131119
; 1729 : 	Initial_lcd_TSC2046();

  00020	eb000000	 bl          Initial_lcd_TSC2046

; 1730 :     
; 1731 : }

  00024	e8bd4010	 ldmia       sp!, {r4, lr}
  00028	e12fff1e	 bx          lr
  0002c		 |$M50329|

			 ENDP  ; |lcd_config|

	EXPORT	|ShowLogo|
	IMPORT	|OALFlashStoreClose|
	IMPORT	|OALFlashStoreBufferedRead|
	IMPORT	|OALFlashStoreOpen|

  00000			 AREA	 |.pdata|, PDATA
|$T50363| DCD	|$LN34@ShowLogo|
	DCD	0x40008802
; Function compile flags: /Ogspy

  00000			 AREA	 |.text|, CODE, ARM

  00000		 |ShowLogo| PROC

; 1033 : {

  00000		 |$LN34@ShowLogo|
  00000	e92d4ff0	 stmdb       sp!, {r4 - r11, lr}
  00004	e24dd018	 sub         sp, sp, #0x18
  00008		 |$M50360|
  00008	e1a06001	 mov         r6, r1
  0000c	e1a05000	 mov         r5, r0

; 1034 :     HANDLE  hFlash = NULL;
; 1035 :     DWORD	framebuffer;
; 1036 :     DWORD	framebufferPA;
; 1037 :     PUCHAR  pChar;
; 1038 :     ULONG   x, y;
; 1039 :     WORD	wSignature = 0;

  00010	e3a03000	 mov         r3, #0

; 1040 :     DWORD   dwOffset = 0;

  00014	e3a02000	 mov         r2, #0
  00018	e1cd30b4	 strh        r3, [sp, #4]
  0001c	e58d2010	 str         r2, [sp, #0x10]

; 1041 :     DWORD   dwLcdWidth, dwLcdHeight;
; 1042 :     DWORD   dwLength;
; 1043 : 
; 1044 :     //  Get the LCD width and height
; 1045 :     LcdPdd_LCD_GetMode( NULL, &dwLcdWidth, &dwLcdHeight, NULL );

  00020	e3a03000	 mov         r3, #0
  00024	e28d2008	 add         r2, sp, #8
  00028	e28d100c	 add         r1, sp, #0xC
  0002c	e3a00000	 mov         r0, #0
  00030	eb000000	 bl          LcdPdd_LCD_GetMode

; 1046 : 	
; 1047 :     dwLength = BYTES_PER_PIXEL * LOGO_WIDTH * LOGO_HEIGHT;
; 1048 : 
; 1049 :     //  Get the video memory
; 1050 :     LcdPdd_GetMemory( NULL, &framebufferPA );

  00034	e28d1014	 add         r1, sp, #0x14
  00038	e3a00000	 mov         r0, #0
  0003c	eb000000	 bl          LcdPdd_GetMemory

; 1051 :     framebuffer = (DWORD) OALPAtoUA(framebufferPA);

  00040	e59d0014	 ldr         r0, [sp, #0x14]
  00044	e3a01000	 mov         r1, #0
  00048	eb000000	 bl          OALPAtoVA

; 1052 :     pChar = (PUCHAR)framebuffer;
; 1053 :     
; 1054 :     if (flashAddr != -1)

  0004c	e3a03c4d	 mov         r3, #0x4D, 24
  00050	e59f81c4	 ldr         r8, [pc, #0x1C4]
  00054	e59f91bc	 ldr         r9, [pc, #0x1BC]
  00058	e59fa1b4	 ldr         r10, [pc, #0x1B4]
  0005c	e59fb1ac	 ldr         r11, [pc, #0x1AC]
  00060	e3837042	 orr         r7, r3, #0x42
  00064	e1a04000	 mov         r4, r0
  00068	e3a0e000	 mov         lr, #0
  0006c	e3750001	 cmn         r5, #1
  00070	0a000030	 beq         |$LN15@ShowLogo|

; 1055 :     {
; 1056 :         // Open flash storage
; 1057 :         hFlash = OALFlashStoreOpen(flashAddr);

  00074	e1a00005	 mov         r0, r5
  00078	eb000000	 bl          OALFlashStoreOpen
  0007c	e1b05000	 movs        r5, r0

; 1058 :         if( hFlash != NULL )
; 1059 :         {
; 1060 :             //  The LOGO reserved NAND flash region contains the BMP file
; 1061 :             OALFlashStoreBufferedRead( hFlash, offset, (UCHAR*) &wSignature, sizeof(wSignature), FALSE );

  00080	e3a0e000	 mov         lr, #0
  00084	0a00002b	 beq         |$LN15@ShowLogo|
  00088	e3a03002	 mov         r3, #2
  0008c	e28d2004	 add         r2, sp, #4
  00090	e1a01006	 mov         r1, r6
  00094	e1a00005	 mov         r0, r5
  00098	e58de000	 str         lr, [sp]
  0009c	eb000000	 bl          OALFlashStoreBufferedRead

; 1062 : 
; 1063 :             //  Check for 'BM' signature
; 1064 :             if( wSignature == 0x4D42 )  

  000a0	e1dd30b4	 ldrh        r3, [sp, #4]
  000a4	e1530007	 cmp         r3, r7
  000a8	1a00000e	 bne         |$LN14@ShowLogo|

; 1065 :             {
; 1066 :                 //  Read the offset to the pixel data
; 1067 :                 OALFlashStoreBufferedRead( hFlash, offset + 10, (UCHAR*) &dwOffset, sizeof(dwOffset), FALSE );

  000ac	e3a0e000	 mov         lr, #0
  000b0	e3a03004	 mov         r3, #4
  000b4	e28d2010	 add         r2, sp, #0x10
  000b8	e286100a	 add         r1, r6, #0xA
  000bc	e1a00005	 mov         r0, r5
  000c0	e58de000	 str         lr, [sp]
  000c4	eb000000	 bl          OALFlashStoreBufferedRead

; 1068 : 
; 1069 :                 //  Read the pixel data with the given offset
; 1070 :                 OALFlashStoreBufferedRead( hFlash, offset + dwOffset, pChar, dwLength, FALSE );

  000c8	e59d1010	 ldr         r1, [sp, #0x10]
  000cc	e3a0e000	 mov         lr, #0
  000d0	e3a03be1	 mov         r3, #0xE1, 22
  000d4	e0811006	 add         r1, r1, r6
  000d8	e1a02004	 mov         r2, r4
  000dc	e1a00005	 mov         r0, r5
  000e0	e58de000	 str         lr, [sp]
  000e4	eb000000	 bl          OALFlashStoreBufferedRead
  000e8		 |$LN14@ShowLogo|

; 1071 :             }
; 1072 :            
; 1073 :             //  Close store
; 1074 :             OALFlashStoreClose(hFlash);

  000e8	e1a00005	 mov         r0, r5
  000ec	eb000000	 bl          OALFlashStoreClose

; 1075 :         
; 1076 :             //  Compute position and size of logo image 
; 1077 :             g_dwLogoPosX   = (dwLcdWidth - LOGO_WIDTH)/2;

  000f0	e59d300c	 ldr         r3, [sp, #0xC]

; 1078 :             g_dwLogoPosY   = (dwLcdHeight - LOGO_HEIGHT)/2;

  000f4	e59d2008	 ldr         r2, [sp, #8]

; 1079 :             g_dwLogoWidth  = LOGO_WIDTH;

  000f8	e3a050f0	 mov         r5, #0xF0
  000fc	e24330f0	 sub         r3, r3, #0xF0
  00100	e2422d05	 sub         r2, r2, #5, 26
  00104	e1a030a3	 mov         r3, r3, lsr #1
  00108	e1a020a2	 mov         r2, r2, lsr #1

; 1080 :             g_dwLogoHeight = LOGO_HEIGHT;

  0010c	e58b3000	 str         r3, [r11]
  00110	e58a2000	 str         r2, [r10]
  00114	e3a0ed05	 mov         lr, #5, 26

; 1081 :             
; 1082 :             //As BMP are stored upside down, we need to flip the frame buffer's content
; 1083 :             FlipFrameBuffer((PUCHAR)framebuffer,LOGO_HEIGHT,LOGO_WIDTH*BYTES_PER_PIXEL,(PUCHAR)framebuffer + dwLength);

  00118	e2843be1	 add         r3, r4, #0xE1, 22
  0011c	e3a02e2d	 mov         r2, #0x2D, 28
  00120	e3a01d05	 mov         r1, #5, 26
  00124	e1a00004	 mov         r0, r4
  00128	e5895000	 str         r5, [r9]
  0012c	e588e000	 str         lr, [r8]
  00130	eb000000	 bl          FlipFrameBuffer
  00134	e3a0e000	 mov         lr, #0
  00138		 |$LN15@ShowLogo|

; 1084 :         }
; 1085 :     }
; 1086 : 
; 1087 :     //  If bitmap signature is valid, display the logo, otherwise fill screen with pattern
; 1088 :     if( wSignature != 0x4D42 )

  00138	e1dd30b4	 ldrh        r3, [sp, #4]
  0013c	e1530007	 cmp         r3, r7
  00140	0a000027	 beq         |$LN10@ShowLogo|

; 1089 :     {
; 1090 :         //  Adjust color bars to LCD size
; 1091 :         g_dwLogoPosX   = 0;
; 1092 :         g_dwLogoPosY   = 0;
; 1093 :         g_dwLogoWidth  = dwLcdWidth;

  00144	e59d300c	 ldr         r3, [sp, #0xC]

; 1094 :         g_dwLogoHeight = dwLcdHeight;

  00148	e59d2008	 ldr         r2, [sp, #8]
  0014c	e3a00000	 mov         r0, #0
  00150	e3a01000	 mov         r1, #0
  00154	e58a0000	 str         r0, [r10]
  00158	e5893000	 str         r3, [r9]
  0015c	e5882000	 str         r2, [r8]

; 1095 :         
; 1096 :         for (y= 0; y < dwLcdHeight; y++)

  00160	e3520000	 cmp         r2, #0
  00164	e58b1000	 str         r1, [r11]
  00168	e3a00000	 mov         r0, #0
  0016c	0a00001c	 beq         |$LN10@ShowLogo|
  00170	e3a050ff	 mov         r5, #0xFF
  00174		 |$LL12@ShowLogo|

; 1097 :         {
; 1098 :             for( x = 0; x < dwLcdWidth; x++ )

  00174	e3a01000	 mov         r1, #0
  00178	e3530000	 cmp         r3, #0
  0017c	0a000015	 beq         |$LN11@ShowLogo|
  00180		 |$LL9@ShowLogo|

; 1099 :             {
; 1100 :                 if( y < dwLcdHeight/2 )

  00180	e15000a2	 cmp         r0, r2, lsr #1
  00184	2a000006	 bcs         |$LN6@ShowLogo|

; 1101 :                 {
; 1102 :                     if( x < dwLcdWidth/2 )
; 1103 :                     {
; 1104 :                         *pChar++ = 0x00;    //  Blue

  00188	e4c4e001	 strb        lr, [r4], #1
  0018c	e15100a3	 cmp         r1, r3, lsr #1

; 1105 :                         *pChar++ = 0x00;    //  Green

  00190	34c4e001	 strccb      lr, [r4], #1
  00194	3a000009	 bcc         |$LN30@ShowLogo|

; 1106 :                         *pChar++ = 0xFF;    //  Red
; 1107 :                     }
; 1108 :                     else
; 1109 :                     {
; 1110 :                         *pChar++ = 0x00;    //  Blue
; 1111 :                         *pChar++ = 0xFF;    //  Green

  00198	e4c45001	 strb        r5, [r4], #1

; 1121 :                         *pChar++ = 0x00;    //  Red

  0019c	e4c4e001	 strb        lr, [r4], #1

; 1122 :                     }
; 1123 :                     else

  001a0	ea000007	 b           |$LN8@ShowLogo|
  001a4		 |$LN6@ShowLogo|

; 1112 :                         *pChar++ = 0x00;    //  Red
; 1113 :                     }
; 1114 :                 }
; 1115 :                 else
; 1116 :                 {
; 1117 :                     if( x < dwLcdWidth/2 )

  001a4	e15100a3	 cmp         r1, r3, lsr #1

; 1118 :                     {
; 1119 :                         *pChar++ = 0xFF;    //  Blue

  001a8	34c45001	 strccb      r5, [r4], #1

; 1120 :                         *pChar++ = 0x00;    //  Green

  001ac	34c4e001	 strccb      lr, [r4], #1

; 1121 :                         *pChar++ = 0x00;    //  Red

  001b0	34c4e001	 strccb      lr, [r4], #1
  001b4	3a000002	 bcc         |$LN8@ShowLogo|

; 1124 :                     {
; 1125 :                         *pChar++ = 0x00;    //  Blue

  001b8	e4c4e001	 strb        lr, [r4], #1

; 1126 :                         *pChar++ = 0xFF;    //  Green

  001bc	e4c45001	 strb        r5, [r4], #1
  001c0		 |$LN30@ShowLogo|

; 1127 :                         *pChar++ = 0xFF;    //  Red

  001c0	e4c45001	 strb        r5, [r4], #1
  001c4		 |$LN8@ShowLogo|
  001c4	e59d300c	 ldr         r3, [sp, #0xC]
  001c8	e2811001	 add         r1, r1, #1
  001cc	e59d2008	 ldr         r2, [sp, #8]
  001d0	e1510003	 cmp         r1, r3
  001d4	3affffe9	 bcc         |$LL9@ShowLogo|
  001d8		 |$LN11@ShowLogo|

; 1095 :         
; 1096 :         for (y= 0; y < dwLcdHeight; y++)

  001d8	e2800001	 add         r0, r0, #1
  001dc	e1500002	 cmp         r0, r2
  001e0	3affffe3	 bcc         |$LL12@ShowLogo|
  001e4		 |$LN10@ShowLogo|

; 1128 :                     }
; 1129 :                 }
; 1130 :             }
; 1131 :         }
; 1132 :     }
; 1133 : 	
; 1134 :     //  Fire up the LCD
; 1135 :     lcd_config(framebufferPA);       

  001e4	e59d4014	 ldr         r4, [sp, #0x14]
  001e8	eb000000	 bl          reset_display_controller
  001ec	eb000000	 bl          enable_lcd_power
  001f0	e1a00004	 mov         r0, r4
  001f4	eb000000	 bl          configure_dss
  001f8	eb000000	 bl          display_lcd_image
  001fc	eb000000	 bl          enable_lcd_backlight
  00200	eb000000	 bl          Initial_lcd_TSC2046

; 1136 : }

  00204	e28dd018	 add         sp, sp, #0x18
  00208	e8bd4ff0	 ldmia       sp!, {r4 - r11, lr}
  0020c	e12fff1e	 bx          lr
  00210		 |$LN35@ShowLogo|
  00210		 |$LN36@ShowLogo|
  00210	00000000	 DCD         |g_dwLogoPosX|
  00214		 |$LN37@ShowLogo|
  00214	00000000	 DCD         |g_dwLogoPosY|
  00218		 |$LN38@ShowLogo|
  00218	00000000	 DCD         |g_dwLogoWidth|
  0021c		 |$LN39@ShowLogo|
  0021c	00000000	 DCD         |g_dwLogoHeight|
  00220		 |$M50361|

			 ENDP  ; |ShowLogo|

	EXPORT	|ShowSDLogo|
	EXPORT	|??_C@_1GK@BOLHCJDJ@?$AAS?$AAh?$AAo?$AAw?$AAS?$AAD?$AAL?$AAo?$AAg?$AAo?$AA?3?$AA?5?$AAg?$AA_?$AAd?$AAw?$AAL?$AAo?$AAg?$AAo?$AAW?$AAi?$AAd?$AAt?$AAh?$AA?5?$AA?$DN?$AA?5?$AA?$CF?$AAd?$AA?0?$AAg@| [ DATA ] ; `string'
	EXPORT	|??_C@_1GE@MOPAKJBC@?$AAS?$AAh?$AAo?$AAw?$AAS?$AAD?$AAL?$AAo?$AAg?$AAo?$AA?3?$AA?5?$AAg?$AA_?$AAd?$AAw?$AAL?$AAo?$AAg?$AAo?$AAP?$AAo?$AAs?$AAX?$AA?5?$AA?$DN?$AA?5?$AA?$CF?$AAd?$AA?0?$AAg?$AA_@| [ DATA ] ; `string'
	EXPORT	|??_C@_1BK@DIIBPNGC@?$AAL?$AAO?$AAG?$AAO?$AA_?$AAV?$AAE?$AAR?$AA?4?$AAb?$AAm?$AAp?$AA?$AA@| [ DATA ] ; `string'
	EXPORT	|??_C@_1DA@IPAEADDN@?$AAS?$AAh?$AAo?$AAw?$AAS?$AAD?$AAL?$AAo?$AAg?$AAo?$AA?3?$AA?5?$AAs?$AAi?$AAz?$AAe?$AA?5?$AA?$DN?$AA?5?$AA?$CF?$AAd?$AA?$AN?$AA?6?$AA?$AA@| [ DATA ] ; `string'
	EXPORT	|??_C@_1DO@ENJNNPID@?$AAS?$AAh?$AAo?$AAw?$AAS?$AAD?$AAL?$AAo?$AAg?$AAo?$AA?3?$AA?5?$AAL?$AAO?$AAG?$AAO?$AA_?$AAH?$AAE?$AAI?$AAG?$AAH?$AAT?$AA?5?$AA?$DN?$AA?5?$AA?$CF?$AAd?$AA?$AN?$AA?6?$AA?$AA@| [ DATA ] ; `string'
	EXPORT	|??_C@_1DM@PDMEKHDN@?$AAS?$AAh?$AAo?$AAw?$AAS?$AAD?$AAL?$AAo?$AAg?$AAo?$AA?3?$AA?5?$AAL?$AAO?$AAG?$AAO?$AA_?$AAW?$AAI?$AAD?$AAT?$AAH?$AA?5?$AA?$DN?$AA?5?$AA?$CF?$AAd?$AA?$AN?$AA?6?$AA?$AA@| [ DATA ] ; `string'
	EXPORT	|??_C@_1EG@DJLDILPN@?$AAS?$AAh?$AAo?$AAw?$AAS?$AAD?$AAL?$AAo?$AAg?$AAo?$AA?3?$AA?5?$AAB?$AAY?$AAT?$AAE?$AAS?$AA_?$AAP?$AAE?$AAR?$AA_?$AAP?$AAI?$AAX?$AAE?$AAL?$AA?5?$AA?$DN?$AA?5?$AA?$CF?$AAd@| [ DATA ] ; `string'
	IMPORT	|BLSDCardReadLogo|
	IMPORT	|NKDbgPrintfW|
	IMPORT	|dpCurSettings|

  00000			 AREA	 |.pdata|, PDATA
|$T50398| DCD	|$LN22@ShowSDLogo|
	DCD	0x40007502

  00000			 AREA	 |.rdata|, DATA, READONLY
|??_C@_1GK@BOLHCJDJ@?$AAS?$AAh?$AAo?$AAw?$AAS?$AAD?$AAL?$AAo?$AAg?$AAo?$AA?3?$AA?5?$AAg?$AA_?$AAd?$AAw?$AAL?$AAo?$AAg?$AAo?$AAW?$AAi?$AAd?$AAt?$AAh?$AA?5?$AA?$DN?$AA?5?$AA?$CF?$AAd?$AA?0?$AAg@| DCB "S"
	DCB	0x0, "h", 0x0, "o", 0x0, "w", 0x0, "S", 0x0, "D", 0x0, "L"
	DCB	0x0, "o", 0x0, "g", 0x0, "o", 0x0, ":", 0x0, " ", 0x0, "g"
	DCB	0x0, "_", 0x0, "d", 0x0, "w", 0x0, "L", 0x0, "o", 0x0, "g"
	DCB	0x0, "o", 0x0, "W", 0x0, "i", 0x0, "d", 0x0, "t", 0x0, "h"
	DCB	0x0, " ", 0x0, "=", 0x0, " ", 0x0, "%", 0x0, "d", 0x0, ","
	DCB	0x0, "g", 0x0, "_", 0x0, "d", 0x0, "w", 0x0, "L", 0x0, "o"
	DCB	0x0, "g", 0x0, "o", 0x0, "H", 0x0, "e", 0x0, "i", 0x0, "g"
	DCB	0x0, "h", 0x0, "t", 0x0, " ", 0x0, "=", 0x0, " ", 0x0, "%"
	DCB	0x0, "d", 0x0, 0xd, 0x0, 0xa, 0x0, 0x0, 0x0 ; `string'

  00000			 AREA	 |.rdata|, DATA, READONLY
|??_C@_1GE@MOPAKJBC@?$AAS?$AAh?$AAo?$AAw?$AAS?$AAD?$AAL?$AAo?$AAg?$AAo?$AA?3?$AA?5?$AAg?$AA_?$AAd?$AAw?$AAL?$AAo?$AAg?$AAo?$AAP?$AAo?$AAs?$AAX?$AA?5?$AA?$DN?$AA?5?$AA?$CF?$AAd?$AA?0?$AAg?$AA_@| DCB "S"
	DCB	0x0, "h", 0x0, "o", 0x0, "w", 0x0, "S", 0x0, "D", 0x0, "L"
	DCB	0x0, "o", 0x0, "g", 0x0, "o", 0x0, ":", 0x0, " ", 0x0, "g"
	DCB	0x0, "_", 0x0, "d", 0x0, "w", 0x0, "L", 0x0, "o", 0x0, "g"
	DCB	0x0, "o", 0x0, "P", 0x0, "o", 0x0, "s", 0x0, "X", 0x0, " "
	DCB	0x0, "=", 0x0, " ", 0x0, "%", 0x0, "d", 0x0, ",", 0x0, "g"
	DCB	0x0, "_", 0x0, "d", 0x0, "w", 0x0, "L", 0x0, "o", 0x0, "g"
	DCB	0x0, "o", 0x0, "P", 0x0, "o", 0x0, "s", 0x0, "Y", 0x0, " "
	DCB	0x0, "=", 0x0, " ", 0x0, "%", 0x0, "d", 0x0, 0xd, 0x0, 0xa
	DCB	0x0, 0x0, 0x0				; `string'

  00000			 AREA	 |.rdata|, DATA, READONLY
|??_C@_1BK@DIIBPNGC@?$AAL?$AAO?$AAG?$AAO?$AA_?$AAV?$AAE?$AAR?$AA?4?$AAb?$AAm?$AAp?$AA?$AA@| DCB "L"
	DCB	0x0, "O", 0x0, "G", 0x0, "O", 0x0, "_", 0x0, "V", 0x0, "E"
	DCB	0x0, "R", 0x0, ".", 0x0, "b", 0x0, "m", 0x0, "p", 0x0, 0x0
	DCB	0x0					; `string'

  00000			 AREA	 |.rdata|, DATA, READONLY
|??_C@_1DA@IPAEADDN@?$AAS?$AAh?$AAo?$AAw?$AAS?$AAD?$AAL?$AAo?$AAg?$AAo?$AA?3?$AA?5?$AAs?$AAi?$AAz?$AAe?$AA?5?$AA?$DN?$AA?5?$AA?$CF?$AAd?$AA?$AN?$AA?6?$AA?$AA@| DCB "S"
	DCB	0x0, "h", 0x0, "o", 0x0, "w", 0x0, "S", 0x0, "D", 0x0, "L"
	DCB	0x0, "o", 0x0, "g", 0x0, "o", 0x0, ":", 0x0, " ", 0x0, "s"
	DCB	0x0, "i", 0x0, "z", 0x0, "e", 0x0, " ", 0x0, "=", 0x0, " "
	DCB	0x0, "%", 0x0, "d", 0x0, 0xd, 0x0, 0xa, 0x0, 0x0, 0x0 ; `string'

  00000			 AREA	 |.rdata|, DATA, READONLY
|??_C@_1DO@ENJNNPID@?$AAS?$AAh?$AAo?$AAw?$AAS?$AAD?$AAL?$AAo?$AAg?$AAo?$AA?3?$AA?5?$AAL?$AAO?$AAG?$AAO?$AA_?$AAH?$AAE?$AAI?$AAG?$AAH?$AAT?$AA?5?$AA?$DN?$AA?5?$AA?$CF?$AAd?$AA?$AN?$AA?6?$AA?$AA@| DCB "S"
	DCB	0x0, "h", 0x0, "o", 0x0, "w", 0x0, "S", 0x0, "D", 0x0, "L"
	DCB	0x0, "o", 0x0, "g", 0x0, "o", 0x0, ":", 0x0, " ", 0x0, "L"
	DCB	0x0, "O", 0x0, "G", 0x0, "O", 0x0, "_", 0x0, "H", 0x0, "E"
	DCB	0x0, "I", 0x0, "G", 0x0, "H", 0x0, "T", 0x0, " ", 0x0, "="
	DCB	0x0, " ", 0x0, "%", 0x0, "d", 0x0, 0xd, 0x0, 0xa, 0x0, 0x0
	DCB	0x0					; `string'

  00000			 AREA	 |.rdata|, DATA, READONLY
|??_C@_1DM@PDMEKHDN@?$AAS?$AAh?$AAo?$AAw?$AAS?$AAD?$AAL?$AAo?$AAg?$AAo?$AA?3?$AA?5?$AAL?$AAO?$AAG?$AAO?$AA_?$AAW?$AAI?$AAD?$AAT?$AAH?$AA?5?$AA?$DN?$AA?5?$AA?$CF?$AAd?$AA?$AN?$AA?6?$AA?$AA@| DCB "S"
	DCB	0x0, "h", 0x0, "o", 0x0, "w", 0x0, "S", 0x0, "D", 0x0, "L"
	DCB	0x0, "o", 0x0, "g", 0x0, "o", 0x0, ":", 0x0, " ", 0x0, "L"
	DCB	0x0, "O", 0x0, "G", 0x0, "O", 0x0, "_", 0x0, "W", 0x0, "I"
	DCB	0x0, "D", 0x0, "T", 0x0, "H", 0x0, " ", 0x0, "=", 0x0, " "
	DCB	0x0, "%", 0x0, "d", 0x0, 0xd, 0x0, 0xa, 0x0, 0x0, 0x0 ; `string'

  00000			 AREA	 |.rdata|, DATA, READONLY
|??_C@_1EG@DJLDILPN@?$AAS?$AAh?$AAo?$AAw?$AAS?$AAD?$AAL?$AAo?$AAg?$AAo?$AA?3?$AA?5?$AAB?$AAY?$AAT?$AAE?$AAS?$AA_?$AAP?$AAE?$AAR?$AA_?$AAP?$AAI?$AAX?$AAE?$AAL?$AA?5?$AA?$DN?$AA?5?$AA?$CF?$AAd@| DCB "S"
	DCB	0x0, "h", 0x0, "o", 0x0, "w", 0x0, "S", 0x0, "D", 0x0, "L"
	DCB	0x0, "o", 0x0, "g", 0x0, "o", 0x0, ":", 0x0, " ", 0x0, "B"
	DCB	0x0, "Y", 0x0, "T", 0x0, "E", 0x0, "S", 0x0, "_", 0x0, "P"
	DCB	0x0, "E", 0x0, "R", 0x0, "_", 0x0, "P", 0x0, "I", 0x0, "X"
	DCB	0x0, "E", 0x0, "L", 0x0, " ", 0x0, "=", 0x0, " ", 0x0, "%"
	DCB	0x0, "d", 0x0, 0xd, 0x0, 0xa, 0x0, 0x0, 0x0 ; `string'
; Function compile flags: /Ogspy

  00000			 AREA	 |.text|, CODE, ARM

  00000		 |ShowSDLogo| PROC

; 1146 : {

  00000		 |$LN22@ShowSDLogo|
  00000	e92d43f0	 stmdb       sp!, {r4 - r9, lr}
  00004	e24dd00c	 sub         sp, sp, #0xC
  00008		 |$M50395|

; 1147 :     DWORD framebuffer = 0;
; 1148 :     DWORD framebufferPA = 0;

  00008	e3a03000	 mov         r3, #0

; 1149 :     DWORD dwLcdWidth = 0;

  0000c	e3a02000	 mov         r2, #0

; 1150 :     DWORD dwLcdHeight = 0;

  00010	e3a01000	 mov         r1, #0
  00014	e58d3000	 str         r3, [sp]
  00018	e58d2004	 str         r2, [sp, #4]
  0001c	e58d1008	 str         r1, [sp, #8]

; 1151 : 	DWORD dwLength = 0;
; 1152 : 	PUCHAR 	pChar;          //Ray 131028
; 1153 : #ifdef DEFINE_LOGO
; 1154 :     OALLog(L"\r\n!!!!%d\r\n", DEFINE_LOGO);
; 1155 : #endif	
; 1156 :     // Get the LCD width and height
; 1157 :     LcdPdd_LCD_GetMode( NULL, &dwLcdWidth, &dwLcdHeight, NULL );

  00020	e3a03000	 mov         r3, #0
  00024	e28d2008	 add         r2, sp, #8
  00028	e28d1004	 add         r1, sp, #4
  0002c	e3a00000	 mov         r0, #0
  00030	eb000000	 bl          LcdPdd_LCD_GetMode

; 1158 : 	//OALMSG(OAL_INFO, (L"ShowSDLogo: dwLcdWidth = %d, dwLcdHeight = %d\r\n",dwLcdWidth,dwLcdHeight));
; 1159 : 	
; 1160 : 	// Get the frame buffer
; 1161 : 	LcdPdd_GetMemory( NULL, &framebufferPA );

  00034	e28d1000	 add         r1, sp, #0
  00038	e3a00000	 mov         r0, #0
  0003c	eb000000	 bl          LcdPdd_GetMemory

; 1162 : 	//OALMSG(OAL_INFO, (L"ShowSDLogo: framebuffer = 0x%x\r\n",framebufferPA));
; 1163 :     framebuffer = (DWORD) OALPAtoUA(framebufferPA);

  00040	e59d0000	 ldr         r0, [sp]
  00044	e3a01000	 mov         r1, #0
  00048	eb000000	 bl          OALPAtoVA

; 1164 : 	//OALMSG(OAL_INFO, (L"ShowSDLogo: framebuffer OALPAtoUA = 0x%x\r\n",framebuffer));
; 1165 : 	pChar = (PUCHAR)framebuffer;     //Ray 131028
; 1166 : 	
; 1167 : 	// Compute the size
; 1168 : 	dwLength = BYTES_PER_PIXEL * LOGO_WIDTH * LOGO_HEIGHT;
; 1169 : 	OALMSG(OAL_INFO, (L"ShowSDLogo: BYTES_PER_PIXEL = %d\r\n",BYTES_PER_PIXEL));

  0004c	e59f417c	 ldr         r4, [pc, #0x17C]
  00050	e1a05000	 mov         r5, r0
  00054	e5943440	 ldr         r3, [r4, #0x440]
  00058	e3130008	 tst         r3, #8
  0005c	0a000003	 beq         |$LN4@ShowSDLogo|
  00060	e59f0164	 ldr         r0, [pc, #0x164]
  00064	e3a01003	 mov         r1, #3
  00068	eb000000	 bl          NKDbgPrintfW
  0006c	e5943440	 ldr         r3, [r4, #0x440]
  00070		 |$LN4@ShowSDLogo|

; 1170 : 	OALMSG(OAL_INFO, (L"ShowSDLogo: LOGO_WIDTH = %d\r\n",LOGO_WIDTH));

  00070	e3130008	 tst         r3, #8
  00074	0a000003	 beq         |$LN6@ShowSDLogo|
  00078	e59f0148	 ldr         r0, [pc, #0x148]
  0007c	e3a010f0	 mov         r1, #0xF0
  00080	eb000000	 bl          NKDbgPrintfW
  00084	e5943440	 ldr         r3, [r4, #0x440]
  00088		 |$LN6@ShowSDLogo|

; 1171 : 	OALMSG(OAL_INFO, (L"ShowSDLogo: LOGO_HEIGHT = %d\r\n",LOGO_HEIGHT));

  00088	e3130008	 tst         r3, #8
  0008c	0a000003	 beq         |$LN8@ShowSDLogo|
  00090	e59f012c	 ldr         r0, [pc, #0x12C]
  00094	e3a01d05	 mov         r1, #5, 26
  00098	eb000000	 bl          NKDbgPrintfW
  0009c	e5943440	 ldr         r3, [r4, #0x440]
  000a0		 |$LN8@ShowSDLogo|

; 1172 : 	OALMSG(OAL_INFO, (L"ShowSDLogo: size = %d\r\n",dwLength));

  000a0	e3130008	 tst         r3, #8
  000a4	159f0114	 ldrne       r0, [pc, #0x114]
  000a8	13a01be1	 movne       r1, #0xE1, 22
  000ac	1b000000	 blne        NKDbgPrintfW

; 1173 : 	
; 1174 : /*#ifdef BSP_Z2000    //Ray 131024	
; 1175 : 	if (!BLSDCardReadLogo(L"Logo.bmp", (UCHAR*)framebuffer, dwLength))
; 1176 : 	{
; 1177 : 		return FALSE;
; 1178 : 	}
; 1179 : #else
; 1180 :     if (!BLSDCardReadLogo(L"LOGO_VER.bmp", (UCHAR*)framebuffer, dwLength))  //Ray 131115
; 1181 : 	{
; 1182 : 		return FALSE;
; 1183 : 	}
; 1184 : #endif*/
; 1185 : #if DEFINE_LOGO == 2000   //Ray 131115
; 1186 :         if (!BLSDCardReadLogo(L"Logo.bmp", (UCHAR*)framebuffer, dwLength))
; 1187 :         {
; 1188 :             return FALSE;
; 1189 :         }
; 1190 : #else       //1.file name, 2. address, 3. data size 
; 1191 :         if (!BLSDCardReadLogo(L"LOGO_VER.bmp", (UCHAR*)framebuffer, dwLength))  //Ray 131115

  000b0	e59f0104	 ldr         r0, [pc, #0x104]
  000b4	e3a02be1	 mov         r2, #0xE1, 22
  000b8	e1a01005	 mov         r1, r5
  000bc	eb000000	 bl          BLSDCardReadLogo
  000c0	e3500000	 cmp         r0, #0

; 1192 :         { 
; 1193 :             return FALSE;

  000c4	03a00000	 moveq       r0, #0
  000c8	0a000031	 beq         |$LN2@ShowSDLogo|

; 1194 :         }
; 1195 : #endif
; 1196 : 
; 1197 :     //  Compute position and size of logo image 
; 1198 :     g_dwLogoPosX   = (dwLcdWidth - LOGO_WIDTH)/2;
; 1199 :     g_dwLogoPosY   = (dwLcdHeight - LOGO_HEIGHT)/2;

  000cc	e59d2008	 ldr         r2, [sp, #8]
  000d0	e59d3004	 ldr         r3, [sp, #4]
  000d4	e59fe0dc	 ldr         lr, [pc, #0xDC]
  000d8	e59f00d4	 ldr         r0, [pc, #0xD4]

; 1200 :     g_dwLogoWidth  = LOGO_WIDTH;

  000dc	e59f70cc	 ldr         r7, [pc, #0xCC]

; 1201 :     g_dwLogoHeight = LOGO_HEIGHT;

  000e0	e59f80c4	 ldr         r8, [pc, #0xC4]

; 1202 : 	OALMSG(OAL_INFO, (L"ShowSDLogo: g_dwLogoPosX = %d,g_dwLogoPosY = %d\r\n",g_dwLogoPosX,g_dwLogoPosY));

  000e4	e5946440	 ldr         r6, [r4, #0x440]
  000e8	e2422d05	 sub         r2, r2, #5, 26
  000ec	e24330f0	 sub         r3, r3, #0xF0
  000f0	e1a090a2	 mov         r9, r2, lsr #1
  000f4	e3a02d05	 mov         r2, #5, 26
  000f8	e1a030a3	 mov         r3, r3, lsr #1
  000fc	e3a010f0	 mov         r1, #0xF0
  00100	e5882000	 str         r2, [r8]
  00104	e58e3000	 str         r3, [lr]
  00108	e5809000	 str         r9, [r0]
  0010c	e5871000	 str         r1, [r7]
  00110	e3160008	 tst         r6, #8
  00114	0a000006	 beq         |$LN12@ShowSDLogo|
  00118	e59f0088	 ldr         r0, [pc, #0x88]
  0011c	e1a02009	 mov         r2, r9
  00120	e1a01003	 mov         r1, r3
  00124	eb000000	 bl          NKDbgPrintfW
  00128	e5946440	 ldr         r6, [r4, #0x440]
  0012c	e5971000	 ldr         r1, [r7]
  00130	e5982000	 ldr         r2, [r8]
  00134		 |$LN12@ShowSDLogo|

; 1203 : 	OALMSG(OAL_INFO, (L"ShowSDLogo: g_dwLogoWidth = %d,g_dwLogoHeight = %d\r\n",g_dwLogoWidth,g_dwLogoHeight));

  00134	e3160008	 tst         r6, #8
  00138	159f0064	 ldrne       r0, [pc, #0x64]
  0013c	1b000000	 blne        NKDbgPrintfW

; 1204 :     //As BMP are stored upside down, we need to flip the frame buffer's content
; 1205 :     FlipFrameBuffer((PUCHAR)framebuffer,LOGO_HEIGHT,LOGO_WIDTH*BYTES_PER_PIXEL,(PUCHAR)framebuffer + dwLength);

  00140	e2853be1	 add         r3, r5, #0xE1, 22
  00144	e3a02e2d	 mov         r2, #0x2D, 28
  00148	e3a01d05	 mov         r1, #5, 26
  0014c	e1a00005	 mov         r0, r5
  00150	eb000000	 bl          FlipFrameBuffer

; 1206 : 
; 1207 :     //Initial graphics engine and draw ASCII function, Ray 131025
; 1208 :     //Check them size is right dwLcdWidth, dwLcdHeight?, Ray 131028
; 1209 : 	InitGraphicsEngine(LOGO_WIDTH, LOGO_HEIGHT, pChar, framebuffer);

  00154	e59f3044	 ldr         r3, [pc, #0x44]
  00158	e3a02d05	 mov         r2, #5, 26
  0015c	e3a010f0	 mov         r1, #0xF0

; 1210 : 
; 1211 :     //  Fire up the LCD
; 1212 :     lcd_config(framebufferPA);

  00160	e59d4000	 ldr         r4, [sp]
  00164	e5832004	 str         r2, [r3, #4]
  00168	e5831008	 str         r1, [r3, #8]
  0016c	e5835000	 str         r5, [r3]
  00170	e5835010	 str         r5, [r3, #0x10]
  00174	eb000000	 bl          reset_display_controller
  00178	eb000000	 bl          enable_lcd_power
  0017c	e1a00004	 mov         r0, r4
  00180	eb000000	 bl          configure_dss
  00184	eb000000	 bl          display_lcd_image
  00188	eb000000	 bl          enable_lcd_backlight
  0018c	eb000000	 bl          Initial_lcd_TSC2046

; 1213 : 
; 1214 : 	return TRUE;

  00190	e3a00001	 mov         r0, #1
  00194		 |$LN2@ShowSDLogo|

; 1215 : }

  00194	e28dd00c	 add         sp, sp, #0xC
  00198	e8bd43f0	 ldmia       sp!, {r4 - r9, lr}
  0019c	e12fff1e	 bx          lr
  001a0		 |$LN23@ShowSDLogo|
  001a0		 |$LN24@ShowSDLogo|
  001a0	00000000	 DCD         |g_nBpp|
  001a4		 |$LN25@ShowSDLogo|
  001a4	00000000	 DCD         |??_C@_1GK@BOLHCJDJ@?$AAS?$AAh?$AAo?$AAw?$AAS?$AAD?$AAL?$AAo?$AAg?$AAo?$AA?3?$AA?5?$AAg?$AA_?$AAd?$AAw?$AAL?$AAo?$AAg?$AAo?$AAW?$AAi?$AAd?$AAt?$AAh?$AA?5?$AA?$DN?$AA?5?$AA?$CF?$AAd?$AA?0?$AAg@|
  001a8		 |$LN26@ShowSDLogo|
  001a8	00000000	 DCD         |??_C@_1GE@MOPAKJBC@?$AAS?$AAh?$AAo?$AAw?$AAS?$AAD?$AAL?$AAo?$AAg?$AAo?$AA?3?$AA?5?$AAg?$AA_?$AAd?$AAw?$AAL?$AAo?$AAg?$AAo?$AAP?$AAo?$AAs?$AAX?$AA?5?$AA?$DN?$AA?5?$AA?$CF?$AAd?$AA?0?$AAg?$AA_@|
  001ac		 |$LN27@ShowSDLogo|
  001ac	00000000	 DCD         |g_dwLogoHeight|
  001b0		 |$LN28@ShowSDLogo|
  001b0	00000000	 DCD         |g_dwLogoWidth|
  001b4		 |$LN29@ShowSDLogo|
  001b4	00000000	 DCD         |g_dwLogoPosY|
  001b8		 |$LN30@ShowSDLogo|
  001b8	00000000	 DCD         |g_dwLogoPosX|
  001bc		 |$LN31@ShowSDLogo|
  001bc	00000000	 DCD         |??_C@_1BK@DIIBPNGC@?$AAL?$AAO?$AAG?$AAO?$AA_?$AAV?$AAE?$AAR?$AA?4?$AAb?$AAm?$AAp?$AA?$AA@|
  001c0		 |$LN32@ShowSDLogo|
  001c0	00000000	 DCD         |??_C@_1DA@IPAEADDN@?$AAS?$AAh?$AAo?$AAw?$AAS?$AAD?$AAL?$AAo?$AAg?$AAo?$AA?3?$AA?5?$AAs?$AAi?$AAz?$AAe?$AA?5?$AA?$DN?$AA?5?$AA?$CF?$AAd?$AA?$AN?$AA?6?$AA?$AA@|
  001c4		 |$LN33@ShowSDLogo|
  001c4	00000000	 DCD         |??_C@_1DO@ENJNNPID@?$AAS?$AAh?$AAo?$AAw?$AAS?$AAD?$AAL?$AAo?$AAg?$AAo?$AA?3?$AA?5?$AAL?$AAO?$AAG?$AAO?$AA_?$AAH?$AAE?$AAI?$AAG?$AAH?$AAT?$AA?5?$AA?$DN?$AA?5?$AA?$CF?$AAd?$AA?$AN?$AA?6?$AA?$AA@|
  001c8		 |$LN34@ShowSDLogo|
  001c8	00000000	 DCD         |??_C@_1DM@PDMEKHDN@?$AAS?$AAh?$AAo?$AAw?$AAS?$AAD?$AAL?$AAo?$AAg?$AAo?$AA?3?$AA?5?$AAL?$AAO?$AAG?$AAO?$AA_?$AAW?$AAI?$AAD?$AAT?$AAH?$AA?5?$AA?$DN?$AA?5?$AA?$CF?$AAd?$AA?$AN?$AA?6?$AA?$AA@|
  001cc		 |$LN35@ShowSDLogo|
  001cc	00000000	 DCD         |??_C@_1EG@DJLDILPN@?$AAS?$AAh?$AAo?$AAw?$AAS?$AAD?$AAL?$AAo?$AAg?$AAo?$AA?3?$AA?5?$AAB?$AAY?$AAT?$AAE?$AAS?$AA_?$AAP?$AAE?$AAR?$AA_?$AAP?$AAI?$AAX?$AAE?$AAL?$AA?5?$AA?$DN?$AA?5?$AA?$CF?$AAd@|
  001d0		 |$LN36@ShowSDLogo|
  001d0	00000000	 DCD         |dpCurSettings|
  001d4		 |$M50396|

			 ENDP  ; |ShowSDLogo|

	EXPORT	|ShowTestWhite|
	EXPORT	|??_C@_1DE@FNJFOKNB@?$AA?$AN?$AA?5?$AAD?$AAi?$AAs?$AAp?$AAl?$AAa?$AAy?$AA?5?$AAt?$AAe?$AAs?$AAt?$AAe?$AAd?$AA?5?$AAe?$AAn?$AAd?$AA?4?$AA?4?$AA?4?$AA?$AN?$AA?6?$AA?$AA@| [ DATA ] ; `string'
	EXPORT	|??_C@_1DK@DCAHJGL@?$AA?$AN?$AA?5?$AA?$CB?$AAC?$AAa?$AAn?$AA?5?$AAy?$AAo?$AAu?$AA?5?$AAs?$AAe?$AAe?$AA?5?$AAW?$AAh?$AAi?$AAt?$AAe?$AA?5?$AAf?$AAi?$AAl?$AAl?$AA?4?$AA?$AN?$AA?6?$AA?$AA@| [ DATA ] ; `string'

  00000			 AREA	 |.pdata|, PDATA
|$T50436| DCD	|$LN20@ShowTestWh|
	DCD	0x40007a02

  00000			 AREA	 |.rdata|, DATA, READONLY
|??_C@_1DE@FNJFOKNB@?$AA?$AN?$AA?5?$AAD?$AAi?$AAs?$AAp?$AAl?$AAa?$AAy?$AA?5?$AAt?$AAe?$AAs?$AAt?$AAe?$AAd?$AA?5?$AAe?$AAn?$AAd?$AA?4?$AA?4?$AA?4?$AA?$AN?$AA?6?$AA?$AA@| DCB 0xd
	DCB	0x0, " ", 0x0, "D", 0x0, "i", 0x0, "s", 0x0, "p", 0x0, "l"
	DCB	0x0, "a", 0x0, "y", 0x0, " ", 0x0, "t", 0x0, "e", 0x0, "s"
	DCB	0x0, "t", 0x0, "e", 0x0, "d", 0x0, " ", 0x0, "e", 0x0, "n"
	DCB	0x0, "d", 0x0, ".", 0x0, ".", 0x0, ".", 0x0, 0xd, 0x0, 0xa
	DCB	0x0, 0x0, 0x0				; `string'

  00000			 AREA	 |.rdata|, DATA, READONLY
|??_C@_1DK@DCAHJGL@?$AA?$AN?$AA?5?$AA?$CB?$AAC?$AAa?$AAn?$AA?5?$AAy?$AAo?$AAu?$AA?5?$AAs?$AAe?$AAe?$AA?5?$AAW?$AAh?$AAi?$AAt?$AAe?$AA?5?$AAf?$AAi?$AAl?$AAl?$AA?4?$AA?$AN?$AA?6?$AA?$AA@| DCB 0xd
	DCB	0x0, " ", 0x0, "!", 0x0, "C", 0x0, "a", 0x0, "n", 0x0, " "
	DCB	0x0, "y", 0x0, "o", 0x0, "u", 0x0, " ", 0x0, "s", 0x0, "e"
	DCB	0x0, "e", 0x0, " ", 0x0, "W", 0x0, "h", 0x0, "i", 0x0, "t"
	DCB	0x0, "e", 0x0, " ", 0x0, "f", 0x0, "i", 0x0, "l", 0x0, "l"
	DCB	0x0, ".", 0x0, 0xd, 0x0, 0xa, 0x0, 0x0, 0x0 ; `string'
; Function compile flags: /Ogspy

  00000			 AREA	 |.text|, CODE, ARM

  00000		 |ShowTestWhite| PROC

; 1222 : {

  00000		 |$LN20@ShowTestWh|
  00000	e92d4ff0	 stmdb       sp!, {r4 - r11, lr}
  00004	e24dd018	 sub         sp, sp, #0x18
  00008		 |$M50433|
  00008	e1a06001	 mov         r6, r1
  0000c	e1a05000	 mov         r5, r0

; 1223 :     HANDLE  hFlash = NULL;
; 1224 :     DWORD	framebuffer;
; 1225 :     DWORD	framebufferPA;
; 1226 :     PUCHAR  pChar;
; 1227 :     ULONG   x, y;
; 1228 :     WORD	wSignature = 0;

  00010	e3a03000	 mov         r3, #0

; 1229 :     DWORD   dwOffset = 0;

  00014	e3a02000	 mov         r2, #0
  00018	e1cd30b4	 strh        r3, [sp, #4]
  0001c	e58d2010	 str         r2, [sp, #0x10]

; 1230 :     DWORD   dwLcdWidth, dwLcdHeight;
; 1231 :     DWORD   dwLength;
; 1232 :     //DWORD   d5Sec = 5000000;
; 1233 :     //DWORD   sleep5sec = 5000;
; 1234 :     
; 1235 :     //  Get the LCD width and height
; 1236 :     LcdPdd_LCD_GetMode( NULL, &dwLcdWidth, &dwLcdHeight, NULL );

  00020	e3a03000	 mov         r3, #0
  00024	e28d200c	 add         r2, sp, #0xC
  00028	e28d1008	 add         r1, sp, #8
  0002c	e3a00000	 mov         r0, #0
  00030	eb000000	 bl          LcdPdd_LCD_GetMode

; 1237 : 	
; 1238 :     dwLength = BYTES_PER_PIXEL * LOGO_WIDTH * LOGO_HEIGHT;
; 1239 : 
; 1240 :     //  Get the video memory
; 1241 :     LcdPdd_GetMemory( NULL, &framebufferPA );

  00034	e28d1014	 add         r1, sp, #0x14
  00038	e3a00000	 mov         r0, #0
  0003c	eb000000	 bl          LcdPdd_GetMemory

; 1242 :     framebuffer = (DWORD) OALPAtoUA(framebufferPA);

  00040	e59d0014	 ldr         r0, [sp, #0x14]
  00044	e3a01000	 mov         r1, #0
  00048	eb000000	 bl          OALPAtoVA

; 1243 :     pChar = (PUCHAR)framebuffer;
; 1244 :     
; 1245 :     if (flashAddr != -1)

  0004c	e59f7190	 ldr         r7, [pc, #0x190]
  00050	e59f8188	 ldr         r8, [pc, #0x188]
  00054	e59f9180	 ldr         r9, [pc, #0x180]
  00058	e59fa178	 ldr         r10, [pc, #0x178]
  0005c	e1a04000	 mov         r4, r0
  00060	e3750001	 cmn         r5, #1
  00064	0a00002f	 beq         |$LN8@ShowTestWh|

; 1246 :     {
; 1247 :         // Open flash storage
; 1248 :         hFlash = OALFlashStoreOpen(flashAddr);

  00068	e1a00005	 mov         r0, r5
  0006c	eb000000	 bl          OALFlashStoreOpen
  00070	e1b05000	 movs        r5, r0

; 1249 :         if( hFlash != NULL )

  00074	0a00002b	 beq         |$LN8@ShowTestWh|

; 1250 :         {
; 1251 :             //  The LOGO reserved NAND flash region contains the BMP file
; 1252 :             OALFlashStoreBufferedRead( hFlash, offset, (UCHAR*) &wSignature, sizeof(wSignature), FALSE );

  00078	e3a0b000	 mov         r11, #0
  0007c	e3a03002	 mov         r3, #2
  00080	e28d2004	 add         r2, sp, #4
  00084	e1a01006	 mov         r1, r6
  00088	e1a00005	 mov         r0, r5
  0008c	e58db000	 str         r11, [sp]
  00090	eb000000	 bl          OALFlashStoreBufferedRead

; 1253 : 
; 1254 :             //  Check for 'BM' signature
; 1255 :             if( wSignature == 0x4D42 )  

  00094	e1dd20b4	 ldrh        r2, [sp, #4]
  00098	e3a03c4d	 mov         r3, #0x4D, 24
  0009c	e3833042	 orr         r3, r3, #0x42
  000a0	e1520003	 cmp         r2, r3
  000a4	1a00000c	 bne         |$LN7@ShowTestWh|

; 1256 :             {
; 1257 :                 //  Read the offset to the pixel data
; 1258 :                 OALFlashStoreBufferedRead( hFlash, offset + 10, (UCHAR*) &dwOffset, sizeof(dwOffset), FALSE );

  000a8	e3a03004	 mov         r3, #4
  000ac	e28d2010	 add         r2, sp, #0x10
  000b0	e286100a	 add         r1, r6, #0xA
  000b4	e1a00005	 mov         r0, r5
  000b8	e58db000	 str         r11, [sp]
  000bc	eb000000	 bl          OALFlashStoreBufferedRead

; 1259 : 
; 1260 :                 //  Read the pixel data with the given offset
; 1261 :                 OALFlashStoreBufferedRead( hFlash, offset + dwOffset, pChar, dwLength, FALSE );

  000c0	e59d1010	 ldr         r1, [sp, #0x10]
  000c4	e3a03be1	 mov         r3, #0xE1, 22
  000c8	e1a02004	 mov         r2, r4
  000cc	e0811006	 add         r1, r1, r6
  000d0	e1a00005	 mov         r0, r5
  000d4	e58db000	 str         r11, [sp]
  000d8	eb000000	 bl          OALFlashStoreBufferedRead
  000dc		 |$LN7@ShowTestWh|

; 1262 :             }
; 1263 :            
; 1264 :             //  Close store
; 1265 :             OALFlashStoreClose(hFlash);

  000dc	e1a00005	 mov         r0, r5
  000e0	eb000000	 bl          OALFlashStoreClose

; 1266 :         
; 1267 :             //  Compute position and size of logo image 
; 1268 :             g_dwLogoPosX   = (dwLcdWidth - LOGO_WIDTH)/2;

  000e4	e59d3008	 ldr         r3, [sp, #8]

; 1269 :             g_dwLogoPosY   = (dwLcdHeight - LOGO_HEIGHT)/2;

  000e8	e59d200c	 ldr         r2, [sp, #0xC]

; 1270 :             g_dwLogoWidth  = LOGO_WIDTH;

  000ec	e3a050f0	 mov         r5, #0xF0
  000f0	e24330f0	 sub         r3, r3, #0xF0
  000f4	e2422d05	 sub         r2, r2, #5, 26
  000f8	e1a030a3	 mov         r3, r3, lsr #1
  000fc	e1a020a2	 mov         r2, r2, lsr #1

; 1271 :             g_dwLogoHeight = LOGO_HEIGHT;

  00100	e58a3000	 str         r3, [r10]
  00104	e5892000	 str         r2, [r9]
  00108	e3a0ed05	 mov         lr, #5, 26

; 1272 :             
; 1273 :             //As BMP are stored upside down, we need to flip the frame buffer's content
; 1274 :             FlipFrameBuffer((PUCHAR)framebuffer,LOGO_HEIGHT,LOGO_WIDTH*BYTES_PER_PIXEL,(PUCHAR)framebuffer + dwLength);

  0010c	e2843be1	 add         r3, r4, #0xE1, 22
  00110	e3a02e2d	 mov         r2, #0x2D, 28
  00114	e3a01d05	 mov         r1, #5, 26
  00118	e1a00004	 mov         r0, r4
  0011c	e5885000	 str         r5, [r8]
  00120	e587e000	 str         lr, [r7]
  00124	eb000000	 bl          FlipFrameBuffer
  00128		 |$LN8@ShowTestWh|

; 1275 :         }
; 1276 :     }
; 1277 : 
; 1278 :     //  Adjust color bars to LCD size
; 1279 :     g_dwLogoPosX   = 0;
; 1280 :     g_dwLogoPosY   = 0;
; 1281 :     g_dwLogoWidth  = dwLcdWidth;

  00128	e59d3008	 ldr         r3, [sp, #8]

; 1282 :     g_dwLogoHeight = dwLcdHeight;

  0012c	e59d200c	 ldr         r2, [sp, #0xC]

; 1283 : 
; 1284 :     OALLog(L"\r !Can you see White fill.\r\n");

  00130	e59f009c	 ldr         r0, [pc, #0x9C]
  00134	e3a01000	 mov         r1, #0
  00138	e3a0e000	 mov         lr, #0
  0013c	e5883000	 str         r3, [r8]
  00140	e5872000	 str         r2, [r7]
  00144	e58a1000	 str         r1, [r10]
  00148	e589e000	 str         lr, [r9]
  0014c	eb000000	 bl          NKDbgPrintfW

; 1285 :     for (y= 0; y < dwLcdHeight; y++)

  00150	e59d000c	 ldr         r0, [sp, #0xC]
  00154	e3a01000	 mov         r1, #0
  00158	e3500000	 cmp         r0, #0
  0015c	0a00000f	 beq         |$LN4@ShowTestWh|
  00160	e59d3008	 ldr         r3, [sp, #8]
  00164	e3a0e0ff	 mov         lr, #0xFF
  00168		 |$LL6@ShowTestWh|

; 1286 :     {
; 1287 :         for( x = 0; x < dwLcdWidth; x++ )

  00168	e3a02000	 mov         r2, #0
  0016c	e3530000	 cmp         r3, #0
  00170	0a000007	 beq         |$LN5@ShowTestWh|
  00174		 |$LL3@ShowTestWh|

; 1288 :         {
; 1289 :             *pChar++ = 0xFF;    //  Blue

  00174	e4c4e001	 strb        lr, [r4], #1
  00178	e2822001	 add         r2, r2, #1

; 1290 :             *pChar++ = 0xFF;    //  Green

  0017c	e4c4e001	 strb        lr, [r4], #1

; 1291 :             *pChar++ = 0xFF;    //  Red

  00180	e4c4e001	 strb        lr, [r4], #1
  00184	e59d3008	 ldr         r3, [sp, #8]
  00188	e1520003	 cmp         r2, r3
  0018c	3afffff8	 bcc         |$LL3@ShowTestWh|

; 1286 :     {
; 1287 :         for( x = 0; x < dwLcdWidth; x++ )

  00190	e59d000c	 ldr         r0, [sp, #0xC]
  00194		 |$LN5@ShowTestWh|

; 1285 :     for (y= 0; y < dwLcdHeight; y++)

  00194	e2811001	 add         r1, r1, #1
  00198	e1510000	 cmp         r1, r0
  0019c	3afffff1	 bcc         |$LL6@ShowTestWh|
  001a0		 |$LN4@ShowTestWh|

; 1292 :         }
; 1293 :     }
; 1294 :     LcdStall(g_d3Sec);

  001a0	e59f3028	 ldr         r3, [pc, #0x28]
  001a4	e5930000	 ldr         r0, [r3]
  001a8	eb000000	 bl          OALStall

; 1295 :     OALLog(L"\r Display tested end...\r\n");

  001ac	e59f0018	 ldr         r0, [pc, #0x18]
  001b0	eb000000	 bl          NKDbgPrintfW

; 1296 : 
; 1297 :     ShowLogo((UINT32)-1, 0);

  001b4	e3a01000	 mov         r1, #0
  001b8	e3e00000	 mvn         r0, #0
  001bc	eb000000	 bl          ShowLogo

; 1298 :     //ShowSDLogo();
; 1299 : }

  001c0	e28dd018	 add         sp, sp, #0x18
  001c4	e8bd4ff0	 ldmia       sp!, {r4 - r11, lr}
  001c8	e12fff1e	 bx          lr
  001cc		 |$LN21@ShowTestWh|
  001cc		 |$LN22@ShowTestWh|
  001cc	00000000	 DCD         |??_C@_1DE@FNJFOKNB@?$AA?$AN?$AA?5?$AAD?$AAi?$AAs?$AAp?$AAl?$AAa?$AAy?$AA?5?$AAt?$AAe?$AAs?$AAt?$AAe?$AAd?$AA?5?$AAe?$AAn?$AAd?$AA?4?$AA?4?$AA?4?$AA?$AN?$AA?6?$AA?$AA@|
  001d0		 |$LN23@ShowTestWh|
  001d0	00000000	 DCD         |g_d3Sec|
  001d4		 |$LN24@ShowTestWh|
  001d4	00000000	 DCD         |??_C@_1DK@DCAHJGL@?$AA?$AN?$AA?5?$AA?$CB?$AAC?$AAa?$AAn?$AA?5?$AAy?$AAo?$AAu?$AA?5?$AAs?$AAe?$AAe?$AA?5?$AAW?$AAh?$AAi?$AAt?$AAe?$AA?5?$AAf?$AAi?$AAl?$AAl?$AA?4?$AA?$AN?$AA?6?$AA?$AA@|
  001d8		 |$LN25@ShowTestWh|
  001d8	00000000	 DCD         |g_dwLogoPosX|
  001dc		 |$LN26@ShowTestWh|
  001dc	00000000	 DCD         |g_dwLogoPosY|
  001e0		 |$LN27@ShowTestWh|
  001e0	00000000	 DCD         |g_dwLogoWidth|
  001e4		 |$LN28@ShowTestWh|
  001e4	00000000	 DCD         |g_dwLogoHeight|
  001e8		 |$M50434|

			 ENDP  ; |ShowTestWhite|

	EXPORT	|ShowTestBlack|
	EXPORT	|??_C@_1DK@DCFCDENE@?$AA?$AN?$AA?5?$AA?$CB?$AAC?$AAa?$AAn?$AA?5?$AAy?$AAo?$AAu?$AA?5?$AAs?$AAe?$AAe?$AA?5?$AAB?$AAl?$AAa?$AAc?$AAk?$AA?5?$AAf?$AAi?$AAl?$AAl?$AA?4?$AA?$AN?$AA?6?$AA?$AA@| [ DATA ] ; `string'

  00000			 AREA	 |.pdata|, PDATA
|$T50468| DCD	|$LN20@ShowTestBl|
	DCD	0x40007602

  00000			 AREA	 |.rdata|, DATA, READONLY
|??_C@_1DK@DCFCDENE@?$AA?$AN?$AA?5?$AA?$CB?$AAC?$AAa?$AAn?$AA?5?$AAy?$AAo?$AAu?$AA?5?$AAs?$AAe?$AAe?$AA?5?$AAB?$AAl?$AAa?$AAc?$AAk?$AA?5?$AAf?$AAi?$AAl?$AAl?$AA?4?$AA?$AN?$AA?6?$AA?$AA@| DCB 0xd
	DCB	0x0, " ", 0x0, "!", 0x0, "C", 0x0, "a", 0x0, "n", 0x0, " "
	DCB	0x0, "y", 0x0, "o", 0x0, "u", 0x0, " ", 0x0, "s", 0x0, "e"
	DCB	0x0, "e", 0x0, " ", 0x0, "B", 0x0, "l", 0x0, "a", 0x0, "c"
	DCB	0x0, "k", 0x0, " ", 0x0, "f", 0x0, "i", 0x0, "l", 0x0, "l"
	DCB	0x0, ".", 0x0, 0xd, 0x0, 0xa, 0x0, 0x0, 0x0 ; `string'
; Function compile flags: /Ogspy

  00000			 AREA	 |.text|, CODE, ARM

  00000		 |ShowTestBlack| PROC

; 1306 : {

  00000		 |$LN20@ShowTestBl|
  00000	e92d4ff0	 stmdb       sp!, {r4 - r11, lr}
  00004	e24dd018	 sub         sp, sp, #0x18
  00008		 |$M50465|
  00008	e1a06001	 mov         r6, r1
  0000c	e1a05000	 mov         r5, r0

; 1307 :     HANDLE  hFlash = NULL;
; 1308 :     DWORD	framebuffer;
; 1309 :     DWORD	framebufferPA;
; 1310 :     PUCHAR  pChar;
; 1311 :     ULONG   x, y;
; 1312 :     WORD	wSignature = 0;

  00010	e3a03000	 mov         r3, #0

; 1313 :     DWORD   dwOffset = 0;

  00014	e3a02000	 mov         r2, #0
  00018	e1cd30b4	 strh        r3, [sp, #4]
  0001c	e58d2010	 str         r2, [sp, #0x10]

; 1314 :     DWORD   dwLcdWidth, dwLcdHeight;
; 1315 :     DWORD   dwLength;
; 1316 :     //DWORD   d5Sec = 5000000;
; 1317 :     //DWORD   sleep5sec = 5000;
; 1318 :     
; 1319 :     //  Get the LCD width and height
; 1320 :     LcdPdd_LCD_GetMode( NULL, &dwLcdWidth, &dwLcdHeight, NULL );

  00020	e3a03000	 mov         r3, #0
  00024	e28d200c	 add         r2, sp, #0xC
  00028	e28d1008	 add         r1, sp, #8
  0002c	e3a00000	 mov         r0, #0
  00030	eb000000	 bl          LcdPdd_LCD_GetMode

; 1321 : 	
; 1322 :     dwLength = BYTES_PER_PIXEL * LOGO_WIDTH * LOGO_HEIGHT;
; 1323 : 
; 1324 :     //  Get the video memory
; 1325 :     LcdPdd_GetMemory( NULL, &framebufferPA );

  00034	e28d1014	 add         r1, sp, #0x14
  00038	e3a00000	 mov         r0, #0
  0003c	eb000000	 bl          LcdPdd_GetMemory

; 1326 :     framebuffer = (DWORD) OALPAtoUA(framebufferPA);

  00040	e59d0014	 ldr         r0, [sp, #0x14]
  00044	e3a01000	 mov         r1, #0
  00048	eb000000	 bl          OALPAtoVA

; 1327 :     pChar = (PUCHAR)framebuffer;
; 1328 :     
; 1329 :     if (flashAddr != -1)

  0004c	e59f7180	 ldr         r7, [pc, #0x180]
  00050	e59f8178	 ldr         r8, [pc, #0x178]
  00054	e59f9170	 ldr         r9, [pc, #0x170]
  00058	e59fa168	 ldr         r10, [pc, #0x168]
  0005c	e1a04000	 mov         r4, r0
  00060	e3a0b000	 mov         r11, #0
  00064	e3750001	 cmn         r5, #1
  00068	0a00002e	 beq         |$LN8@ShowTestBl|

; 1330 :     {
; 1331 :         // Open flash storage
; 1332 :         hFlash = OALFlashStoreOpen(flashAddr);

  0006c	e1a00005	 mov         r0, r5
  00070	eb000000	 bl          OALFlashStoreOpen
  00074	e1b05000	 movs        r5, r0

; 1333 :         if( hFlash != NULL )

  00078	0a00002a	 beq         |$LN8@ShowTestBl|

; 1334 :         {
; 1335 :             //  The LOGO reserved NAND flash region contains the BMP file
; 1336 :             OALFlashStoreBufferedRead( hFlash, offset, (UCHAR*) &wSignature, sizeof(wSignature), FALSE );

  0007c	e3a03002	 mov         r3, #2
  00080	e28d2004	 add         r2, sp, #4
  00084	e1a01006	 mov         r1, r6
  00088	e1a00005	 mov         r0, r5
  0008c	e58db000	 str         r11, [sp]
  00090	eb000000	 bl          OALFlashStoreBufferedRead

; 1337 : 
; 1338 :             //  Check for 'BM' signature
; 1339 :             if( wSignature == 0x4D42 )  

  00094	e1dd20b4	 ldrh        r2, [sp, #4]
  00098	e3a03c4d	 mov         r3, #0x4D, 24
  0009c	e3833042	 orr         r3, r3, #0x42
  000a0	e1520003	 cmp         r2, r3
  000a4	1a00000c	 bne         |$LN7@ShowTestBl|

; 1340 :             {
; 1341 :                 //  Read the offset to the pixel data
; 1342 :                 OALFlashStoreBufferedRead( hFlash, offset + 10, (UCHAR*) &dwOffset, sizeof(dwOffset), FALSE );

  000a8	e3a03004	 mov         r3, #4
  000ac	e28d2010	 add         r2, sp, #0x10
  000b0	e286100a	 add         r1, r6, #0xA
  000b4	e1a00005	 mov         r0, r5
  000b8	e58db000	 str         r11, [sp]
  000bc	eb000000	 bl          OALFlashStoreBufferedRead

; 1343 : 
; 1344 :                 //  Read the pixel data with the given offset
; 1345 :                 OALFlashStoreBufferedRead( hFlash, offset + dwOffset, pChar, dwLength, FALSE );

  000c0	e59d1010	 ldr         r1, [sp, #0x10]
  000c4	e3a03be1	 mov         r3, #0xE1, 22
  000c8	e1a02004	 mov         r2, r4
  000cc	e0811006	 add         r1, r1, r6
  000d0	e1a00005	 mov         r0, r5
  000d4	e58db000	 str         r11, [sp]
  000d8	eb000000	 bl          OALFlashStoreBufferedRead
  000dc		 |$LN7@ShowTestBl|

; 1346 :             }
; 1347 :            
; 1348 :             //  Close store
; 1349 :             OALFlashStoreClose(hFlash);

  000dc	e1a00005	 mov         r0, r5
  000e0	eb000000	 bl          OALFlashStoreClose

; 1350 :         
; 1351 :             //  Compute position and size of logo image 
; 1352 :             g_dwLogoPosX   = (dwLcdWidth - LOGO_WIDTH)/2;

  000e4	e59d3008	 ldr         r3, [sp, #8]

; 1353 :             g_dwLogoPosY   = (dwLcdHeight - LOGO_HEIGHT)/2;

  000e8	e59d200c	 ldr         r2, [sp, #0xC]

; 1354 :             g_dwLogoWidth  = LOGO_WIDTH;

  000ec	e3a050f0	 mov         r5, #0xF0
  000f0	e24330f0	 sub         r3, r3, #0xF0
  000f4	e2422d05	 sub         r2, r2, #5, 26
  000f8	e1a030a3	 mov         r3, r3, lsr #1
  000fc	e1a020a2	 mov         r2, r2, lsr #1

; 1355 :             g_dwLogoHeight = LOGO_HEIGHT;

  00100	e58a3000	 str         r3, [r10]
  00104	e5892000	 str         r2, [r9]
  00108	e3a0ed05	 mov         lr, #5, 26

; 1356 :             
; 1357 :             //As BMP are stored upside down, we need to flip the frame buffer's content
; 1358 :             FlipFrameBuffer((PUCHAR)framebuffer,LOGO_HEIGHT,LOGO_WIDTH*BYTES_PER_PIXEL,(PUCHAR)framebuffer + dwLength);

  0010c	e2843be1	 add         r3, r4, #0xE1, 22
  00110	e3a02e2d	 mov         r2, #0x2D, 28
  00114	e3a01d05	 mov         r1, #5, 26
  00118	e1a00004	 mov         r0, r4
  0011c	e5885000	 str         r5, [r8]
  00120	e587e000	 str         lr, [r7]
  00124	eb000000	 bl          FlipFrameBuffer
  00128		 |$LN8@ShowTestBl|

; 1359 :         }
; 1360 :     }
; 1361 : 
; 1362 :     //  Adjust color bars to LCD size
; 1363 :     g_dwLogoPosX   = 0;
; 1364 :     g_dwLogoPosY   = 0;
; 1365 :     g_dwLogoWidth  = dwLcdWidth;

  00128	e59d3008	 ldr         r3, [sp, #8]

; 1366 :     g_dwLogoHeight = dwLcdHeight;

  0012c	e59d200c	 ldr         r2, [sp, #0xC]

; 1367 : 
; 1368 :     OALLog(L"\r !Can you see Black fill.\r\n");

  00130	e59f008c	 ldr         r0, [pc, #0x8C]
  00134	e3a01000	 mov         r1, #0
  00138	e3a0e000	 mov         lr, #0
  0013c	e5883000	 str         r3, [r8]
  00140	e5872000	 str         r2, [r7]
  00144	e58a1000	 str         r1, [r10]
  00148	e589e000	 str         lr, [r9]
  0014c	eb000000	 bl          NKDbgPrintfW

; 1369 :     for (y= 0; y < dwLcdHeight; y++)

  00150	e59d000c	 ldr         r0, [sp, #0xC]
  00154	e3a01000	 mov         r1, #0
  00158	e3500000	 cmp         r0, #0
  0015c	0a00000e	 beq         |$LN4@ShowTestBl|
  00160	e59d3008	 ldr         r3, [sp, #8]
  00164		 |$LL6@ShowTestBl|

; 1370 :     {
; 1371 :         for( x = 0; x < dwLcdWidth; x++ )

  00164	e3a02000	 mov         r2, #0
  00168	e3530000	 cmp         r3, #0
  0016c	0a000007	 beq         |$LN5@ShowTestBl|
  00170		 |$LL3@ShowTestBl|

; 1372 :         {
; 1373 :             *pChar++ = 0x00;    //  Blue

  00170	e4c4b001	 strb        r11, [r4], #1
  00174	e2822001	 add         r2, r2, #1

; 1374 :             *pChar++ = 0x00;    //  Green

  00178	e4c4b001	 strb        r11, [r4], #1

; 1375 :             *pChar++ = 0x00;    //  Red

  0017c	e4c4b001	 strb        r11, [r4], #1
  00180	e59d3008	 ldr         r3, [sp, #8]
  00184	e1520003	 cmp         r2, r3
  00188	3afffff8	 bcc         |$LL3@ShowTestBl|

; 1370 :     {
; 1371 :         for( x = 0; x < dwLcdWidth; x++ )

  0018c	e59d000c	 ldr         r0, [sp, #0xC]
  00190		 |$LN5@ShowTestBl|

; 1369 :     for (y= 0; y < dwLcdHeight; y++)

  00190	e2811001	 add         r1, r1, #1
  00194	e1510000	 cmp         r1, r0
  00198	3afffff1	 bcc         |$LL6@ShowTestBl|
  0019c		 |$LN4@ShowTestBl|

; 1376 :         }
; 1377 :     }
; 1378 :     LcdStall(g_d3Sec);

  0019c	e59f301c	 ldr         r3, [pc, #0x1C]
  001a0	e5930000	 ldr         r0, [r3]
  001a4	eb000000	 bl          OALStall

; 1379 :     
; 1380 :     ShowTestWhite((UINT32)-1, 0);

  001a8	e3a01000	 mov         r1, #0
  001ac	e3e00000	 mvn         r0, #0
  001b0	eb000000	 bl          ShowTestWhite

; 1381 : }

  001b4	e28dd018	 add         sp, sp, #0x18
  001b8	e8bd4ff0	 ldmia       sp!, {r4 - r11, lr}
  001bc	e12fff1e	 bx          lr
  001c0		 |$LN21@ShowTestBl|
  001c0		 |$LN22@ShowTestBl|
  001c0	00000000	 DCD         |g_d3Sec|
  001c4		 |$LN23@ShowTestBl|
  001c4	00000000	 DCD         |??_C@_1DK@DCFCDENE@?$AA?$AN?$AA?5?$AA?$CB?$AAC?$AAa?$AAn?$AA?5?$AAy?$AAo?$AAu?$AA?5?$AAs?$AAe?$AAe?$AA?5?$AAB?$AAl?$AAa?$AAc?$AAk?$AA?5?$AAf?$AAi?$AAl?$AAl?$AA?4?$AA?$AN?$AA?6?$AA?$AA@|
  001c8		 |$LN24@ShowTestBl|
  001c8	00000000	 DCD         |g_dwLogoPosX|
  001cc		 |$LN25@ShowTestBl|
  001cc	00000000	 DCD         |g_dwLogoPosY|
  001d0		 |$LN26@ShowTestBl|
  001d0	00000000	 DCD         |g_dwLogoWidth|
  001d4		 |$LN27@ShowTestBl|
  001d4	00000000	 DCD         |g_dwLogoHeight|
  001d8		 |$M50466|

			 ENDP  ; |ShowTestBlack|

	EXPORT	|ShowTestBlue|
	EXPORT	|??_C@_1DI@DFLBLJEC@?$AA?$AN?$AA?5?$AA?$CB?$AAC?$AAa?$AAn?$AA?5?$AAy?$AAo?$AAu?$AA?5?$AAs?$AAe?$AAe?$AA?5?$AAB?$AAl?$AAu?$AAe?$AA?5?$AAf?$AAi?$AAl?$AAl?$AA?4?$AA?$AN?$AA?6?$AA?$AA@| [ DATA ] ; `string'

  00000			 AREA	 |.pdata|, PDATA
|$T50499| DCD	|$LN20@ShowTestBl@2|
	DCD	0x40007702

  00000			 AREA	 |.rdata|, DATA, READONLY
|??_C@_1DI@DFLBLJEC@?$AA?$AN?$AA?5?$AA?$CB?$AAC?$AAa?$AAn?$AA?5?$AAy?$AAo?$AAu?$AA?5?$AAs?$AAe?$AAe?$AA?5?$AAB?$AAl?$AAu?$AAe?$AA?5?$AAf?$AAi?$AAl?$AAl?$AA?4?$AA?$AN?$AA?6?$AA?$AA@| DCB 0xd
	DCB	0x0, " ", 0x0, "!", 0x0, "C", 0x0, "a", 0x0, "n", 0x0, " "
	DCB	0x0, "y", 0x0, "o", 0x0, "u", 0x0, " ", 0x0, "s", 0x0, "e"
	DCB	0x0, "e", 0x0, " ", 0x0, "B", 0x0, "l", 0x0, "u", 0x0, "e"
	DCB	0x0, " ", 0x0, "f", 0x0, "i", 0x0, "l", 0x0, "l", 0x0, "."
	DCB	0x0, 0xd, 0x0, 0xa, 0x0, 0x0, 0x0	; `string'
; Function compile flags: /Ogspy

  00000			 AREA	 |.text|, CODE, ARM

  00000		 |ShowTestBlue| PROC

; 1388 : {

  00000		 |$LN20@ShowTestBl@2|
  00000	e92d4ff0	 stmdb       sp!, {r4 - r11, lr}
  00004	e24dd018	 sub         sp, sp, #0x18
  00008		 |$M50496|
  00008	e1a06001	 mov         r6, r1
  0000c	e1a05000	 mov         r5, r0

; 1389 :     HANDLE  hFlash = NULL;
; 1390 :     DWORD	framebuffer;
; 1391 :     DWORD	framebufferPA;
; 1392 :     PUCHAR  pChar;
; 1393 :     ULONG   x, y;
; 1394 :     WORD	wSignature = 0;

  00010	e3a03000	 mov         r3, #0

; 1395 :     DWORD   dwOffset = 0;

  00014	e3a02000	 mov         r2, #0
  00018	e1cd30b4	 strh        r3, [sp, #4]
  0001c	e58d2010	 str         r2, [sp, #0x10]

; 1396 :     DWORD   dwLcdWidth, dwLcdHeight;
; 1397 :     DWORD   dwLength;
; 1398 :    //DWORD   d5Sec = 5000000;
; 1399 :     //DWORD   sleep5sec = 5000;
; 1400 :     
; 1401 :     //  Get the LCD width and height
; 1402 :     LcdPdd_LCD_GetMode( NULL, &dwLcdWidth, &dwLcdHeight, NULL );

  00020	e3a03000	 mov         r3, #0
  00024	e28d200c	 add         r2, sp, #0xC
  00028	e28d1008	 add         r1, sp, #8
  0002c	e3a00000	 mov         r0, #0
  00030	eb000000	 bl          LcdPdd_LCD_GetMode

; 1403 : 	
; 1404 :     dwLength = BYTES_PER_PIXEL * LOGO_WIDTH * LOGO_HEIGHT;
; 1405 : 
; 1406 :     //  Get the video memory
; 1407 :     LcdPdd_GetMemory( NULL, &framebufferPA );

  00034	e28d1014	 add         r1, sp, #0x14
  00038	e3a00000	 mov         r0, #0
  0003c	eb000000	 bl          LcdPdd_GetMemory

; 1408 :     framebuffer = (DWORD) OALPAtoUA(framebufferPA);

  00040	e59d0014	 ldr         r0, [sp, #0x14]
  00044	e3a01000	 mov         r1, #0
  00048	eb000000	 bl          OALPAtoVA

; 1409 :     pChar = (PUCHAR)framebuffer;
; 1410 :     
; 1411 :     if (flashAddr != -1)

  0004c	e59f7184	 ldr         r7, [pc, #0x184]
  00050	e59f817c	 ldr         r8, [pc, #0x17C]
  00054	e59f9174	 ldr         r9, [pc, #0x174]
  00058	e59fa16c	 ldr         r10, [pc, #0x16C]
  0005c	e1a04000	 mov         r4, r0
  00060	e3a0b000	 mov         r11, #0
  00064	e3750001	 cmn         r5, #1
  00068	0a00002e	 beq         |$LN8@ShowTestBl@2|

; 1412 :     {
; 1413 :         // Open flash storage
; 1414 :         hFlash = OALFlashStoreOpen(flashAddr);

  0006c	e1a00005	 mov         r0, r5
  00070	eb000000	 bl          OALFlashStoreOpen
  00074	e1b05000	 movs        r5, r0

; 1415 :         if( hFlash != NULL )

  00078	0a00002a	 beq         |$LN8@ShowTestBl@2|

; 1416 :         {
; 1417 :             //  The LOGO reserved NAND flash region contains the BMP file
; 1418 :             OALFlashStoreBufferedRead( hFlash, offset, (UCHAR*) &wSignature, sizeof(wSignature), FALSE );

  0007c	e3a03002	 mov         r3, #2
  00080	e28d2004	 add         r2, sp, #4
  00084	e1a01006	 mov         r1, r6
  00088	e1a00005	 mov         r0, r5
  0008c	e58db000	 str         r11, [sp]
  00090	eb000000	 bl          OALFlashStoreBufferedRead

; 1419 : 
; 1420 :             //  Check for 'BM' signature
; 1421 :             if( wSignature == 0x4D42 )  

  00094	e1dd20b4	 ldrh        r2, [sp, #4]
  00098	e3a03c4d	 mov         r3, #0x4D, 24
  0009c	e3833042	 orr         r3, r3, #0x42
  000a0	e1520003	 cmp         r2, r3
  000a4	1a00000c	 bne         |$LN7@ShowTestBl@2|

; 1422 :             {
; 1423 :                 //  Read the offset to the pixel data
; 1424 :                 OALFlashStoreBufferedRead( hFlash, offset + 10, (UCHAR*) &dwOffset, sizeof(dwOffset), FALSE );

  000a8	e3a03004	 mov         r3, #4
  000ac	e28d2010	 add         r2, sp, #0x10
  000b0	e286100a	 add         r1, r6, #0xA
  000b4	e1a00005	 mov         r0, r5
  000b8	e58db000	 str         r11, [sp]
  000bc	eb000000	 bl          OALFlashStoreBufferedRead

; 1425 : 
; 1426 :                 //  Read the pixel data with the given offset
; 1427 :                 OALFlashStoreBufferedRead( hFlash, offset + dwOffset, pChar, dwLength, FALSE );

  000c0	e59d1010	 ldr         r1, [sp, #0x10]
  000c4	e3a03be1	 mov         r3, #0xE1, 22
  000c8	e1a02004	 mov         r2, r4
  000cc	e0811006	 add         r1, r1, r6
  000d0	e1a00005	 mov         r0, r5
  000d4	e58db000	 str         r11, [sp]
  000d8	eb000000	 bl          OALFlashStoreBufferedRead
  000dc		 |$LN7@ShowTestBl@2|

; 1428 :             }
; 1429 :            
; 1430 :             //  Close store
; 1431 :             OALFlashStoreClose(hFlash);

  000dc	e1a00005	 mov         r0, r5
  000e0	eb000000	 bl          OALFlashStoreClose

; 1432 :         
; 1433 :             //  Compute position and size of logo image 
; 1434 :             g_dwLogoPosX   = (dwLcdWidth - LOGO_WIDTH)/2;

  000e4	e59d3008	 ldr         r3, [sp, #8]

; 1435 :             g_dwLogoPosY   = (dwLcdHeight - LOGO_HEIGHT)/2;

  000e8	e59d200c	 ldr         r2, [sp, #0xC]

; 1436 :             g_dwLogoWidth  = LOGO_WIDTH;

  000ec	e3a050f0	 mov         r5, #0xF0
  000f0	e24330f0	 sub         r3, r3, #0xF0
  000f4	e2422d05	 sub         r2, r2, #5, 26
  000f8	e1a030a3	 mov         r3, r3, lsr #1
  000fc	e1a020a2	 mov         r2, r2, lsr #1

; 1437 :             g_dwLogoHeight = LOGO_HEIGHT;

  00100	e58a3000	 str         r3, [r10]
  00104	e5892000	 str         r2, [r9]
  00108	e3a0ed05	 mov         lr, #5, 26

; 1438 :             
; 1439 :             //As BMP are stored upside down, we need to flip the frame buffer's content
; 1440 :             FlipFrameBuffer((PUCHAR)framebuffer,LOGO_HEIGHT,LOGO_WIDTH*BYTES_PER_PIXEL,(PUCHAR)framebuffer + dwLength);

  0010c	e2843be1	 add         r3, r4, #0xE1, 22
  00110	e3a02e2d	 mov         r2, #0x2D, 28
  00114	e3a01d05	 mov         r1, #5, 26
  00118	e1a00004	 mov         r0, r4
  0011c	e5885000	 str         r5, [r8]
  00120	e587e000	 str         lr, [r7]
  00124	eb000000	 bl          FlipFrameBuffer
  00128		 |$LN8@ShowTestBl@2|

; 1441 :         }
; 1442 :     }
; 1443 : 
; 1444 :     //  Adjust color bars to LCD size
; 1445 :     g_dwLogoPosX   = 0;
; 1446 :     g_dwLogoPosY   = 0;
; 1447 :     g_dwLogoWidth  = dwLcdWidth;

  00128	e59d3008	 ldr         r3, [sp, #8]

; 1448 :     g_dwLogoHeight = dwLcdHeight;

  0012c	e59d200c	 ldr         r2, [sp, #0xC]

; 1449 : 
; 1450 :     OALLog(L"\r !Can you see Blue fill.\r\n");

  00130	e59f0090	 ldr         r0, [pc, #0x90]
  00134	e3a01000	 mov         r1, #0
  00138	e3a0e000	 mov         lr, #0
  0013c	e5883000	 str         r3, [r8]
  00140	e5872000	 str         r2, [r7]
  00144	e58a1000	 str         r1, [r10]
  00148	e589e000	 str         lr, [r9]
  0014c	eb000000	 bl          NKDbgPrintfW

; 1451 :     for (y= 0; y < dwLcdHeight; y++)

  00150	e59d000c	 ldr         r0, [sp, #0xC]
  00154	e3a01000	 mov         r1, #0
  00158	e3500000	 cmp         r0, #0
  0015c	0a00000f	 beq         |$LN4@ShowTestBl@2|
  00160	e59d3008	 ldr         r3, [sp, #8]
  00164	e3a0e0ff	 mov         lr, #0xFF
  00168		 |$LL6@ShowTestBl@2|

; 1452 :     {
; 1453 :         for( x = 0; x < dwLcdWidth; x++ )

  00168	e3a02000	 mov         r2, #0
  0016c	e3530000	 cmp         r3, #0
  00170	0a000007	 beq         |$LN5@ShowTestBl@2|
  00174		 |$LL3@ShowTestBl@2|

; 1454 :         {
; 1455 :             *pChar++ = 0xFF;    //  Blue

  00174	e4c4e001	 strb        lr, [r4], #1
  00178	e2822001	 add         r2, r2, #1

; 1456 :             *pChar++ = 0x00;    //  Green

  0017c	e4c4b001	 strb        r11, [r4], #1

; 1457 :             *pChar++ = 0x00;    //  Red

  00180	e4c4b001	 strb        r11, [r4], #1
  00184	e59d3008	 ldr         r3, [sp, #8]
  00188	e1520003	 cmp         r2, r3
  0018c	3afffff8	 bcc         |$LL3@ShowTestBl@2|

; 1452 :     {
; 1453 :         for( x = 0; x < dwLcdWidth; x++ )

  00190	e59d000c	 ldr         r0, [sp, #0xC]
  00194		 |$LN5@ShowTestBl@2|

; 1451 :     for (y= 0; y < dwLcdHeight; y++)

  00194	e2811001	 add         r1, r1, #1
  00198	e1510000	 cmp         r1, r0
  0019c	3afffff1	 bcc         |$LL6@ShowTestBl@2|
  001a0		 |$LN4@ShowTestBl@2|

; 1458 :         }
; 1459 :     }
; 1460 :     LcdStall(g_d3Sec);

  001a0	e59f301c	 ldr         r3, [pc, #0x1C]
  001a4	e5930000	 ldr         r0, [r3]
  001a8	eb000000	 bl          OALStall

; 1461 :     
; 1462 :     ShowTestBlack((UINT32)-1, 0);

  001ac	e3a01000	 mov         r1, #0
  001b0	e3e00000	 mvn         r0, #0
  001b4	eb000000	 bl          ShowTestBlack

; 1463 : }

  001b8	e28dd018	 add         sp, sp, #0x18
  001bc	e8bd4ff0	 ldmia       sp!, {r4 - r11, lr}
  001c0	e12fff1e	 bx          lr
  001c4		 |$LN21@ShowTestBl@2|
  001c4		 |$LN22@ShowTestBl@2|
  001c4	00000000	 DCD         |g_d3Sec|
  001c8		 |$LN23@ShowTestBl@2|
  001c8	00000000	 DCD         |??_C@_1DI@DFLBLJEC@?$AA?$AN?$AA?5?$AA?$CB?$AAC?$AAa?$AAn?$AA?5?$AAy?$AAo?$AAu?$AA?5?$AAs?$AAe?$AAe?$AA?5?$AAB?$AAl?$AAu?$AAe?$AA?5?$AAf?$AAi?$AAl?$AAl?$AA?4?$AA?$AN?$AA?6?$AA?$AA@|
  001cc		 |$LN24@ShowTestBl@2|
  001cc	00000000	 DCD         |g_dwLogoPosX|
  001d0		 |$LN25@ShowTestBl@2|
  001d0	00000000	 DCD         |g_dwLogoPosY|
  001d4		 |$LN26@ShowTestBl@2|
  001d4	00000000	 DCD         |g_dwLogoWidth|
  001d8		 |$LN27@ShowTestBl@2|
  001d8	00000000	 DCD         |g_dwLogoHeight|
  001dc		 |$M50497|

			 ENDP  ; |ShowTestBlue|

	EXPORT	|ShowTestGreen|
	EXPORT	|??_C@_1DK@MFOIICAI@?$AA?$AN?$AA?5?$AA?$CB?$AAC?$AAa?$AAn?$AA?5?$AAy?$AAo?$AAu?$AA?5?$AAs?$AAe?$AAe?$AA?5?$AAG?$AAr?$AAe?$AAe?$AAn?$AA?5?$AAf?$AAi?$AAl?$AAl?$AA?4?$AA?$AN?$AA?6?$AA?$AA@| [ DATA ] ; `string'

  00000			 AREA	 |.pdata|, PDATA
|$T50530| DCD	|$LN20@ShowTestGr|
	DCD	0x40007702

  00000			 AREA	 |.rdata|, DATA, READONLY
|??_C@_1DK@MFOIICAI@?$AA?$AN?$AA?5?$AA?$CB?$AAC?$AAa?$AAn?$AA?5?$AAy?$AAo?$AAu?$AA?5?$AAs?$AAe?$AAe?$AA?5?$AAG?$AAr?$AAe?$AAe?$AAn?$AA?5?$AAf?$AAi?$AAl?$AAl?$AA?4?$AA?$AN?$AA?6?$AA?$AA@| DCB 0xd
	DCB	0x0, " ", 0x0, "!", 0x0, "C", 0x0, "a", 0x0, "n", 0x0, " "
	DCB	0x0, "y", 0x0, "o", 0x0, "u", 0x0, " ", 0x0, "s", 0x0, "e"
	DCB	0x0, "e", 0x0, " ", 0x0, "G", 0x0, "r", 0x0, "e", 0x0, "e"
	DCB	0x0, "n", 0x0, " ", 0x0, "f", 0x0, "i", 0x0, "l", 0x0, "l"
	DCB	0x0, ".", 0x0, 0xd, 0x0, 0xa, 0x0, 0x0, 0x0 ; `string'
; Function compile flags: /Ogspy

  00000			 AREA	 |.text|, CODE, ARM

  00000		 |ShowTestGreen| PROC

; 1470 : {

  00000		 |$LN20@ShowTestGr|
  00000	e92d4ff0	 stmdb       sp!, {r4 - r11, lr}
  00004	e24dd018	 sub         sp, sp, #0x18
  00008		 |$M50527|
  00008	e1a06001	 mov         r6, r1
  0000c	e1a05000	 mov         r5, r0

; 1471 :     HANDLE  hFlash = NULL;
; 1472 :     DWORD	framebuffer;
; 1473 :     DWORD	framebufferPA;
; 1474 :     PUCHAR  pChar;
; 1475 :     ULONG   x, y;
; 1476 :     WORD	wSignature = 0;

  00010	e3a03000	 mov         r3, #0

; 1477 :     DWORD   dwOffset = 0;

  00014	e3a02000	 mov         r2, #0
  00018	e1cd30b4	 strh        r3, [sp, #4]
  0001c	e58d2010	 str         r2, [sp, #0x10]

; 1478 :     DWORD   dwLcdWidth, dwLcdHeight;
; 1479 :     DWORD   dwLength;
; 1480 :     //DWORD   d5Sec = 5000000;
; 1481 :     //DWORD   sleep5sec = 5000;
; 1482 :     
; 1483 :     //  Get the LCD width and height
; 1484 :     LcdPdd_LCD_GetMode( NULL, &dwLcdWidth, &dwLcdHeight, NULL );

  00020	e3a03000	 mov         r3, #0
  00024	e28d200c	 add         r2, sp, #0xC
  00028	e28d1008	 add         r1, sp, #8
  0002c	e3a00000	 mov         r0, #0
  00030	eb000000	 bl          LcdPdd_LCD_GetMode

; 1485 : 	
; 1486 :     dwLength = BYTES_PER_PIXEL * LOGO_WIDTH * LOGO_HEIGHT;
; 1487 : 
; 1488 :     //  Get the video memory
; 1489 :     LcdPdd_GetMemory( NULL, &framebufferPA );

  00034	e28d1014	 add         r1, sp, #0x14
  00038	e3a00000	 mov         r0, #0
  0003c	eb000000	 bl          LcdPdd_GetMemory

; 1490 :     framebuffer = (DWORD) OALPAtoUA(framebufferPA);

  00040	e59d0014	 ldr         r0, [sp, #0x14]
  00044	e3a01000	 mov         r1, #0
  00048	eb000000	 bl          OALPAtoVA

; 1491 :     pChar = (PUCHAR)framebuffer;
; 1492 :     
; 1493 :     if (flashAddr != -1)

  0004c	e59f7184	 ldr         r7, [pc, #0x184]
  00050	e59f817c	 ldr         r8, [pc, #0x17C]
  00054	e59f9174	 ldr         r9, [pc, #0x174]
  00058	e59fa16c	 ldr         r10, [pc, #0x16C]
  0005c	e1a04000	 mov         r4, r0
  00060	e3a0b000	 mov         r11, #0
  00064	e3750001	 cmn         r5, #1
  00068	0a00002e	 beq         |$LN8@ShowTestGr|

; 1494 :     {
; 1495 :         // Open flash storage
; 1496 :         hFlash = OALFlashStoreOpen(flashAddr);

  0006c	e1a00005	 mov         r0, r5
  00070	eb000000	 bl          OALFlashStoreOpen
  00074	e1b05000	 movs        r5, r0

; 1497 :         if( hFlash != NULL )

  00078	0a00002a	 beq         |$LN8@ShowTestGr|

; 1498 :         {
; 1499 :             //  The LOGO reserved NAND flash region contains the BMP file
; 1500 :             OALFlashStoreBufferedRead( hFlash, offset, (UCHAR*) &wSignature, sizeof(wSignature), FALSE );

  0007c	e3a03002	 mov         r3, #2
  00080	e28d2004	 add         r2, sp, #4
  00084	e1a01006	 mov         r1, r6
  00088	e1a00005	 mov         r0, r5
  0008c	e58db000	 str         r11, [sp]
  00090	eb000000	 bl          OALFlashStoreBufferedRead

; 1501 : 
; 1502 :             //  Check for 'BM' signature
; 1503 :             if( wSignature == 0x4D42 )  

  00094	e1dd20b4	 ldrh        r2, [sp, #4]
  00098	e3a03c4d	 mov         r3, #0x4D, 24
  0009c	e3833042	 orr         r3, r3, #0x42
  000a0	e1520003	 cmp         r2, r3
  000a4	1a00000c	 bne         |$LN7@ShowTestGr|

; 1504 :             {
; 1505 :                 //  Read the offset to the pixel data
; 1506 :                 OALFlashStoreBufferedRead( hFlash, offset + 10, (UCHAR*) &dwOffset, sizeof(dwOffset), FALSE );

  000a8	e3a03004	 mov         r3, #4
  000ac	e28d2010	 add         r2, sp, #0x10
  000b0	e286100a	 add         r1, r6, #0xA
  000b4	e1a00005	 mov         r0, r5
  000b8	e58db000	 str         r11, [sp]
  000bc	eb000000	 bl          OALFlashStoreBufferedRead

; 1507 : 
; 1508 :                 //  Read the pixel data with the given offset
; 1509 :                 OALFlashStoreBufferedRead( hFlash, offset + dwOffset, pChar, dwLength, FALSE );

  000c0	e59d1010	 ldr         r1, [sp, #0x10]
  000c4	e3a03be1	 mov         r3, #0xE1, 22
  000c8	e1a02004	 mov         r2, r4
  000cc	e0811006	 add         r1, r1, r6
  000d0	e1a00005	 mov         r0, r5
  000d4	e58db000	 str         r11, [sp]
  000d8	eb000000	 bl          OALFlashStoreBufferedRead
  000dc		 |$LN7@ShowTestGr|

; 1510 :             }
; 1511 :            
; 1512 :             //  Close store
; 1513 :             OALFlashStoreClose(hFlash);

  000dc	e1a00005	 mov         r0, r5
  000e0	eb000000	 bl          OALFlashStoreClose

; 1514 :         
; 1515 :             //  Compute position and size of logo image 
; 1516 :             g_dwLogoPosX   = (dwLcdWidth - LOGO_WIDTH)/2;

  000e4	e59d3008	 ldr         r3, [sp, #8]

; 1517 :             g_dwLogoPosY   = (dwLcdHeight - LOGO_HEIGHT)/2;

  000e8	e59d200c	 ldr         r2, [sp, #0xC]

; 1518 :             g_dwLogoWidth  = LOGO_WIDTH;

  000ec	e3a050f0	 mov         r5, #0xF0
  000f0	e24330f0	 sub         r3, r3, #0xF0
  000f4	e2422d05	 sub         r2, r2, #5, 26
  000f8	e1a030a3	 mov         r3, r3, lsr #1
  000fc	e1a020a2	 mov         r2, r2, lsr #1

; 1519 :             g_dwLogoHeight = LOGO_HEIGHT;

  00100	e58a3000	 str         r3, [r10]
  00104	e5892000	 str         r2, [r9]
  00108	e3a0ed05	 mov         lr, #5, 26

; 1520 :             
; 1521 :             //As BMP are stored upside down, we need to flip the frame buffer's content
; 1522 :             FlipFrameBuffer((PUCHAR)framebuffer,LOGO_HEIGHT,LOGO_WIDTH*BYTES_PER_PIXEL,(PUCHAR)framebuffer + dwLength);

  0010c	e2843be1	 add         r3, r4, #0xE1, 22
  00110	e3a02e2d	 mov         r2, #0x2D, 28
  00114	e3a01d05	 mov         r1, #5, 26
  00118	e1a00004	 mov         r0, r4
  0011c	e5885000	 str         r5, [r8]
  00120	e587e000	 str         lr, [r7]
  00124	eb000000	 bl          FlipFrameBuffer
  00128		 |$LN8@ShowTestGr|

; 1523 :         }
; 1524 :     }
; 1525 : 
; 1526 :     //  Adjust color bars to LCD size
; 1527 :     g_dwLogoPosX   = 0;
; 1528 :     g_dwLogoPosY   = 0;
; 1529 :     g_dwLogoWidth  = dwLcdWidth;

  00128	e59d3008	 ldr         r3, [sp, #8]

; 1530 :     g_dwLogoHeight = dwLcdHeight;

  0012c	e59d200c	 ldr         r2, [sp, #0xC]

; 1531 : 
; 1532 :     OALLog(L"\r !Can you see Green fill.\r\n");

  00130	e59f0090	 ldr         r0, [pc, #0x90]
  00134	e3a01000	 mov         r1, #0
  00138	e3a0e000	 mov         lr, #0
  0013c	e5883000	 str         r3, [r8]
  00140	e5872000	 str         r2, [r7]
  00144	e58a1000	 str         r1, [r10]
  00148	e589e000	 str         lr, [r9]
  0014c	eb000000	 bl          NKDbgPrintfW

; 1533 :     for (y= 0; y < dwLcdHeight; y++)

  00150	e59d000c	 ldr         r0, [sp, #0xC]
  00154	e3a01000	 mov         r1, #0
  00158	e3500000	 cmp         r0, #0
  0015c	0a00000f	 beq         |$LN4@ShowTestGr|
  00160	e59d3008	 ldr         r3, [sp, #8]
  00164	e3a0e0ff	 mov         lr, #0xFF
  00168		 |$LL6@ShowTestGr|

; 1534 :     {
; 1535 :         for( x = 0; x < dwLcdWidth; x++ )

  00168	e3a02000	 mov         r2, #0
  0016c	e3530000	 cmp         r3, #0
  00170	0a000007	 beq         |$LN5@ShowTestGr|
  00174		 |$LL3@ShowTestGr|

; 1536 :         {
; 1537 :             *pChar++ = 0x00;    //  Blue

  00174	e4c4b001	 strb        r11, [r4], #1
  00178	e2822001	 add         r2, r2, #1

; 1538 :             *pChar++ = 0xFF;    //  Green

  0017c	e4c4e001	 strb        lr, [r4], #1

; 1539 :             *pChar++ = 0x00;    //  Red

  00180	e4c4b001	 strb        r11, [r4], #1
  00184	e59d3008	 ldr         r3, [sp, #8]
  00188	e1520003	 cmp         r2, r3
  0018c	3afffff8	 bcc         |$LL3@ShowTestGr|

; 1534 :     {
; 1535 :         for( x = 0; x < dwLcdWidth; x++ )

  00190	e59d000c	 ldr         r0, [sp, #0xC]
  00194		 |$LN5@ShowTestGr|

; 1533 :     for (y= 0; y < dwLcdHeight; y++)

  00194	e2811001	 add         r1, r1, #1
  00198	e1510000	 cmp         r1, r0
  0019c	3afffff1	 bcc         |$LL6@ShowTestGr|
  001a0		 |$LN4@ShowTestGr|

; 1540 :         }
; 1541 :     }
; 1542 :     LcdStall(g_d3Sec);

  001a0	e59f301c	 ldr         r3, [pc, #0x1C]
  001a4	e5930000	 ldr         r0, [r3]
  001a8	eb000000	 bl          OALStall

; 1543 :     
; 1544 :     ShowTestBlue((UINT32)-1, 0);

  001ac	e3a01000	 mov         r1, #0
  001b0	e3e00000	 mvn         r0, #0
  001b4	eb000000	 bl          ShowTestBlue

; 1545 : }

  001b8	e28dd018	 add         sp, sp, #0x18
  001bc	e8bd4ff0	 ldmia       sp!, {r4 - r11, lr}
  001c0	e12fff1e	 bx          lr
  001c4		 |$LN21@ShowTestGr|
  001c4		 |$LN22@ShowTestGr|
  001c4	00000000	 DCD         |g_d3Sec|
  001c8		 |$LN23@ShowTestGr|
  001c8	00000000	 DCD         |??_C@_1DK@MFOIICAI@?$AA?$AN?$AA?5?$AA?$CB?$AAC?$AAa?$AAn?$AA?5?$AAy?$AAo?$AAu?$AA?5?$AAs?$AAe?$AAe?$AA?5?$AAG?$AAr?$AAe?$AAe?$AAn?$AA?5?$AAf?$AAi?$AAl?$AAl?$AA?4?$AA?$AN?$AA?6?$AA?$AA@|
  001cc		 |$LN24@ShowTestGr|
  001cc	00000000	 DCD         |g_dwLogoPosX|
  001d0		 |$LN25@ShowTestGr|
  001d0	00000000	 DCD         |g_dwLogoPosY|
  001d4		 |$LN26@ShowTestGr|
  001d4	00000000	 DCD         |g_dwLogoWidth|
  001d8		 |$LN27@ShowTestGr|
  001d8	00000000	 DCD         |g_dwLogoHeight|
  001dc		 |$M50528|

			 ENDP  ; |ShowTestGreen|

	EXPORT	|ShowTest|
	EXPORT	|??_C@_1DG@POCILPFM@?$AA?$AN?$AA?5?$AA?$CB?$AAC?$AAa?$AAn?$AA?5?$AAy?$AAo?$AAu?$AA?5?$AAs?$AAe?$AAe?$AA?5?$AAR?$AAe?$AAd?$AA?5?$AAf?$AAi?$AAl?$AAl?$AA?4?$AA?$AN?$AA?6?$AA?$AA@| [ DATA ] ; `string'

  00000			 AREA	 |.pdata|, PDATA
|$T50561| DCD	|$LN20@ShowTest|
	DCD	0x40007702

  00000			 AREA	 |.rdata|, DATA, READONLY
|??_C@_1DG@POCILPFM@?$AA?$AN?$AA?5?$AA?$CB?$AAC?$AAa?$AAn?$AA?5?$AAy?$AAo?$AAu?$AA?5?$AAs?$AAe?$AAe?$AA?5?$AAR?$AAe?$AAd?$AA?5?$AAf?$AAi?$AAl?$AAl?$AA?4?$AA?$AN?$AA?6?$AA?$AA@| DCB 0xd
	DCB	0x0, " ", 0x0, "!", 0x0, "C", 0x0, "a", 0x0, "n", 0x0, " "
	DCB	0x0, "y", 0x0, "o", 0x0, "u", 0x0, " ", 0x0, "s", 0x0, "e"
	DCB	0x0, "e", 0x0, " ", 0x0, "R", 0x0, "e", 0x0, "d", 0x0, " "
	DCB	0x0, "f", 0x0, "i", 0x0, "l", 0x0, "l", 0x0, ".", 0x0, 0xd
	DCB	0x0, 0xa, 0x0, 0x0, 0x0			; `string'
; Function compile flags: /Ogspy

  00000			 AREA	 |.text|, CODE, ARM

  00000		 |ShowTest| PROC

; 1552 : {

  00000		 |$LN20@ShowTest|
  00000	e92d4ff0	 stmdb       sp!, {r4 - r11, lr}
  00004	e24dd018	 sub         sp, sp, #0x18
  00008		 |$M50558|
  00008	e1a06001	 mov         r6, r1
  0000c	e1a05000	 mov         r5, r0

; 1553 :     HANDLE  hFlash = NULL;
; 1554 :     DWORD	framebuffer;
; 1555 :     DWORD	framebufferPA;
; 1556 :     PUCHAR  pChar;
; 1557 :     ULONG   x, y;
; 1558 :     WORD	wSignature = 0;

  00010	e3a03000	 mov         r3, #0

; 1559 :     DWORD   dwOffset = 0;

  00014	e3a02000	 mov         r2, #0
  00018	e1cd30b4	 strh        r3, [sp, #4]
  0001c	e58d2010	 str         r2, [sp, #0x10]

; 1560 :     DWORD   dwLcdWidth, dwLcdHeight;
; 1561 :     DWORD   dwLength;
; 1562 :     //DWORD   d5Sec = 5000000;
; 1563 :     //DWORD   sleep5sec = 5000;
; 1564 :     //int n_board = board;
; 1565 :     
; 1566 :     //  Get the LCD width and height
; 1567 :     LcdPdd_LCD_GetMode( NULL, &dwLcdWidth, &dwLcdHeight, NULL );

  00020	e3a03000	 mov         r3, #0
  00024	e28d200c	 add         r2, sp, #0xC
  00028	e28d1008	 add         r1, sp, #8
  0002c	e3a00000	 mov         r0, #0
  00030	eb000000	 bl          LcdPdd_LCD_GetMode

; 1568 : 	
; 1569 :     dwLength = BYTES_PER_PIXEL * LOGO_WIDTH * LOGO_HEIGHT;
; 1570 : 
; 1571 :     //  Get the video memory
; 1572 :     LcdPdd_GetMemory( NULL, &framebufferPA );   //Get memory display buffer size, Ray 131107

  00034	e28d1014	 add         r1, sp, #0x14
  00038	e3a00000	 mov         r0, #0
  0003c	eb000000	 bl          LcdPdd_GetMemory

; 1573 :     framebuffer = (DWORD) OALPAtoUA(framebufferPA);

  00040	e59d0014	 ldr         r0, [sp, #0x14]
  00044	e3a01000	 mov         r1, #0
  00048	eb000000	 bl          OALPAtoVA

; 1574 :     pChar = (PUCHAR)framebuffer;
; 1575 :     
; 1576 :     if (flashAddr != -1)

  0004c	e59f7184	 ldr         r7, [pc, #0x184]
  00050	e59f817c	 ldr         r8, [pc, #0x17C]
  00054	e59f9174	 ldr         r9, [pc, #0x174]
  00058	e59fa16c	 ldr         r10, [pc, #0x16C]
  0005c	e1a04000	 mov         r4, r0
  00060	e3a0b000	 mov         r11, #0
  00064	e3750001	 cmn         r5, #1
  00068	0a00002e	 beq         |$LN8@ShowTest|

; 1577 :     {
; 1578 :         // Open flash storage
; 1579 :         hFlash = OALFlashStoreOpen(flashAddr);

  0006c	e1a00005	 mov         r0, r5
  00070	eb000000	 bl          OALFlashStoreOpen
  00074	e1b05000	 movs        r5, r0

; 1580 :         if( hFlash != NULL )

  00078	0a00002a	 beq         |$LN8@ShowTest|

; 1581 :         {
; 1582 :             //  The LOGO reserved NAND flash region contains the BMP file
; 1583 :             OALFlashStoreBufferedRead( hFlash, offset, (UCHAR*) &wSignature, sizeof(wSignature), FALSE );

  0007c	e3a03002	 mov         r3, #2
  00080	e28d2004	 add         r2, sp, #4
  00084	e1a01006	 mov         r1, r6
  00088	e1a00005	 mov         r0, r5
  0008c	e58db000	 str         r11, [sp]
  00090	eb000000	 bl          OALFlashStoreBufferedRead

; 1584 : 
; 1585 :             //  Check for 'BM' signature
; 1586 :             if( wSignature == 0x4D42 )  

  00094	e1dd20b4	 ldrh        r2, [sp, #4]
  00098	e3a03c4d	 mov         r3, #0x4D, 24
  0009c	e3833042	 orr         r3, r3, #0x42
  000a0	e1520003	 cmp         r2, r3
  000a4	1a00000c	 bne         |$LN7@ShowTest|

; 1587 :             {
; 1588 :                 //  Read the offset to the pixel data
; 1589 :                 OALFlashStoreBufferedRead( hFlash, offset + 10, (UCHAR*) &dwOffset, sizeof(dwOffset), FALSE );

  000a8	e3a03004	 mov         r3, #4
  000ac	e28d2010	 add         r2, sp, #0x10
  000b0	e286100a	 add         r1, r6, #0xA
  000b4	e1a00005	 mov         r0, r5
  000b8	e58db000	 str         r11, [sp]
  000bc	eb000000	 bl          OALFlashStoreBufferedRead

; 1590 : 
; 1591 :                 //  Read the pixel data with the given offset
; 1592 :                 OALFlashStoreBufferedRead( hFlash, offset + dwOffset, pChar, dwLength, FALSE );

  000c0	e59d1010	 ldr         r1, [sp, #0x10]
  000c4	e3a03be1	 mov         r3, #0xE1, 22
  000c8	e1a02004	 mov         r2, r4
  000cc	e0811006	 add         r1, r1, r6
  000d0	e1a00005	 mov         r0, r5
  000d4	e58db000	 str         r11, [sp]
  000d8	eb000000	 bl          OALFlashStoreBufferedRead
  000dc		 |$LN7@ShowTest|

; 1593 :             }
; 1594 :            
; 1595 :             //  Close store
; 1596 :             OALFlashStoreClose(hFlash);

  000dc	e1a00005	 mov         r0, r5
  000e0	eb000000	 bl          OALFlashStoreClose

; 1597 :         
; 1598 :             //  Compute position and size of logo image 
; 1599 :             g_dwLogoPosX   = (dwLcdWidth - LOGO_WIDTH)/2;

  000e4	e59d3008	 ldr         r3, [sp, #8]

; 1600 :             g_dwLogoPosY   = (dwLcdHeight - LOGO_HEIGHT)/2;

  000e8	e59d200c	 ldr         r2, [sp, #0xC]

; 1601 :             g_dwLogoWidth  = LOGO_WIDTH;

  000ec	e3a050f0	 mov         r5, #0xF0
  000f0	e24330f0	 sub         r3, r3, #0xF0
  000f4	e2422d05	 sub         r2, r2, #5, 26
  000f8	e1a030a3	 mov         r3, r3, lsr #1
  000fc	e1a020a2	 mov         r2, r2, lsr #1

; 1602 :             g_dwLogoHeight = LOGO_HEIGHT;

  00100	e58a3000	 str         r3, [r10]
  00104	e5892000	 str         r2, [r9]
  00108	e3a0ed05	 mov         lr, #5, 26

; 1603 :             
; 1604 :             //As BMP are stored upside down, we need to flip the frame buffer's content
; 1605 :             FlipFrameBuffer((PUCHAR)framebuffer,LOGO_HEIGHT,LOGO_WIDTH*BYTES_PER_PIXEL,(PUCHAR)framebuffer + dwLength);

  0010c	e2843be1	 add         r3, r4, #0xE1, 22
  00110	e3a02e2d	 mov         r2, #0x2D, 28
  00114	e3a01d05	 mov         r1, #5, 26
  00118	e1a00004	 mov         r0, r4
  0011c	e5885000	 str         r5, [r8]
  00120	e587e000	 str         lr, [r7]
  00124	eb000000	 bl          FlipFrameBuffer
  00128		 |$LN8@ShowTest|

; 1606 :         }
; 1607 :     }
; 1608 : 
; 1609 :     //  Adjust color bars to LCD size
; 1610 :     g_dwLogoPosX   = 0;
; 1611 :     g_dwLogoPosY   = 0;
; 1612 :     g_dwLogoWidth  = dwLcdWidth;

  00128	e59d3008	 ldr         r3, [sp, #8]

; 1613 :     g_dwLogoHeight = dwLcdHeight;

  0012c	e59d200c	 ldr         r2, [sp, #0xC]

; 1614 : 
; 1615 :     OALLog(L"\r !Can you see Red fill.\r\n");

  00130	e59f0090	 ldr         r0, [pc, #0x90]
  00134	e3a01000	 mov         r1, #0
  00138	e3a0e000	 mov         lr, #0
  0013c	e5883000	 str         r3, [r8]
  00140	e5872000	 str         r2, [r7]
  00144	e58a1000	 str         r1, [r10]
  00148	e589e000	 str         lr, [r9]
  0014c	eb000000	 bl          NKDbgPrintfW

; 1616 :     for (y= 0; y < dwLcdHeight; y++)

  00150	e59d000c	 ldr         r0, [sp, #0xC]
  00154	e3a01000	 mov         r1, #0
  00158	e3500000	 cmp         r0, #0
  0015c	0a00000f	 beq         |$LN4@ShowTest|
  00160	e59d3008	 ldr         r3, [sp, #8]
  00164	e3a0e0ff	 mov         lr, #0xFF
  00168		 |$LL6@ShowTest|

; 1617 :     {
; 1618 :         for( x = 0; x < dwLcdWidth; x++ )

  00168	e3a02000	 mov         r2, #0
  0016c	e3530000	 cmp         r3, #0
  00170	0a000007	 beq         |$LN5@ShowTest|
  00174		 |$LL3@ShowTest|

; 1619 :         {
; 1620 :             //if(y < dwLcdHeight/2)
; 1621 :             //{
; 1622 :                 *pChar++ = 0x00;    //  Blue    ;SO.. Start Addressing = 0, Ray 131107

  00174	e4c4b001	 strb        r11, [r4], #1
  00178	e2822001	 add         r2, r2, #1

; 1623 :                 *pChar++ = 0x00;    //  Green   ;SO.. Start Addressing = 1

  0017c	e4c4b001	 strb        r11, [r4], #1

; 1624 :                 *pChar++ = 0xFF;    //  Red     ;SO.. Start Addressing = 2

  00180	e4c4e001	 strb        lr, [r4], #1
  00184	e59d3008	 ldr         r3, [sp, #8]
  00188	e1520003	 cmp         r2, r3
  0018c	3afffff8	 bcc         |$LL3@ShowTest|

; 1617 :     {
; 1618 :         for( x = 0; x < dwLcdWidth; x++ )

  00190	e59d000c	 ldr         r0, [sp, #0xC]
  00194		 |$LN5@ShowTest|

; 1616 :     for (y= 0; y < dwLcdHeight; y++)

  00194	e2811001	 add         r1, r1, #1
  00198	e1510000	 cmp         r1, r0
  0019c	3afffff1	 bcc         |$LL6@ShowTest|
  001a0		 |$LN4@ShowTest|

; 1625 :             /*}else{
; 1626 :                 *pChar++ = 0x00;    //  Blue
; 1627 :                 *pChar++ = 0xFF;    //  Green
; 1628 :                 *pChar++ = 0x00;    //  Red
; 1629 :             }*/
; 1630 :         }
; 1631 :     }
; 1632 :     LcdStall(g_d3Sec);

  001a0	e59f301c	 ldr         r3, [pc, #0x1C]
  001a4	e5930000	 ldr         r0, [r3]
  001a8	eb000000	 bl          OALStall

; 1633 :     
; 1634 :     ShowTestGreen((UINT32)-1, 0);

  001ac	e3a01000	 mov         r1, #0
  001b0	e3e00000	 mvn         r0, #0
  001b4	eb000000	 bl          ShowTestGreen

; 1635 : }

  001b8	e28dd018	 add         sp, sp, #0x18
  001bc	e8bd4ff0	 ldmia       sp!, {r4 - r11, lr}
  001c0	e12fff1e	 bx          lr
  001c4		 |$LN21@ShowTest|
  001c4		 |$LN22@ShowTest|
  001c4	00000000	 DCD         |g_d3Sec|
  001c8		 |$LN23@ShowTest|
  001c8	00000000	 DCD         |??_C@_1DG@POCILPFM@?$AA?$AN?$AA?5?$AA?$CB?$AAC?$AAa?$AAn?$AA?5?$AAy?$AAo?$AAu?$AA?5?$AAs?$AAe?$AAe?$AA?5?$AAR?$AAe?$AAd?$AA?5?$AAf?$AAi?$AAl?$AAl?$AA?4?$AA?$AN?$AA?6?$AA?$AA@|
  001cc		 |$LN24@ShowTest|
  001cc	00000000	 DCD         |g_dwLogoPosX|
  001d0		 |$LN25@ShowTest|
  001d0	00000000	 DCD         |g_dwLogoPosY|
  001d4		 |$LN26@ShowTest|
  001d4	00000000	 DCD         |g_dwLogoWidth|
  001d8		 |$LN27@ShowTest|
  001d8	00000000	 DCD         |g_dwLogoHeight|
  001dc		 |$M50559|

			 ENDP  ; |ShowTest|

	EXPORT	|detect_TSC2046|
	EXPORT	|??_C@_1DA@LBFIOFJH@?$AA?$AN?$AA?5?$AA?$HO?$AA?$HO?$AA?$HO?$AAC?$AAa?$AAl?$AAi?$AAb?$AAr?$AAa?$AAt?$AAi?$AAo?$AAn?$AA?5?$AAO?$AAK?$AA?$CB?$AA?$CB?$AA?$AN?$AA?6?$AA?$AA@| [ DATA ] ; `string'
	EXPORT	|??_C@_1DC@BOMGFCIG@?$AA?$AN?$AA?5?$AAS?$AAt?$AAa?$AAr?$AAt?$AA?5?$AAC?$AAa?$AAl?$AAi?$AAb?$AAr?$AAa?$AAt?$AAi?$AAo?$AAn?$AA?4?$AA?4?$AA?4?$AA?$AN?$AA?6?$AA?$AA@| [ DATA ] ; `string'
	EXPORT	|??_C@_1FA@OGHHCENM@?$AA?$AN?$AA?5?$AAC?$AAo?$AAn?$AAt?$AAi?$AAn?$AAu?$AAe?$AA?5?$AAw?$AAi?$AAt?$AAh?$AA?5?$AAa?$AAn?$AAy?$AA?5?$AAk?$AAe?$AAy?$AA?0?$AA?5?$AA0?$AA?5?$AAa?$AAr?$AAe?$AA?5?$AAE@| [ DATA ] ; `string'
	IMPORT	|OALBLMenuReadKey|

  00000			 AREA	 |.pdata|, PDATA
|$T50610| DCD	|$LN32@detect_TSC|
	DCD	0x40007001

  00000			 AREA	 |.rdata|, DATA, READONLY
|??_C@_1DA@LBFIOFJH@?$AA?$AN?$AA?5?$AA?$HO?$AA?$HO?$AA?$HO?$AAC?$AAa?$AAl?$AAi?$AAb?$AAr?$AAa?$AAt?$AAi?$AAo?$AAn?$AA?5?$AAO?$AAK?$AA?$CB?$AA?$CB?$AA?$AN?$AA?6?$AA?$AA@| DCB 0xd
	DCB	0x0, " ", 0x0, "~", 0x0, "~", 0x0, "~", 0x0, "C", 0x0, "a"
	DCB	0x0, "l", 0x0, "i", 0x0, "b", 0x0, "r", 0x0, "a", 0x0, "t"
	DCB	0x0, "i", 0x0, "o", 0x0, "n", 0x0, " ", 0x0, "O", 0x0, "K"
	DCB	0x0, "!", 0x0, "!", 0x0, 0xd, 0x0, 0xa, 0x0, 0x0, 0x0 ; `string'

  00000			 AREA	 |.rdata|, DATA, READONLY
|??_C@_1DC@BOMGFCIG@?$AA?$AN?$AA?5?$AAS?$AAt?$AAa?$AAr?$AAt?$AA?5?$AAC?$AAa?$AAl?$AAi?$AAb?$AAr?$AAa?$AAt?$AAi?$AAo?$AAn?$AA?4?$AA?4?$AA?4?$AA?$AN?$AA?6?$AA?$AA@| DCB 0xd
	DCB	0x0, " ", 0x0, "S", 0x0, "t", 0x0, "a", 0x0, "r", 0x0, "t"
	DCB	0x0, " ", 0x0, "C", 0x0, "a", 0x0, "l", 0x0, "i", 0x0, "b"
	DCB	0x0, "r", 0x0, "a", 0x0, "t", 0x0, "i", 0x0, "o", 0x0, "n"
	DCB	0x0, ".", 0x0, ".", 0x0, ".", 0x0, 0xd, 0x0, 0xa, 0x0, 0x0
	DCB	0x0					; `string'

  00000			 AREA	 |.rdata|, DATA, READONLY
|??_C@_1FA@OGHHCENM@?$AA?$AN?$AA?5?$AAC?$AAo?$AAn?$AAt?$AAi?$AAn?$AAu?$AAe?$AA?5?$AAw?$AAi?$AAt?$AAh?$AA?5?$AAa?$AAn?$AAy?$AA?5?$AAk?$AAe?$AAy?$AA?0?$AA?5?$AA0?$AA?5?$AAa?$AAr?$AAe?$AA?5?$AAE@| DCB 0xd
	DCB	0x0, " ", 0x0, "C", 0x0, "o", 0x0, "n", 0x0, "t", 0x0, "i"
	DCB	0x0, "n", 0x0, "u", 0x0, "e", 0x0, " ", 0x0, "w", 0x0, "i"
	DCB	0x0, "t", 0x0, "h", 0x0, " ", 0x0, "a", 0x0, "n", 0x0, "y"
	DCB	0x0, " ", 0x0, "k", 0x0, "e", 0x0, "y", 0x0, ",", 0x0, " "
	DCB	0x0, "0", 0x0, " ", 0x0, "a", 0x0, "r", 0x0, "e", 0x0, " "
	DCB	0x0, "E", 0x0, "x", 0x0, "i", 0x0, "t", 0x0, "!", 0x0, "!"
	DCB	0x0, 0xd, 0x0, 0xa, 0x0, 0x0, 0x0	; `string'
; Function compile flags: /Ogspy

  00000			 AREA	 |.text|, CODE, ARM

  00000		 |detect_TSC2046| PROC

; 2297 : {

  00000		 |$LN32@detect_TSC|
  00000	e92d47f0	 stmdb       sp!, {r4 - r10, lr}
  00004		 |$M50607|

; 2298 :     USHORT xData = 0x0000, yData = 0x0000;
; 2299 :     WCHAR key;
; 2300 :     int locate=0;
; 2301 :     //BOOL DONE = FALSE;
; 2302 :     BOOL uLeft=FALSE, uRight=FALSE, lLeft=FALSE, lRight=FALSE, center=FALSE;
; 2303 :     HANDLE n_hGPIO_2046 = g_hGPIO_2046; 

  00004	e59f31b0	 ldr         r3, [pc, #0x1B0]

; 2304 :       
; 2305 :     OALLog(L"\r Continue with any key, 0 are Exit!!\r\n");

  00008	e59f01a8	 ldr         r0, [pc, #0x1A8]
  0000c	e3a06000	 mov         r6, #0
  00010	e5935000	 ldr         r5, [r3]
  00014	e3a07000	 mov         r7, #0
  00018	e3a08000	 mov         r8, #0
  0001c	e3a09000	 mov         r9, #0
  00020	e3a0a000	 mov         r10, #0
  00024	eb000000	 bl          NKDbgPrintfW

; 2306 :     SetDrawCalibration(0);

  00028	e3a00000	 mov         r0, #0
  0002c	eb000000	 bl          SetDrawCalibration

; 2307 :     
; 2308 :     if((key = OALBLMenuReadKey(TRUE)) == L'0')

  00030	e3a00001	 mov         r0, #1
  00034	eb000000	 bl          OALBLMenuReadKey
  00038	e1a03800	 mov         r3, r0, lsl #16
  0003c	e1a03823	 mov         r3, r3, lsr #16
  00040	e3530030	 cmp         r3, #0x30
  00044	0a000052	 beq         |$ExitCalibration$48949|

; 2309 :             goto ExitCalibration;
; 2310 :     
; 2311 :     OALLog(L"\r Start Calibration...\r\n");

  00048	e59f0164	 ldr         r0, [pc, #0x164]
  0004c	eb000000	 bl          NKDbgPrintfW
  00050		 |$LL12@detect_TSC|

; 2313 :     //do{
; 2314 :         xData = read_x(n_hGPIO_2046, 0x94);           //1001_0100

  00050	e3a01094	 mov         r1, #0x94
  00054	e1a00005	 mov         r0, r5
  00058	eb000000	 bl          sendData
  0005c	e3a00001	 mov         r0, #1
  00060	eb000000	 bl          OALStall
  00064	e1a00005	 mov         r0, r5
  00068	eb000000	 bl          receiveData
  0006c	e1a04000	 mov         r4, r0

; 2315 :         LcdStall(20);                                   

  00070	e3a00014	 mov         r0, #0x14
  00074	eb000000	 bl          OALStall

; 2316 :         yData = read_y(n_hGPIO_2046, 0xd4);           //1101_0100

  00078	e3a010d4	 mov         r1, #0xD4
  0007c	e1a00005	 mov         r0, r5
  00080	eb000000	 bl          sendData
  00084	e3a00001	 mov         r0, #1
  00088	eb000000	 bl          OALStall
  0008c	e1a00005	 mov         r0, r5
  00090	eb000000	 bl          receiveData

; 2317 : 
; 2318 :         if((xData >= 0x0EE0 && xData <= 0x0FF0)  && (yData == 0x0800)){ //  in the upper left

  00094	e3540eee	 cmp         r4, #0xEE, 28
  00098	3a000007	 bcc         |$LN10@detect_TSC|
  0009c	e3540eff	 cmp         r4, #0xFF, 28
  000a0	8a000005	 bhi         |$LN10@detect_TSC|
  000a4	e3500b02	 cmp         r0, #2, 22
  000a8	1a000003	 bne         |$LN10@detect_TSC|

; 2319 :             locate=1;
; 2320 :             uLeft = SetDrawCalibration(locate);

  000ac	e3a00001	 mov         r0, #1
  000b0	eb000000	 bl          SetDrawCalibration
  000b4	e1a06000	 mov         r6, r0
  000b8	ea000026	 b           |$LN2@detect_TSC|
  000bc		 |$LN10@detect_TSC|

; 2321 :         }else if((xData >= 0x0EC0 && xData <= 0x0FA0) && (yData == 0x0FA0)){ //in the upper right

  000bc	e3540d3b	 cmp         r4, #0x3B, 26
  000c0	3a000007	 bcc         |$LN8@detect_TSC|
  000c4	e3540efa	 cmp         r4, #0xFA, 28
  000c8	8a000005	 bhi         |$LN8@detect_TSC|
  000cc	e3500efa	 cmp         r0, #0xFA, 28
  000d0	1a000003	 bne         |$LN8@detect_TSC|

; 2322 :             locate=2;
; 2323 :             uRight = SetDrawCalibration(locate);

  000d4	e3a00002	 mov         r0, #2
  000d8	eb000000	 bl          SetDrawCalibration
  000dc	e1a07000	 mov         r7, r0
  000e0	ea00001c	 b           |$LN2@detect_TSC|
  000e4		 |$LN8@detect_TSC|

; 2324 :         }else if((xData >= 0x0C80 && xData <= 0x0E40) && (yData == 0x0C80)){ //in the center

  000e4	e3540d32	 cmp         r4, #0x32, 26
  000e8	3a000007	 bcc         |$LN6@detect_TSC|
  000ec	e3540d39	 cmp         r4, #0x39, 26
  000f0	8a000005	 bhi         |$LN6@detect_TSC|
  000f4	e3500d32	 cmp         r0, #0x32, 26
  000f8	1a000003	 bne         |$LN6@detect_TSC|

; 2325 :             locate=3;
; 2326 :             center = SetDrawCalibration(locate);

  000fc	e3a00003	 mov         r0, #3
  00100	eb000000	 bl          SetDrawCalibration
  00104	e1a0a000	 mov         r10, r0
  00108	ea000012	 b           |$LN2@detect_TSC|
  0010c		 |$LN6@detect_TSC|

; 2327 :         }else if((xData >= 0x0640 && xData <= 0x0800) && (yData == 0x0880)){ //in the lower left

  0010c	e3540d19	 cmp         r4, #0x19, 26
  00110	3a000007	 bcc         |$LN4@detect_TSC|
  00114	e3540b02	 cmp         r4, #2, 22
  00118	8a000005	 bhi         |$LN4@detect_TSC|
  0011c	e3500d22	 cmp         r0, #0x22, 26
  00120	1a000003	 bne         |$LN4@detect_TSC|

; 2328 :             locate=4;
; 2329 :             lLeft = SetDrawCalibration(locate);

  00124	e3a00004	 mov         r0, #4
  00128	eb000000	 bl          SetDrawCalibration
  0012c	e1a08000	 mov         r8, r0
  00130	ea000008	 b           |$LN2@detect_TSC|
  00134		 |$LN4@detect_TSC|

; 2330 :         }else if((xData >= 0x0680 && xData <= 0x0A00) &&  (yData ==  0x0EC0)){ //in the lower right

  00134	e3540d1a	 cmp         r4, #0x1A, 26
  00138	3a000006	 bcc         |$LN2@detect_TSC|
  0013c	e3540c0a	 cmp         r4, #0xA, 24
  00140	8a000004	 bhi         |$LN2@detect_TSC|
  00144	e3500d3b	 cmp         r0, #0x3B, 26
  00148	1a000002	 bne         |$LN2@detect_TSC|

; 2331 :             locate=5;
; 2332 :             lRight = SetDrawCalibration(locate);

  0014c	e3a00005	 mov         r0, #5
  00150	eb000000	 bl          SetDrawCalibration
  00154	e1a09000	 mov         r9, r0
  00158		 |$LN2@detect_TSC|

; 2333 :         }
; 2334 :      
; 2335 :         if(uLeft && uRight && center && lLeft && lRight){

  00158	e3560000	 cmp         r6, #0
  0015c	0affffbb	 beq         |$LL12@detect_TSC|
  00160	e3570000	 cmp         r7, #0
  00164	0affffb9	 beq         |$LL12@detect_TSC|
  00168	e35a0000	 cmp         r10, #0
  0016c	0affffb7	 beq         |$LL12@detect_TSC|
  00170	e3580000	 cmp         r8, #0
  00174	0affffb5	 beq         |$LL12@detect_TSC|
  00178	e3590000	 cmp         r9, #0

; 2312 :     while(key != L'0'){

  0017c	0affffb3	 beq         |$LL12@detect_TSC|

; 2336 :             OALLog(L"\r ~~~Calibration OK!!\r\n");

  00180	e59f0028	 ldr         r0, [pc, #0x28]
  00184	eb000000	 bl          NKDbgPrintfW
  00188	e3a03a7a	 mov         r3, #0x7A, 20

; 2337 :             LcdSleep(500);

  0018c	e3830e12	 orr         r0, r3, #0x12, 28
  00190	eb000000	 bl          OALStall
  00194		 |$ExitCalibration$48949|

; 2338 :             //DONE = TRUE;
; 2339 :             GPIOClose(n_hGPIO_2046);    
; 2340 :             ShowLogo((UINT32)-1, 0);
; 2341 :             return;
; 2342 :         }
; 2343 :          
; 2344 :         /*if(uLeft){
; 2345 :             OALLog(L"\r ~Calibration uLeft!!\r\n");
; 2346 :         }else if(uRight){
; 2347 :             OALLog(L"\r ~Calibration uRight!!\r\n");
; 2348 :         }else if(center){
; 2349 :             OALLog(L"\r ~Calibration cneter!!\r\n");
; 2350 :         }else if(lLeft){
; 2351 :             OALLog(L"\r ~Calibration lLeft!!\r\n");
; 2352 :         }else if(lRight){
; 2353 :             OALLog(L"\r ~Calibration lRight!!\r\n");
; 2354 :         }*/
; 2355 :     }
; 2356 :     //}while((key = OALBLMenuReadKey(TRUE)) == L'0');
; 2357 :     
; 2358 : ExitCalibration:
; 2359 :         GPIOClose(n_hGPIO_2046);

  00194	e1a00005	 mov         r0, r5
  00198	eb000000	 bl          GPIOClose

; 2360 :         ShowLogo((UINT32)-1, 0);

  0019c	e3a01000	 mov         r1, #0
  001a0	e3e00000	 mvn         r0, #0
  001a4	eb000000	 bl          ShowLogo

; 2361 :         return;
; 2362 : }

  001a8	e8bd47f0	 ldmia       sp!, {r4 - r10, lr}
  001ac	e12fff1e	 bx          lr
  001b0		 |$LN33@detect_TSC|
  001b0		 |$LN34@detect_TSC|
  001b0	00000000	 DCD         |??_C@_1DA@LBFIOFJH@?$AA?$AN?$AA?5?$AA?$HO?$AA?$HO?$AA?$HO?$AAC?$AAa?$AAl?$AAi?$AAb?$AAr?$AAa?$AAt?$AAi?$AAo?$AAn?$AA?5?$AAO?$AAK?$AA?$CB?$AA?$CB?$AA?$AN?$AA?6?$AA?$AA@|
  001b4		 |$LN35@detect_TSC|
  001b4	00000000	 DCD         |??_C@_1DC@BOMGFCIG@?$AA?$AN?$AA?5?$AAS?$AAt?$AAa?$AAr?$AAt?$AA?5?$AAC?$AAa?$AAl?$AAi?$AAb?$AAr?$AAa?$AAt?$AAi?$AAo?$AAn?$AA?4?$AA?4?$AA?4?$AA?$AN?$AA?6?$AA?$AA@|
  001b8		 |$LN36@detect_TSC|
  001b8	00000000	 DCD         |??_C@_1FA@OGHHCENM@?$AA?$AN?$AA?5?$AAC?$AAo?$AAn?$AAt?$AAi?$AAn?$AAu?$AAe?$AA?5?$AAw?$AAi?$AAt?$AAh?$AA?5?$AAa?$AAn?$AAy?$AA?5?$AAk?$AAe?$AAy?$AA?0?$AA?5?$AA0?$AA?5?$AAa?$AAr?$AAe?$AA?5?$AAE@|
  001bc		 |$LN37@detect_TSC|
  001bc	00000000	 DCD         |g_hGPIO_2046|
  001c0		 |$M50608|

			 ENDP  ; |detect_TSC2046|

	END
