; Listing generated by Microsoft (R) Optimizing Compiler Version 14.01.60511.01 

	TTL	C:\WINCE600\PLATFORM\Z2170P\SRC\BOOTLOADER\EBOOT\hotkey.c
	CODE32

  00000			 AREA	 |.drectve|, DRECTVE
	DCB	"-defaultlib:LIBCMT "
	DCB	"-defaultlib:OLDNAMES "

	EXPORT	|??_C@_1CE@DFLFAFMD@?$AAE?$AAx?$AAi?$AAt?$AA?5?$AAa?$AAn?$AAd?$AA?5?$AAC?$AAo?$AAn?$AAt?$AAi?$AAn?$AAu?$AAe?$AA?$AA@| [ DATA ] ; `string'
	EXPORT	|??_C@_1BA@EJKOINNF@?$AAF?$AA3?$AA?5?$AA?$CL?$AA?5?$AAF?$AA4?$AA?$AA@| [ DATA ] ; `string'
	EXPORT	|??_C@_1BA@NEKBGMKD@?$AAF?$AA2?$AA?5?$AA?$CL?$AA?5?$AAF?$AA4?$AA?$AA@| [ DATA ] ; `string'
	EXPORT	|??_C@_1BA@EJHGFEBK@?$AAF?$AA2?$AA?5?$AA?$CL?$AA?5?$AAF?$AA3?$AA?$AA@| [ DATA ] ; `string'
	EXPORT	|??_C@_1BA@KIMAEJHI@?$AAF?$AA1?$AA?5?$AA?$CL?$AA?5?$AAF?$AA4?$AA?$AA@| [ DATA ] ; `string'
	EXPORT	|??_C@_1BA@DFBHHBMB@?$AAF?$AA1?$AA?5?$AA?$CL?$AA?5?$AAF?$AA3?$AA?$AA@| [ DATA ] ; `string'
	EXPORT	|??_C@_1BA@INKLBGKE@?$AAF?$AA1?$AA?5?$AA?$CL?$AA?5?$AAF?$AA2?$AA?$AA@| [ DATA ] ; `string'
	EXPORT	|??_C@_15OIHFNINL@?$AAF?$AA4?$AA?$AA@| [ DATA ] ; `string'
	EXPORT	|??_C@_1BC@BIAHJJFB@?$AAR?$AAe?$AAs?$AAe?$AAr?$AAv?$AAe?$AAd?$AA?$AA@| [ DATA ] ; `string'
	EXPORT	|??_C@_15MNBOIHAH@?$AAF?$AA2?$AA?$AA@| [ DATA ] ; `string'
	EXPORT	|??_C@_1BG@GJMFNPPP@?$AAF?$AA1?$AA?5?$AAU?$AAp?$AAd?$AAa?$AAt?$AAe?$AAs?$AA?$AA@| [ DATA ] ; `string'
	EXPORT	|hotkeyColdReset| [ DATA ]

  00000			 AREA	 |.data|, DATA
	 COMMON	|ghTwl|, 0x4

	 COMMON	|gMatrix|, 0x8

|hotkeyColdReset| DCD 0x0
	DCD	|??_C@_1BG@GJMFNPPP@?$AAF?$AA1?$AA?5?$AAU?$AAp?$AAd?$AAa?$AAt?$AAe?$AAs?$AA?$AA@|
	DCD	0x1
	DCD	|??_C@_15MNBOIHAH@?$AAF?$AA2?$AA?$AA@|
	DCD	0x2
	DCD	|??_C@_1BC@BIAHJJFB@?$AAR?$AAe?$AAs?$AAe?$AAr?$AAv?$AAe?$AAd?$AA?$AA@|
	DCD	0x3
	DCD	|??_C@_15OIHFNINL@?$AAF?$AA4?$AA?$AA@|
	DCD	0x4
	DCD	|??_C@_1BA@INKLBGKE@?$AAF?$AA1?$AA?5?$AA?$CL?$AA?5?$AAF?$AA2?$AA?$AA@|
	DCD	0x5
	DCD	|??_C@_1BA@DFBHHBMB@?$AAF?$AA1?$AA?5?$AA?$CL?$AA?5?$AAF?$AA3?$AA?$AA@|
	DCD	0x6
	DCD	|??_C@_1BA@KIMAEJHI@?$AAF?$AA1?$AA?5?$AA?$CL?$AA?5?$AAF?$AA4?$AA?$AA@|
	DCD	0x7
	DCD	|??_C@_1BA@EJHGFEBK@?$AAF?$AA2?$AA?5?$AA?$CL?$AA?5?$AAF?$AA3?$AA?$AA@|
	DCD	0x8
	DCD	|??_C@_1BA@NEKBGMKD@?$AAF?$AA2?$AA?5?$AA?$CL?$AA?5?$AAF?$AA4?$AA?$AA@|
	DCD	0x9
	DCD	|??_C@_1BA@EJKOINNF@?$AAF?$AA3?$AA?5?$AA?$CL?$AA?5?$AAF?$AA4?$AA?$AA@|
	DCD	0xa
	DCD	|??_C@_1CE@DFLFAFMD@?$AAE?$AAx?$AAi?$AAt?$AA?5?$AAa?$AAn?$AAd?$AA?5?$AAC?$AAo?$AAn?$AAt?$AAi?$AAn?$AAu?$AAe?$AA?$AA@|

  00000			 AREA	 |.rdata|, DATA, READONLY
|??_C@_1CE@DFLFAFMD@?$AAE?$AAx?$AAi?$AAt?$AA?5?$AAa?$AAn?$AAd?$AA?5?$AAC?$AAo?$AAn?$AAt?$AAi?$AAn?$AAu?$AAe?$AA?$AA@| DCB "E"
	DCB	0x0, "x", 0x0, "i", 0x0, "t", 0x0, " ", 0x0, "a", 0x0, "n"
	DCB	0x0, "d", 0x0, " ", 0x0, "C", 0x0, "o", 0x0, "n", 0x0, "t"
	DCB	0x0, "i", 0x0, "n", 0x0, "u", 0x0, "e", 0x0, 0x0, 0x0 ; `string'

  00000			 AREA	 |.rdata|, DATA, READONLY
|??_C@_1BA@EJKOINNF@?$AAF?$AA3?$AA?5?$AA?$CL?$AA?5?$AAF?$AA4?$AA?$AA@| DCB "F"
	DCB	0x0, "3", 0x0, " ", 0x0, "+", 0x0, " ", 0x0, "F", 0x0, "4"
	DCB	0x0, 0x0, 0x0				; `string'

  00000			 AREA	 |.rdata|, DATA, READONLY
|??_C@_1BA@NEKBGMKD@?$AAF?$AA2?$AA?5?$AA?$CL?$AA?5?$AAF?$AA4?$AA?$AA@| DCB "F"
	DCB	0x0, "2", 0x0, " ", 0x0, "+", 0x0, " ", 0x0, "F", 0x0, "4"
	DCB	0x0, 0x0, 0x0				; `string'

  00000			 AREA	 |.rdata|, DATA, READONLY
|??_C@_1BA@EJHGFEBK@?$AAF?$AA2?$AA?5?$AA?$CL?$AA?5?$AAF?$AA3?$AA?$AA@| DCB "F"
	DCB	0x0, "2", 0x0, " ", 0x0, "+", 0x0, " ", 0x0, "F", 0x0, "3"
	DCB	0x0, 0x0, 0x0				; `string'

  00000			 AREA	 |.rdata|, DATA, READONLY
|??_C@_1BA@KIMAEJHI@?$AAF?$AA1?$AA?5?$AA?$CL?$AA?5?$AAF?$AA4?$AA?$AA@| DCB "F"
	DCB	0x0, "1", 0x0, " ", 0x0, "+", 0x0, " ", 0x0, "F", 0x0, "4"
	DCB	0x0, 0x0, 0x0				; `string'

  00000			 AREA	 |.rdata|, DATA, READONLY
|??_C@_1BA@DFBHHBMB@?$AAF?$AA1?$AA?5?$AA?$CL?$AA?5?$AAF?$AA3?$AA?$AA@| DCB "F"
	DCB	0x0, "1", 0x0, " ", 0x0, "+", 0x0, " ", 0x0, "F", 0x0, "3"
	DCB	0x0, 0x0, 0x0				; `string'

  00000			 AREA	 |.rdata|, DATA, READONLY
|??_C@_1BA@INKLBGKE@?$AAF?$AA1?$AA?5?$AA?$CL?$AA?5?$AAF?$AA2?$AA?$AA@| DCB "F"
	DCB	0x0, "1", 0x0, " ", 0x0, "+", 0x0, " ", 0x0, "F", 0x0, "2"
	DCB	0x0, 0x0, 0x0				; `string'

  00000			 AREA	 |.rdata|, DATA, READONLY
|??_C@_15OIHFNINL@?$AAF?$AA4?$AA?$AA@| DCB "F", 0x0, "4", 0x0, 0x0, 0x0 ; `string'

  00000			 AREA	 |.rdata|, DATA, READONLY
|??_C@_1BC@BIAHJJFB@?$AAR?$AAe?$AAs?$AAe?$AAr?$AAv?$AAe?$AAd?$AA?$AA@| DCB "R"
	DCB	0x0, "e", 0x0, "s", 0x0, "e", 0x0, "r", 0x0, "v", 0x0, "e"
	DCB	0x0, "d", 0x0, 0x0, 0x0			; `string'

  00000			 AREA	 |.rdata|, DATA, READONLY
|??_C@_15MNBOIHAH@?$AAF?$AA2?$AA?$AA@| DCB "F", 0x0, "2", 0x0, 0x0, 0x0 ; `string'

  00000			 AREA	 |.rdata|, DATA, READONLY
|??_C@_1BG@GJMFNPPP@?$AAF?$AA1?$AA?5?$AAU?$AAp?$AAd?$AAa?$AAt?$AAe?$AAs?$AA?$AA@| DCB "F"
	DCB	0x0, "1", 0x0, " ", 0x0, "U", 0x0, "p", 0x0, "d", 0x0, "a"
	DCB	0x0, "t", 0x0, "e", 0x0, "s", 0x0, 0x0, 0x0 ; `string'

  00000			 AREA	 |.rdata|, DATA, READONLY
|EdbgVendorIds| DCW 0x0
	DCW	0x0
	DCD	0x4033
	DCB	0x1
	DCB	"AD", 0x0
	DCW	0x1050
	DCW	0x940
	DCD	0x4005
	DCB	0x1
	DCB	"LS", 0x0
	DCW	0x1050
	DCW	0x940
	DCD	0x2078
	DCB	0x1
	DCB	"LS", 0x0
	DCW	0x10ec
	DCW	0x8029
	DCD	0xc0f0
	DCB	0x1
	DCB	"KS", 0x0
	DCW	0x10ec
	DCW	0x8129
	DCD	0x0
	DCB	0x4
	DCB	"RT", 0x0
	DCW	0x10ec
	DCW	0x8139
	DCD	0x900b
	DCB	0x4
	DCB	"RT", 0x0
	DCW	0x10ec
	DCW	0x8139
	DCD	0xd0c9
	DCB	0x4
	DCB	"RT", 0x0
	DCW	0x10ec
	DCW	0x8139
	DCD	0xe04c
	DCB	0x4
	DCB	"RT", 0x0
	DCW	0x1186
	DCW	0x1300
	DCD	0x50ba
	DCB	0x4
	DCB	"DL", 0x0
	DCW	0x100b
	DCW	0x20
	DCD	0xa0cc
	DCB	0x5
	DCB	"NG", 0x0
	DCW	0x10b7
	DCW	0x9050
	DCD	0x6008
	DCB	0x6
	DCB	"3C", 0x0
	DCW	0x10b7
	DCW	0x9200
	DCD	0x476
	DCB	0x6
	DCB	"3C", 0x0
	EXPORT	|HotKeyInit|
	IMPORT	|TWLWriteRegs|
; File c:\wince600\platform\z2170p\src\bootloader\eboot\hotkey.c

  00000			 AREA	 |.pdata|, PDATA
|$T47450| DCD	|$LN5@HotKeyInit|
	DCD	0x40001402
; Function compile flags: /Ogspy

  00000			 AREA	 |.text|, CODE, ARM

  00000		 |HotKeyInit| PROC

; 61   : {

  00000		 |$LN5@HotKeyInit|
  00000	e92d4030	 stmdb       sp!, {r4, r5, lr}
  00004	e24dd004	 sub         sp, sp, #4
  00008		 |$M47447|
  00008	e1a04000	 mov         r4, r0
  0000c	e3a05802	 mov         r5, #2, 16

; 62   : 	UINT8 regval;
; 63   : 	
; 64   : 	regval = TWL_KBD_CTRL_KBD_ON | TWL_KBD_CTRL_NRESET | TWL_KBD_CTRL_NSOFT_MODE;

  00010	e3a0e043	 mov         lr, #0x43

; 65   :     TWLWriteRegs(hTwl, TWL_KEYP_CTRL_REG, &regval, sizeof(regval));

  00014	e38510d2	 orr         r1, r5, #0xD2
  00018	e3a03001	 mov         r3, #1
  0001c	e28d2000	 add         r2, sp, #0
  00020	e5cde000	 strb        lr, [sp]
  00024	eb000000	 bl          TWLWriteRegs

; 66   : 	regval = 0x07 << 5;                        // Prescaler timer value

  00028	e3a030e0	 mov         r3, #0xE0
  0002c	e5cd3000	 strb        r3, [sp]

; 67   :     TWLWriteRegs(hTwl, TWL_LK_PTV_REG, &regval, sizeof(regval));

  00030	e3a03001	 mov         r3, #1
  00034	e28d2000	 add         r2, sp, #0
  00038	e38510d5	 orr         r1, r5, #0xD5
  0003c	e1a00004	 mov         r0, r4
  00040	eb000000	 bl          TWLWriteRegs

; 68   : }

  00044	e28dd004	 add         sp, sp, #4
  00048	e8bd4030	 ldmia       sp!, {r4, r5, lr}
  0004c	e12fff1e	 bx          lr
  00050		 |$M47448|

			 ENDP  ; |HotKeyInit|

	EXPORT	|matrixStatus|

  00000			 AREA	 |.pdata|, PDATA
|$T47461| DCD	|$LN7@matrixStat|
	DCD	0x40000800
; Function compile flags: /Ogspy

  00000			 AREA	 |.text|, CODE, ARM

  00000		 |matrixStatus| PROC

; 73   : {

  00000		 |$LN7@matrixStat|
  00000		 |$M47458|

; 74   :     int temp;
; 75   :     BOOL event = FALSE;
; 76   :     
; 77   :     temp = gMatrix[row] & shiftLeft(col);
; 78   :  
; 79   :     if(temp)

  00000	e59f3014	 ldr         r3, [pc, #0x14]
  00004	e3a02001	 mov         r2, #1
  00008	e7d03003	 ldrb        r3, [r0, +r3]
  0000c	e1130112	 tst         r3, r2, lsl r1

; 80   :         return event = TRUE;

  00010	13a00001	 movne       r0, #1

; 81   :     else
; 82   :         return event;

  00014	03a00000	 moveq       r0, #0

; 83   : }

  00018	e12fff1e	 bx          lr
  0001c		 |$LN8@matrixStat|
  0001c		 |$LN9@matrixStat|
  0001c	00000000	 DCD         |gMatrix|
  00020		 |$M47459|

			 ENDP  ; |matrixStatus|

	EXPORT	|HotKeyFunction|
	EXPORT	|??_C@_1DE@MDALDBDK@?$AAH?$AAo?$AAt?$AAK?$AAe?$AAy?$AAF?$AAu?$AAn?$AAc?$AAt?$AAi?$AAo?$AAn?$AA?3?$AA?5?$AA?$FL?$AA?$CF?$AAd?$AA?0?$AA?$CF?$AAd?$AA?$FN?$AA?$AN?$AA?6?$AA?$AA@| [ DATA ] ; `string'
	IMPORT	|FillASCIIMode|
	IMPORT	|NKDbgPrintfW|
	IMPORT	|TWLReadRegs|

  00000			 AREA	 |.pdata|, PDATA
|$T47542| DCD	|$LN63@HotKeyFunc|
	DCD	0x40003701

  00000			 AREA	 |.rdata|, DATA, READONLY
|??_C@_1DE@MDALDBDK@?$AAH?$AAo?$AAt?$AAK?$AAe?$AAy?$AAF?$AAu?$AAn?$AAc?$AAt?$AAi?$AAo?$AAn?$AA?3?$AA?5?$AA?$FL?$AA?$CF?$AAd?$AA?0?$AA?$CF?$AAd?$AA?$FN?$AA?$AN?$AA?6?$AA?$AA@| DCB "H"
	DCB	0x0, "o", 0x0, "t", 0x0, "K", 0x0, "e", 0x0, "y", 0x0, "F"
	DCB	0x0, "u", 0x0, "n", 0x0, "c", 0x0, "t", 0x0, "i", 0x0, "o"
	DCB	0x0, "n", 0x0, ":", 0x0, " ", 0x0, "[", 0x0, "%", 0x0, "d"
	DCB	0x0, ",", 0x0, "%", 0x0, "d", 0x0, "]", 0x0, 0xd, 0x0, 0xa
	DCB	0x0, 0x0, 0x0				; `string'
; Function compile flags: /Ogspy

  00000			 AREA	 |.text|, CODE, ARM

  00000		 |HotKeyFunction| PROC

; 87   : {

  00000		 |$LN63@HotKeyFunc|
  00000	e92d41f0	 stmdb       sp!, {r4 - r8, lr}
  00004		 |$M47539|

; 88   : 	//UINT8 matrix[8];
; 89   : 	ULONG ik, ix, row, column;
; 90   : 	//ULONG i;
; 91   :     USHORT state;
; 92   :     BOOL keyPressed = FALSE;
; 93   :     //WCHAR key; 
; 94   :     
; 95   :        
; 96   :     //Ray 131104
; 97   :     /*for(i=0; i<Hotkey_EXIT; i++)
; 98   :     {
; 99   : 		OALLog(L" [%d] %s\r\n", i+1, hotkeyColdReset[i].keyName);
; 100  : 	}
; 101  : 	OALLog(L" [0] Exit and Continue\r\n");
; 102  : 	
; 103  : 	OALLog(L"\r>>> Now entry cold-reset... \r\n");*/
; 104  : 	
; 105  :     //printing matrix array, Ray
; 106  : 	/*for( ik=0 ; ik<3 ; ik++ )
; 107  : 	{*/
; 108  :     TWLReadRegs(hTwl, TWL_LOGADDR_FULL_CODE_7_0, gMatrix, sizeof(gMatrix));    

  00004	e59f60cc	 ldr         r6, [pc, #0xCC]
  00008	e3a010db	 mov         r1, #0xDB
  0000c	e3a03008	 mov         r3, #8
  00010	e1a02006	 mov         r2, r6
  00014	e24118fe	 sub         r1, r1, #0xFE, 16
  00018	eb000000	 bl          TWLReadRegs

; 109  : 	/*//OALLog(L"******hTwl: %X....\r\n", hTwl);    //address-4, Ray
; 110  : 	    
; 111  : 		OALLog(L" HotKeyFunction: matrix  ");
; 112  : 		for( ix=0 ; ix <8 ; ix++ )
; 113  : 			OALLog(L" [%d]",gMatrix[ix]);
; 114  : 		OALLog(L"\r\n");
; 115  : 	}*/
; 116  : 	
; 117  : 	for(row = 0, ik = 0; row < 8; row++)

  0001c	e3a05000	 mov         r5, #0
  00020	e3a08001	 mov         r8, #1
  00024		 |$LL18@HotKeyFunc|

; 118  : 	{
; 119  :         // Get matrix state        
; 120  :         ix = row;
; 121  :         state = gMatrix[ix] & 0xFF;     

  00024	e7d57006	 ldrb        r7, [r5, +r6]

; 122  : 
; 123  :         // If no-key is pressed continue with new rows
; 124  :         if (state == 0) 

  00028	e3570000	 cmp         r7, #0
  0002c	0a000008	 beq         |$LN17@HotKeyFunc|

; 125  : 		{
; 126  :             ik += 8;
; 127  :             continue;               //if state event desnot 
; 128  : 		}
; 129  :         
; 130  :         for (column = 0; column < 8; column++, ik++)

  00030	e3a04000	 mov         r4, #0
  00034		 |$LL14@HotKeyFunc|

; 131  : 		{
; 132  :             if ((state & (1 << column)) != 0)

  00034	e1170418	 tst         r7, r8, lsl r4

; 133  : 			{
; 134  :                 RETAILMSG(TRUE, (L"HotKeyFunction: [%d,%d]\r\n",row ,column));

  00038	159f0094	 ldrne       r0, [pc, #0x94]
  0003c	11a02004	 movne       r2, r4
  00040	11a01005	 movne       r1, r5
  00044	1b000000	 blne        NKDbgPrintfW
  00048	e2844001	 add         r4, r4, #1
  0004c	e3540008	 cmp         r4, #8
  00050	3afffff7	 bcc         |$LL14@HotKeyFunc|
  00054		 |$LN17@HotKeyFunc|

; 109  : 	/*//OALLog(L"******hTwl: %X....\r\n", hTwl);    //address-4, Ray
; 110  : 	    
; 111  : 		OALLog(L" HotKeyFunction: matrix  ");
; 112  : 		for( ix=0 ; ix <8 ; ix++ )
; 113  : 			OALLog(L" [%d]",gMatrix[ix]);
; 114  : 		OALLog(L"\r\n");
; 115  : 	}*/
; 116  : 	
; 117  : 	for(row = 0, ik = 0; row < 8; row++)

  00054	e2855001	 add         r5, r5, #1
  00058	e3550008	 cmp         r5, #8
  0005c	3afffff0	 bcc         |$LL18@HotKeyFunc|
  00060	e5d62004	 ldrb        r2, [r6, #4]

; 135  : 			}
; 136  : 		}
; 137  : 	}
; 138  :    
; 139  :     //Ray 131106
; 140  :     if(matrixStatus(4, 2) && matrixStatus(4, 3)){               	//F1 + F2

  00064	e3120004	 tst         r2, #4
  00068	13120008	 tstne       r2, #8

; 141  :         keyPressed = FillASCIIMode(hotkeyColdReset[4].keyActive);    

  0006c	159f305c	 ldrne       r3, [pc, #0x5C]
  00070	15930020	 ldrne       r0, [r3, #0x20]
  00074	1a000012	 bne         |$LN60@HotKeyFunc|
  00078	e5d61003	 ldrb        r1, [r6, #3]

; 142  :     }else if(matrixStatus(3, 1) && matrixStatus(3, 2)){         	//F1 + F4

  0007c	e20130ff	 and         r3, r1, #0xFF
  00080	e2133002	 ands        r3, r3, #2
  00084	13110004	 tstne       r1, #4

; 143  :         keyPressed = FillASCIIMode(hotkeyColdReset[6].keyActive);              

  00088	159f3040	 ldrne       r3, [pc, #0x40]
  0008c	15930030	 ldrne       r0, [r3, #0x30]
  00090	1a00000b	 bne         |$LN60@HotKeyFunc|

; 144  :     }else if( matrixStatus(3, 2)){                              	//F1   

  00094	e3110004	 tst         r1, #4

; 145  :         keyPressed = FillASCIIMode(hotkeyColdReset[0].keyActive);     

  00098	159f3030	 ldrne       r3, [pc, #0x30]
  0009c	15930000	 ldrne       r0, [r3]
  000a0	1a000007	 bne         |$LN60@HotKeyFunc|

; 146  :     }else if( matrixStatus(4, 3)){                              	//F2

  000a4	e3120008	 tst         r2, #8

; 147  :         keyPressed = FillASCIIMode(hotkeyColdReset[1].keyActive);       

  000a8	159f3020	 ldrne       r3, [pc, #0x20]
  000ac	15930008	 ldrne       r0, [r3, #8]
  000b0	1a000003	 bne         |$LN60@HotKeyFunc|

; 148  :     }else if( matrixStatus(3, 1)){                              	//F4

  000b4	e3530000	 cmp         r3, #0
  000b8	0a000002	 beq         |$LN2@HotKeyFunc|

; 149  :         keyPressed = FillASCIIMode(hotkeyColdReset[3].keyActive);       

  000bc	e59f300c	 ldr         r3, [pc, #0xC]
  000c0	e5930018	 ldr         r0, [r3, #0x18]
  000c4		 |$LN60@HotKeyFunc|
  000c4	eb000000	 bl          FillASCIIMode
  000c8		 |$LN2@HotKeyFunc|

; 150  :     }
; 151  :         
; 152  :     /*do{   
; 153  :         key = OALBLMenuReadKey(TRUE);
; 154  : 	}while(key != L'0');*/
; 155  : 
; 156  : 	if (/*key == L'0' || */keyPressed == TRUE) return;
; 157  : }

  000c8	e8bd41f0	 ldmia       sp!, {r4 - r8, lr}
  000cc	e12fff1e	 bx          lr
  000d0		 |$LN64@HotKeyFunc|
  000d0		 |$LN65@HotKeyFunc|
  000d0	00000000	 DCD         |hotkeyColdReset|
  000d4		 |$LN66@HotKeyFunc|
  000d4	00000000	 DCD         |??_C@_1DE@MDALDBDK@?$AAH?$AAo?$AAt?$AAK?$AAe?$AAy?$AAF?$AAu?$AAn?$AAc?$AAt?$AAi?$AAo?$AAn?$AA?3?$AA?5?$AA?$FL?$AA?$CF?$AAd?$AA?0?$AA?$CF?$AAd?$AA?$FN?$AA?$AN?$AA?6?$AA?$AA@|
  000d8		 |$LN67@HotKeyFunc|
  000d8	00000000	 DCD         |gMatrix|
  000dc		 |$M47540|

			 ENDP  ; |HotKeyFunction|

	EXPORT	|HotKeyColdReset|

  00000			 AREA	 |.pdata|, PDATA
|$T47554| DCD	|$LN5@HotKeyCold|
	DCD	0x40000401
; Function compile flags: /Ogspy

  00000			 AREA	 |.text|, CODE, ARM

  00000		 |HotKeyColdReset| PROC

; 161  : {

  00000		 |$LN5@HotKeyCold|
  00000	e52de004	 str         lr, [sp, #-4]!
  00004		 |$M47551|

; 162  :    HotKeyFunction(hTwl);

  00004	eb000000	 bl          HotKeyFunction

; 163  :    //OALLog(L"******hTwl: %X....\r\n", hTwl);       //address-3, Ray
; 164  : }

  00008	e49de004	 ldr         lr, [sp], #4
  0000c	e12fff1e	 bx          lr
  00010		 |$M47552|

			 ENDP  ; |HotKeyColdReset|

	EXPORT	|MenuSelectFunction|
	IMPORT	|AutoScanFunc|
	IMPORT	|RAMAccessTest|
	IMPORT	|BurnIn_Z2170P|
	IMPORT	|KeypadFunc_Z2170P|
	IMPORT	|BarcodeTest_Z2170P|
	IMPORT	|LEDTest_Z2170P|
	IMPORT	|BatteryTest_Z2170P|
	IMPORT	|TouchPanelTest_Z2170P|
	IMPORT	|KeypadBkTest_Z2170P|
	IMPORT	|DRAMTest_Z2170P|
	IMPORT	|BkTest_Z2170P|
	IMPORT	|DisplayTest_Z2170P|
	IMPORT	|AllFunctionTest_Z2170P|
	IMPORT	|BLShowMenu|

  00000			 AREA	 |.pdata|, PDATA
|$T47684| DCD	|$LN110@MenuSelect|
	DCD	0x40005001
; Function compile flags: /Ogspy

  00000			 AREA	 |.text|, CODE, ARM

  00000		 |MenuSelectFunction| PROC

; 171  : {

  00000		 |$LN110@MenuSelect|
  00000	e92d4070	 stmdb       sp!, {r4 - r6, lr}
  00004		 |$M47681|
  00004	e1a05000	 mov         r5, r0
  00008	e59f412c	 ldr         r4, [pc, #0x12C]
  0000c	e3a060db	 mov         r6, #0xDB
  00010		 |$LL35@MenuSelect|

; 172  :     ULONG ik, ix, row, column;
; 173  :     USHORT state;
; 174  :     //BOOL keyPressed = FALSE;
; 175  :     OAL_BLMENU_ITEM *pMenu = NULL;
; 176  :     for(;;)
; 177  :     {
; 178  :         BLShowMenu(); 

  00010	eb000000	 bl          BLShowMenu

; 179  :         TWLReadRegs(hTwl, TWL_LOGADDR_FULL_CODE_7_0, gMatrix, sizeof(gMatrix));  

  00014	e3a03008	 mov         r3, #8
  00018	e1a02004	 mov         r2, r4
  0001c	e24618fe	 sub         r1, r6, #0xFE, 16
  00020	e1a00005	 mov         r0, r5
  00024	eb000000	 bl          TWLReadRegs
  00028	e5d43002	 ldrb        r3, [r4, #2]

; 180  :         
; 181  :         
; 182  :         for(row = 0, ik = 0; row < 8; row++)
; 183  :     	{
; 184  :             // Get matrix state        
; 185  :             ix = row;
; 186  :             state = gMatrix[ix] & 0xFF;     
; 187  : 
; 188  :             // If no-key is pressed continue with new rows
; 189  :             if (state == 0) 
; 190  :     		{
; 191  :                 ik += 8;
; 192  :                 continue;               //if state event desnot 
; 193  :     		}
; 194  :             
; 195  :             for (column = 0; column < 8; column++, ik++)
; 196  :     		{
; 197  :                 if ((state & (1 << column)) != 0)
; 198  :     			{
; 199  :                     //RETAILMSG(TRUE, (L"HotKeyFunction: [%d,%d]\r\n",row ,column));
; 200  :     			}
; 201  :     		}
; 202  :     	}
; 203  :         
; 204  :         if(matrixStatus(2, 5) ){            //press number 1

  0002c	e3130020	 tst         r3, #0x20
  00030	0a000002	 beq         |$LN25@MenuSelect|

; 205  :             AllFunctionTest_Z2170P(pMenu);

  00034	e3a00000	 mov         r0, #0
  00038	eb000000	 bl          AllFunctionTest_Z2170P
  0003c	eafffff3	 b           |$LL35@MenuSelect|
  00040		 |$LN25@MenuSelect|
  00040	e5d42001	 ldrb        r2, [r4, #1]

; 206  :         }else if(matrixStatus(1, 1) ){      //press number 2

  00044	e3120002	 tst         r2, #2
  00048	0a000002	 beq         |$LN23@MenuSelect|

; 207  :             DisplayTest_Z2170P(pMenu);

  0004c	e3a00000	 mov         r0, #0
  00050	eb000000	 bl          DisplayTest_Z2170P
  00054	eaffffed	 b           |$LL35@MenuSelect|
  00058		 |$LN23@MenuSelect|

; 208  :         }else if(matrixStatus(1, 3) ){      //press number 3

  00058	e3120008	 tst         r2, #8
  0005c	0a000002	 beq         |$LN21@MenuSelect|

; 209  :             BkTest_Z2170P(pMenu);

  00060	e3a00000	 mov         r0, #0
  00064	eb000000	 bl          BkTest_Z2170P
  00068	eaffffe8	 b           |$LL35@MenuSelect|
  0006c		 |$LN21@MenuSelect|

; 210  :         }else if(matrixStatus(2, 1) ){      //press number 4  

  0006c	e3130002	 tst         r3, #2
  00070	0a000002	 beq         |$LN19@MenuSelect|

; 211  :             DRAMTest_Z2170P(pMenu);

  00074	e3a00000	 mov         r0, #0
  00078	eb000000	 bl          DRAMTest_Z2170P
  0007c	eaffffe3	 b           |$LL35@MenuSelect|
  00080		 |$LN19@MenuSelect|

; 212  :         }else if(matrixStatus(2, 4) ){      //press number 5

  00080	e3130010	 tst         r3, #0x10
  00084	0a000002	 beq         |$LN17@MenuSelect|

; 213  :             KeypadBkTest_Z2170P(pMenu);

  00088	e3a00000	 mov         r0, #0
  0008c	eb000000	 bl          KeypadBkTest_Z2170P
  00090	eaffffde	 b           |$LL35@MenuSelect|
  00094		 |$LN17@MenuSelect|

; 214  :         }else if(matrixStatus(2, 3) ){      //press number 6

  00094	e3130008	 tst         r3, #8
  00098	0a000002	 beq         |$LN15@MenuSelect|

; 215  :             TouchPanelTest_Z2170P(pMenu);

  0009c	e3a00000	 mov         r0, #0
  000a0	eb000000	 bl          TouchPanelTest_Z2170P
  000a4	eaffffd9	 b           |$LL35@MenuSelect|
  000a8		 |$LN15@MenuSelect|
  000a8	e5d42003	 ldrb        r2, [r4, #3]

; 216  :         }else if(matrixStatus(3, 5) ){      //press number 7

  000ac	e3120020	 tst         r2, #0x20
  000b0	0a000002	 beq         |$LN13@MenuSelect|

; 217  :             BatteryTest_Z2170P(pMenu);

  000b4	e3a00000	 mov         r0, #0
  000b8	eb000000	 bl          BatteryTest_Z2170P
  000bc	eaffffd3	 b           |$LL35@MenuSelect|
  000c0		 |$LN13@MenuSelect|

; 218  :         }else if(matrixStatus(2, 0) ){      //press number 8

  000c0	e3130001	 tst         r3, #1
  000c4	0a000002	 beq         |$LN11@MenuSelect|

; 219  :             LEDTest_Z2170P(pMenu);

  000c8	e3a00000	 mov         r0, #0
  000cc	eb000000	 bl          LEDTest_Z2170P
  000d0	eaffffce	 b           |$LL35@MenuSelect|
  000d4		 |$LN11@MenuSelect|

; 220  :         }else if(matrixStatus(2, 2) ){      //press number 9

  000d4	e3130004	 tst         r3, #4
  000d8	0a000002	 beq         |$LN9@MenuSelect|

; 221  :             BarcodeTest_Z2170P(pMenu);

  000dc	e3a00000	 mov         r0, #0
  000e0	eb000000	 bl          BarcodeTest_Z2170P
  000e4	eaffffc9	 b           |$LL35@MenuSelect|
  000e8		 |$LN9@MenuSelect|

; 222  :         }else if(matrixStatus(3, 3) ){      //press number F1

  000e8	e3120008	 tst         r2, #8
  000ec	0a000002	 beq         |$LN7@MenuSelect|

; 223  :             KeypadFunc_Z2170P(pMenu);

  000f0	e3a00000	 mov         r0, #0
  000f4	eb000000	 bl          KeypadFunc_Z2170P
  000f8	eaffffc4	 b           |$LL35@MenuSelect|
  000fc		 |$LN7@MenuSelect|

; 224  :         }else if(matrixStatus(4, 3) ){      //press number F2

  000fc	e5d43004	 ldrb        r3, [r4, #4]
  00100	e3130008	 tst         r3, #8
  00104	0a000002	 beq         |$LN5@MenuSelect|

; 225  :             BurnIn_Z2170P(pMenu);

  00108	e3a00000	 mov         r0, #0
  0010c	eb000000	 bl          BurnIn_Z2170P
  00110	eaffffbe	 b           |$LL35@MenuSelect|
  00114		 |$LN5@MenuSelect|

; 226  :         }else if(matrixStatus(3, 0) ){      //press number F3

  00114	e3120001	 tst         r2, #1
  00118	0a000002	 beq         |$LN3@MenuSelect|

; 227  :             RAMAccessTest(pMenu);

  0011c	e3a00000	 mov         r0, #0
  00120	eb000000	 bl          RAMAccessTest
  00124	eaffffb9	 b           |$LL35@MenuSelect|
  00128		 |$LN3@MenuSelect|

; 228  :             //break;
; 229  :         }else if(matrixStatus(3, 2) ){      //press number F4

  00128	e3120004	 tst         r2, #4
  0012c	0affffb7	 beq         |$LL35@MenuSelect|

; 230  :             AutoScanFunc(pMenu);

  00130	e3a00000	 mov         r0, #0
  00134	eb000000	 bl          AutoScanFunc

; 231  :             //break;
; 232  :         }
; 233  :    }

  00138	eaffffb4	 b           |$LL35@MenuSelect|
  0013c		 |$LN111@MenuSelect|
  0013c		 |$LN112@MenuSelect|
  0013c	00000000	 DCD         |gMatrix|
  00140		 |$M47682|

			 ENDP  ; |MenuSelectFunction|

	EXPORT	|HotkeyMenuSelect|

  00000			 AREA	 |.pdata|, PDATA
|$T47696| DCD	|$LN7@HotkeyMenu|
	DCD	0x40000201
; Function compile flags: /Ogspy

  00000			 AREA	 |.text|, CODE, ARM

  00000		 |HotkeyMenuSelect| PROC

; 237  : {

  00000		 |$LN7@HotkeyMenu|
  00000	e52de004	 str         lr, [sp, #-4]!
  00004		 |$M47693|

; 238  : 	MenuSelectFunction(hTwl);	

  00004	eb000000	 bl          MenuSelectFunction
  00008		 |$LN8@HotkeyMenu|
  00008		 |$LN4@HotkeyMenu|
  00008		 |$M47694|

			 ENDP  ; |HotkeyMenuSelect|

	END
