; Listing generated by Microsoft (R) Optimizing Compiler Version 14.01.60511.01 

	TTL	C:\WINCE600\PLATFORM\Z2170P\SRC\APP\BSPVERSION\EXE\main.cpp
	CODE32

  00000			 AREA	 |.drectve|, DRECTVE
	DCB	"-defaultlib:LIBCMT "
	DCB	"-defaultlib:OLDNAMES "

	EXPORT	|?h_label_cpu@@3PAUHWND__@@A| [ DATA ]	; h_label_cpu
	EXPORT	|?h_label_mem@@3PAUHWND__@@A| [ DATA ]	; h_label_mem
	EXPORT	|?h_window@@3PAUHWND__@@A| [ DATA ]	; h_window
	EXPORT	|?h_label_bsp@@3PAUHWND__@@A| [ DATA ]	; h_label_bsp
	EXPORT	|?h_okBtn@@3PAUHWND__@@A| [ DATA ]	; h_okBtn
	EXPORT	|?cLabel_bsp@@3PAGA| [ DATA ]		; cLabel_bsp
	EXPORT	|?cLabel_mem@@3PAGA| [ DATA ]		; cLabel_mem
	EXPORT	|?cLabel_cpu@@3PAGA| [ DATA ]		; cLabel_cpu

  00000			 AREA	 |.bss|, NOINIT
|?h_label_cpu@@3PAUHWND__@@A| % 0x4			; h_label_cpu
|?h_label_mem@@3PAUHWND__@@A| % 0x4			; h_label_mem
|?h_window@@3PAUHWND__@@A| % 0x4			; h_window
|?h_label_bsp@@3PAUHWND__@@A| % 0x4			; h_label_bsp
|?h_okBtn@@3PAUHWND__@@A| % 0x4				; h_okBtn

  00000			 AREA	 |.data|, DATA
|?cLabel_bsp@@3PAGA| DCB "B", 0x0, "S", 0x0, "P", 0x0, " ", 0x0, "v", 0x0
	DCB	"e", 0x0, "r", 0x0, "s", 0x0, "i", 0x0, "o", 0x0, "n", 0x0
	DCB	":", 0x0, " ", 0x0, 0x0, 0x0		; cLabel_bsp
	%	482
	%	2
|?cLabel_mem@@3PAGA| DCB "M", 0x0, "e", 0x0, "m", 0x0, "o", 0x0, "r", 0x0
	DCB	"y", 0x0, " ", 0x0, "s", 0x0, "i", 0x0, "z", 0x0, "e", 0x0
	DCB	":", 0x0, " ", 0x0, 0x0, 0x0		; cLabel_mem
	%	482
	%	2
|?cLabel_cpu@@3PAGA| DCB "C", 0x0, "P", 0x0, "U", 0x0, " ", 0x0, "s", 0x0
	DCB	"p", 0x0, "e", 0x0, "e", 0x0, "d", 0x0, ":", 0x0, " ", 0x0
	DCB	0x0, 0x0				; cLabel_cpu
	%	486
	EXPORT	|?WndProc@@YAJPAUHWND__@@IIJ@Z|		; WndProc
	IMPORT	|PostQuitMessage|
	IMPORT	|DestroyWindow|
	IMPORT	|DefWindowProcW|
; File c:\wince600\platform\z2170p\src\app\bspversion\exe\main.cpp

  00000			 AREA	 |.pdata|, PDATA
|$T39209| DCD	|$LN12@WndProc|
	DCD	0x40001c01
; Function compile flags: /Ogspy

  00000			 AREA	 |.text|, CODE, ARM

  00000		 |?WndProc@@YAJPAUHWND__@@IIJ@Z| PROC	; WndProc

; 56   : {

  00000		 |$LN12@WndProc|
  00000	e92d4010	 stmdb       sp!, {r4, lr}
  00004		 |$M39206|
  00004	e1a04003	 mov         r4, r3

; 57   :     switch (msg)

  00008	e3510002	 cmp         r1, #2
  0000c	0a000011	 beq         |$LN2@WndProc|
  00010	e3510010	 cmp         r1, #0x10
  00014	0a00000d	 beq         |$LN3@WndProc|
  00018	e3a03c01	 mov         r3, #1, 24
  0001c	e383e011	 orr         lr, r3, #0x11
  00020	e151000e	 cmp         r1, lr
  00024	0a000003	 beq         |$LN5@WndProc|

; 70   :         break;
; 71   :         default:
; 72   :             return DefWindowProc(hwnd, msg, wParam, lParam);

  00028	e1a03004	 mov         r3, r4
  0002c	eb000000	 bl          DefWindowProcW

; 75   : }

  00030	e8bd4010	 ldmia       sp!, {r4, lr}
  00034	e12fff1e	 bx          lr
  00038		 |$LN5@WndProc|

; 58   :     {
; 59   :         case WM_COMMAND:
; 60   :             if (((HWND)lParam == h_okBtn) && (HIWORD(wParam) == BN_CLICKED))

  00038	e59f302c	 ldr         r3, [pc, #0x2C]
  0003c	e5933000	 ldr         r3, [r3]
  00040	e1540003	 cmp         r4, r3
  00044	1a000005	 bne         |$LN6@WndProc|
  00048	e1b03822	 movs        r3, r2, lsr #16
  0004c	1a000003	 bne         |$LN6@WndProc|
  00050		 |$LN3@WndProc|

; 61   :             {
; 62   :                 DestroyWindow(hwnd);

  00050	eb000000	 bl          DestroyWindow

; 63   :             }
; 64   :         break;

  00054	ea000001	 b           |$LN6@WndProc|
  00058		 |$LN2@WndProc|

; 65   :         case WM_CLOSE:
; 66   :             DestroyWindow(hwnd);
; 67   :         break;
; 68   :         case WM_DESTROY:
; 69   :             PostQuitMessage(0);

  00058	e3a00000	 mov         r0, #0
  0005c	eb000000	 bl          PostQuitMessage
  00060		 |$LN6@WndProc|

; 73   :     }
; 74   :     return 0;

  00060	e3a00000	 mov         r0, #0

; 75   : }

  00064	e8bd4010	 ldmia       sp!, {r4, lr}
  00068	e12fff1e	 bx          lr
  0006c		 |$LN13@WndProc|
  0006c		 |$LN14@WndProc|
  0006c	00000000	 DCD         |?h_okBtn@@3PAUHWND__@@A|
  00070		 |$M39207|

			 ENDP  ; |?WndProc@@YAJPAUHWND__@@IIJ@Z|, WndProc

	EXPORT	|__$ArrayPad$| [ DATA ]
	EXPORT	|WinMain|
	EXPORT	|??_C@_17MIGADKGF@?$AAM?$AAh?$AAz?$AA?$AA@| [ DATA ] ; `string'
	EXPORT	|??_C@_15MMOGNHFI@?$AAM?$AAB?$AA?$AA@| [ DATA ] ; `string'
	EXPORT	|??_C@_1CA@PKGDFAGL@?$AAB?$AAS?$AAP?$AA?5?$AAI?$AAn?$AAf?$AAo?$AAr?$AAm?$AAa?$AAt?$AAi?$AAo?$AAn?$AA?$AA@| [ DATA ] ; `string'
	EXPORT	|??_C@_1O@ELLBDENI@?$AAS?$AAT?$AAA?$AAT?$AAI?$AAC?$AA?$AA@| [ DATA ] ; `string'
	EXPORT	|??_C@_15PMCGDJNJ@?$AAO?$AAK?$AA?$AA@| [ DATA ] ; `string'
	EXPORT	|??_C@_1O@MOBNNEMB@?$AAB?$AAU?$AAT?$AAT?$AAO?$AAN?$AA?$AA@| [ DATA ] ; `string'
	EXPORT	|??_C@_1O@IGDMIDOM@?$AAE?$AAr?$AAr?$AAo?$AAr?$AA?$CB?$AA?$AA@| [ DATA ] ; `string'
	EXPORT	|??_C@_1DI@BBHHNHJJ@?$AAW?$AAi?$AAn?$AAd?$AAo?$AAw?$AA?5?$AAR?$AAe?$AAg?$AAi?$AAs?$AAt?$AAr?$AAa?$AAt?$AAi?$AAo?$AAn?$AA?5?$AAF?$AAa?$AAi?$AAl?$AAe?$AAd?$AA?$CB?$AA?$AA@| [ DATA ] ; `string'
	EXPORT	|??_C@_1CA@FDDCNGDL@?$AAI?$AAn?$AAf?$AAo?$AAW?$AAi?$AAn?$AAd?$AAo?$AAw?$AAC?$AAl?$AAa?$AAs?$AAs?$AA?$AA@| [ DATA ] ; `string'
	IMPORT	|GetMessageW|
	IMPORT	|DispatchMessageW|
	IMPORT	|TranslateMessage|
	IMPORT	|UpdateWindow|
	IMPORT	|ShowWindow|
	IMPORT	|CreateWindowExW|
	IMPORT	|_ltow|
	IMPORT	|KernelIoControl|
	IMPORT	|GetSystemMetrics|
	IMPORT	|MessageBoxW|
	IMPORT	|RegisterClassW|
	IMPORT	|GetStockObject|
	IMPORT	|LoadCursorW|
	IMPORT	|__GSHandlerCheck|
	IMPORT	|__security_cookie|
	IMPORT	|wcscat|
	IMPORT	|__security_check_cookie|

  00000			 AREA	 |.pdata|, PDATA
|$T39236| DCD	|$LN12@WinMain|
	DCD	0xc000d902

  00000			 AREA	 |.xdata|, DATA
|$T39232| DCD	0xffffffd8

  00000			 AREA	 |.rdata|, DATA, READONLY
|??_C@_17MIGADKGF@?$AAM?$AAh?$AAz?$AA?$AA@| DCB "M", 0x0, "h", 0x0, "z", 0x0
	DCB	0x0, 0x0				; `string'

  00000			 AREA	 |.rdata|, DATA, READONLY
|??_C@_15MMOGNHFI@?$AAM?$AAB?$AA?$AA@| DCB "M", 0x0, "B", 0x0, 0x0, 0x0 ; `string'

  00000			 AREA	 |.rdata|, DATA, READONLY
|??_C@_1CA@PKGDFAGL@?$AAB?$AAS?$AAP?$AA?5?$AAI?$AAn?$AAf?$AAo?$AAr?$AAm?$AAa?$AAt?$AAi?$AAo?$AAn?$AA?$AA@| DCB "B"
	DCB	0x0, "S", 0x0, "P", 0x0, " ", 0x0, "I", 0x0, "n", 0x0, "f"
	DCB	0x0, "o", 0x0, "r", 0x0, "m", 0x0, "a", 0x0, "t", 0x0, "i"
	DCB	0x0, "o", 0x0, "n", 0x0, 0x0, 0x0	; `string'

  00000			 AREA	 |.rdata|, DATA, READONLY
|??_C@_1O@ELLBDENI@?$AAS?$AAT?$AAA?$AAT?$AAI?$AAC?$AA?$AA@| DCB "S", 0x0, "T"
	DCB	0x0, "A", 0x0, "T", 0x0, "I", 0x0, "C", 0x0, 0x0, 0x0 ; `string'

  00000			 AREA	 |.rdata|, DATA, READONLY
|??_C@_15PMCGDJNJ@?$AAO?$AAK?$AA?$AA@| DCB "O", 0x0, "K", 0x0, 0x0, 0x0 ; `string'

  00000			 AREA	 |.rdata|, DATA, READONLY
|??_C@_1O@MOBNNEMB@?$AAB?$AAU?$AAT?$AAT?$AAO?$AAN?$AA?$AA@| DCB "B", 0x0, "U"
	DCB	0x0, "T", 0x0, "T", 0x0, "O", 0x0, "N", 0x0, 0x0, 0x0 ; `string'

  00000			 AREA	 |.rdata|, DATA, READONLY
|??_C@_1O@IGDMIDOM@?$AAE?$AAr?$AAr?$AAo?$AAr?$AA?$CB?$AA?$AA@| DCB "E", 0x0
	DCB	"r", 0x0, "r", 0x0, "o", 0x0, "r", 0x0, "!", 0x0, 0x0, 0x0 ; `string'

  00000			 AREA	 |.rdata|, DATA, READONLY
|??_C@_1DI@BBHHNHJJ@?$AAW?$AAi?$AAn?$AAd?$AAo?$AAw?$AA?5?$AAR?$AAe?$AAg?$AAi?$AAs?$AAt?$AAr?$AAa?$AAt?$AAi?$AAo?$AAn?$AA?5?$AAF?$AAa?$AAi?$AAl?$AAe?$AAd?$AA?$CB?$AA?$AA@| DCB "W"
	DCB	0x0, "i", 0x0, "n", 0x0, "d", 0x0, "o", 0x0, "w", 0x0, " "
	DCB	0x0, "R", 0x0, "e", 0x0, "g", 0x0, "i", 0x0, "s", 0x0, "t"
	DCB	0x0, "r", 0x0, "a", 0x0, "t", 0x0, "i", 0x0, "o", 0x0, "n"
	DCB	0x0, " ", 0x0, "F", 0x0, "a", 0x0, "i", 0x0, "l", 0x0, "e"
	DCB	0x0, "d", 0x0, "!", 0x0, 0x0, 0x0	; `string'

  00000			 AREA	 |.rdata|, DATA, READONLY
|??_C@_1CA@FDDCNGDL@?$AAI?$AAn?$AAf?$AAo?$AAW?$AAi?$AAn?$AAd?$AAo?$AAw?$AAC?$AAl?$AAa?$AAs?$AAs?$AA?$AA@| DCB "I"
	DCB	0x0, "n", 0x0, "f", 0x0, "o", 0x0, "W", 0x0, "i", 0x0, "n"
	DCB	0x0, "d", 0x0, "o", 0x0, "w", 0x0, "C", 0x0, "l", 0x0, "a"
	DCB	0x0, "s", 0x0, "s", 0x0, 0x0, 0x0	; `string'
; Function compile flags: /Ogspy

  00000			 AREA	 |.text|, CODE, ARM

  00000	00000000	 DCD         |__GSHandlerCheck|
  00004	00000000	 DCD         |$T39232|

  00008		 |WinMain| PROC

; 78   : {

  00008		 |$LN12@WinMain|
  00008	e92d4ff0	 stmdb       sp!, {r4 - r11, lr}
  0000c	e24dd090	 sub         sp, sp, #0x90
  00010		 |$M39233|
  00010	e1a09003	 mov         r9, r3
  00014	e1a07000	 mov         r7, r0
  00018	e59f2348	 ldr         r2, [pc, #0x348]
  0001c	e5922000	 ldr         r2, [r2]
  00020	e58d208c	 str         r2, [sp, #0x8C]

; 79   : 	UNUSED_PARAMETER(hPrevInstance);
; 80   : 	UNUSED_PARAMETER(lpCmdLine);
; 81   : 
; 82   :     WNDCLASS wc;
; 83   :     MSG Msg;
; 84   : 	TCHAR cItoAbuf[16];
; 85   :     UINT32 CPUspeed=0;
; 86   :     DWORD ret;
; 87   : 
; 88   :     // Register the Window Class
; 89   :     wc.style         = CS_HREDRAW | CS_VREDRAW;
; 90   :     wc.lpfnWndProc     = WndProc;

  00024	e59f2338	 ldr         r2, [pc, #0x338]
  00028	e3a03000	 mov         r3, #0
  0002c	e3a0e003	 mov         lr, #3

; 91   :     wc.cbClsExtra     = 0;

  00030	e3a04000	 mov         r4, #0

; 92   :     wc.cbWndExtra     = 0;

  00034	e3a05000	 mov         r5, #0

; 93   :     wc.hInstance     = hInstance;
; 94   :     wc.hIcon         = 0;

  00038	e3a06000	 mov         r6, #0

; 95   :     wc.hCursor         = LoadCursor(NULL, IDC_ARROW);

  0003c	e3a01c7f	 mov         r1, #0x7F, 24
  00040	e3a00000	 mov         r0, #0
  00044	e58d2028	 str         r2, [sp, #0x28]
  00048	e58d3020	 str         r3, [sp, #0x20]
  0004c	e58de024	 str         lr, [sp, #0x24]
  00050	e58d402c	 str         r4, [sp, #0x2C]
  00054	e58d5030	 str         r5, [sp, #0x30]
  00058	e58d7034	 str         r7, [sp, #0x34]
  0005c	e58d6038	 str         r6, [sp, #0x38]
  00060	eb000000	 bl          LoadCursorW
  00064	e1a03000	 mov         r3, r0

; 96   :     wc.hbrBackground = (HBRUSH)GetStockObject(LTGRAY_BRUSH);

  00068	e3a00001	 mov         r0, #1
  0006c	e58d303c	 str         r3, [sp, #0x3C]
  00070	eb000000	 bl          GetStockObject

; 97   :     wc.lpszMenuName  = NULL;
; 98   :     wc.lpszClassName = WINDOW_CLASS_NAME;

  00074	e59f82e4	 ldr         r8, [pc, #0x2E4]
  00078	e1a03000	 mov         r3, r0
  0007c	e3a02000	 mov         r2, #0

; 99   :     if(!RegisterClass(&wc))

  00080	e28d0024	 add         r0, sp, #0x24
  00084	e58d8048	 str         r8, [sp, #0x48]
  00088	e58d3040	 str         r3, [sp, #0x40]
  0008c	e58d2044	 str         r2, [sp, #0x44]
  00090	eb000000	 bl          RegisterClassW
  00094	e1a03800	 mov         r3, r0, lsl #16
  00098	e1b03823	 movs        r3, r3, lsr #16

; 100  :     {
; 101  :         MessageBox(NULL, L"Window Registration Failed!", L"Error!", MB_ICONEXCLAMATION | MB_OK);

  0009c	e3a00000	 mov         r0, #0
  000a0	1a000007	 bne         |$LN3@WinMain|
  000a4	e59f22b0	 ldr         r2, [pc, #0x2B0]
  000a8	e59f12a8	 ldr         r1, [pc, #0x2A8]
  000ac	e3a03030	 mov         r3, #0x30
  000b0	eb000000	 bl          MessageBoxW

; 102  :         return 1;

  000b4	e59d008c	 ldr         r0, [sp, #0x8C]
  000b8	eb000000	 bl          __security_check_cookie
  000bc	e3a00001	 mov         r0, #1
  000c0	ea000098	 b           |$LN4@WinMain|
  000c4		 |$LN3@WinMain|

; 103  :     }
; 104  : 
; 105  :     // Find window coordinates
; 106  :     int screenWidth = GetSystemMetrics(SM_CXSCREEN);

  000c4	eb000000	 bl          GetSystemMetrics
  000c8	e1a04000	 mov         r4, r0

; 107  :     int screenHeight = GetSystemMetrics(SM_CYSCREEN);

  000cc	e3a00001	 mov         r0, #1
  000d0	eb000000	 bl          GetSystemMetrics

; 108  :     int windowX = (screenWidth / 2) - (WINDOW_WIDTH / 2);
; 109  :     int windowY = (screenHeight / 2) - (WINDOW_HEIGHT / 2);

  000d4	e0803fa0	 add         r3, r0, r0, lsr #31

; 110  : 
; 111  : 	// Concat the BSP version with the initial string
; 112  : 	//wcscat(cLabel_bsp,BSP_VERSION_STRING);		//trouble, Ray 13-10-23
; 113  : 
; 114  : 	KernelIoControl(IOCTL_HAL_GET_CPUSPEED,
; 115  :                 (LPVOID)&CPUspeed, sizeof(CPUspeed), (LPVOID)&CPUspeed, 4, &ret);

  000d8	e59f0274	 ldr         r0, [pc, #0x274]
  000dc	e1a030c3	 mov         r3, r3, asr #1
  000e0	e2435050	 sub         r5, r3, #0x50
  000e4	e28de04c	 add         lr, sp, #0x4C
  000e8	e3a06004	 mov         r6, #4
  000ec	e28d3020	 add         r3, sp, #0x20
  000f0	e3a02004	 mov         r2, #4
  000f4	e28d1020	 add         r1, sp, #0x20
  000f8	e58de004	 str         lr, [sp, #4]
  000fc	e58d6000	 str         r6, [sp]
  00100	eb000000	 bl          KernelIoControl

; 116  : 
; 117  : 	// Concat the CPU speed with the initial string
; 118  : 	_ltow(CPUspeed,cItoAbuf,10);

  00104	e59d0020	 ldr         r0, [sp, #0x20]
  00108	e3a0200a	 mov         r2, #0xA
  0010c	e28d106c	 add         r1, sp, #0x6C
  00110	eb000000	 bl          _ltow

; 119  : 	wcscat(cLabel_cpu,cItoAbuf);

  00114	e59f6234	 ldr         r6, [pc, #0x234]
  00118	e28d106c	 add         r1, sp, #0x6C
  0011c	e2860b01	 add         r0, r6, #1, 22
  00120	eb000000	 bl          wcscat

; 120  : 	wcscat(cLabel_cpu,TEXT("Mhz"));

  00124	e59f1220	 ldr         r1, [pc, #0x220]
  00128	e2860b01	 add         r0, r6, #1, 22
  0012c	eb000000	 bl          wcscat

; 121  : 
; 122  : 
; 123  : 	// Concat the memory size with the initial string
; 124  : 	_ltow(DEVICE_RAM_SIZE/(1024*1024),cItoAbuf,10);

  00130	e3a0200a	 mov         r2, #0xA
  00134	e28d106c	 add         r1, sp, #0x6C
  00138	e3a00c01	 mov         r0, #1, 24
  0013c	eb000000	 bl          _ltow

; 125  : 	wcscat(cLabel_mem,cItoAbuf);

  00140	e28d106c	 add         r1, sp, #0x6C
  00144	e2860c02	 add         r0, r6, #2, 24
  00148	eb000000	 bl          wcscat

; 126  : 	wcscat(cLabel_mem,TEXT("MB"));

  0014c	e59f11f4	 ldr         r1, [pc, #0x1F4]
  00150	e2860c02	 add         r0, r6, #2, 24
  00154	eb000000	 bl          wcscat
  00158	e0843fa4	 add         r3, r4, r4, lsr #31
  0015c	e1a030c3	 mov         r3, r3, asr #1

; 127  : 	
; 128  : 	
; 129  : 
; 130  :     // Create GUI controls
; 131  :     h_window = CreateWindow(WINDOW_CLASS_NAME, L"BSP Information", WS_OVERLAPPED, windowX, windowY, WINDOW_WIDTH, WINDOW_HEIGHT, NULL, NULL, hInstance, NULL);

  00160	e59f21dc	 ldr         r2, [pc, #0x1DC]
  00164	e243305a	 sub         r3, r3, #0x5A
  00168	e1a01008	 mov         r1, r8
  0016c	e58d3000	 str         r3, [sp]
  00170	e3a0e0b4	 mov         lr, #0xB4
  00174	e3a0a0a0	 mov         r10, #0xA0
  00178	e3a08000	 mov         r8, #0
  0017c	e3a03503	 mov         r3, #3, 10
  00180	e3a00000	 mov         r0, #0
  00184	e58d801c	 str         r8, [sp, #0x1C]
  00188	e58d7018	 str         r7, [sp, #0x18]
  0018c	e58d8014	 str         r8, [sp, #0x14]
  00190	e58d8010	 str         r8, [sp, #0x10]
  00194	e58da00c	 str         r10, [sp, #0xC]
  00198	e58de008	 str         lr, [sp, #8]
  0019c	e58d5004	 str         r5, [sp, #4]
  001a0	eb000000	 bl          CreateWindowExW

; 132  : 
; 133  :     h_label_bsp = CreateWindow(L"STATIC", cLabel_bsp, WS_VISIBLE | WS_CHILD, LABEL_X, LABEL_Y, LABEL_WIDTH, LABEL_BSPVER_HEIGHT, h_window, 0, hInstance, NULL);

  001a4	e59f4194	 ldr         r4, [pc, #0x194]
  001a8	e59f118c	 ldr         r1, [pc, #0x18C]
  001ac	e1a0e000	 mov         lr, r0
  001b0	e3a05032	 mov         r5, #0x32
  001b4	e3a0b00a	 mov         r11, #0xA
  001b8	e3a03205	 mov         r3, #5, 4
  001bc	e1a02006	 mov         r2, r6
  001c0	e3a00000	 mov         r0, #0
  001c4	e584e008	 str         lr, [r4, #8]
  001c8	e58d801c	 str         r8, [sp, #0x1C]
  001cc	e58d7018	 str         r7, [sp, #0x18]
  001d0	e58d8014	 str         r8, [sp, #0x14]
  001d4	e58de010	 str         lr, [sp, #0x10]
  001d8	e58d500c	 str         r5, [sp, #0xC]
  001dc	e58da008	 str         r10, [sp, #8]
  001e0	e58db004	 str         r11, [sp, #4]
  001e4	e58db000	 str         r11, [sp]
  001e8	eb000000	 bl          CreateWindowExW

; 134  : 	h_label_cpu = CreateWindow(L"STATIC", cLabel_cpu, WS_VISIBLE | WS_CHILD, LABEL_X, LABEL_Y + (LABEL_BSPVER_HEIGHT), LABEL_WIDTH, LABEL_HEIGHT, h_window, 0, hInstance, NULL);

  001ec	e5943008	 ldr         r3, [r4, #8]
  001f0	e58d801c	 str         r8, [sp, #0x1C]
  001f4	e5840004	 str         r0, [r4, #4]
  001f8	e58d3010	 str         r3, [sp, #0x10]
  001fc	e58d7018	 str         r7, [sp, #0x18]
  00200	e3a08014	 mov         r8, #0x14
  00204	e3a0a03c	 mov         r10, #0x3C
  00208	e3a0e000	 mov         lr, #0
  0020c	e59f1128	 ldr         r1, [pc, #0x128]
  00210	e58de014	 str         lr, [sp, #0x14]
  00214	e3a0e0a0	 mov         lr, #0xA0
  00218	e3a03205	 mov         r3, #5, 4
  0021c	e2862b01	 add         r2, r6, #1, 22
  00220	e3a00000	 mov         r0, #0
  00224	e58de008	 str         lr, [sp, #8]
  00228	e58d800c	 str         r8, [sp, #0xC]
  0022c	e58da004	 str         r10, [sp, #4]
  00230	e58db000	 str         r11, [sp]
  00234	eb000000	 bl          CreateWindowExW

; 135  : 	h_label_mem = CreateWindow(L"STATIC", cLabel_mem, WS_VISIBLE | WS_CHILD, LABEL_X, LABEL_Y + (LABEL_BSPVER_HEIGHT+LABEL_HEIGHT), LABEL_WIDTH, LABEL_HEIGHT, h_window, 0, hInstance, NULL);

  00238	e1a0e000	 mov         lr, r0
  0023c	e5943008	 ldr         r3, [r4, #8]
  00240	e584e010	 str         lr, [r4, #0x10]
  00244	e3a0e000	 mov         lr, #0
  00248	e59f10ec	 ldr         r1, [pc, #0xEC]
  0024c	e58de01c	 str         lr, [sp, #0x1C]
  00250	e58de014	 str         lr, [sp, #0x14]
  00254	e3a0e0a0	 mov         lr, #0xA0
  00258	e3a05050	 mov         r5, #0x50
  0025c	e58d3010	 str         r3, [sp, #0x10]
  00260	e3a03205	 mov         r3, #5, 4
  00264	e2862c02	 add         r2, r6, #2, 24
  00268	e3a00000	 mov         r0, #0
  0026c	e58de008	 str         lr, [sp, #8]
  00270	e58d7018	 str         r7, [sp, #0x18]
  00274	e58d800c	 str         r8, [sp, #0xC]
  00278	e58d5004	 str         r5, [sp, #4]
  0027c	e58db000	 str         r11, [sp]
  00280	eb000000	 bl          CreateWindowExW

; 136  : 
; 137  :     h_okBtn = CreateWindow(L"BUTTON", L"OK", WS_VISIBLE | WS_CHILD, OK_BUTTON_X, OK_BUTTON_Y, OK_BUTTON_WIDTH, OK_BUTTON_HEIGHT, h_window, 0, hInstance, NULL);

  00284	e5943008	 ldr         r3, [r4, #8]
  00288	e1a0e000	 mov         lr, r0
  0028c	e59f20a4	 ldr         r2, [pc, #0xA4]
  00290	e59f109c	 ldr         r1, [pc, #0x9C]
  00294	e584e00c	 str         lr, [r4, #0xC]
  00298	e58d3010	 str         r3, [sp, #0x10]
  0029c	e3a0e000	 mov         lr, #0
  002a0	e3a05019	 mov         r5, #0x19
  002a4	e3a06064	 mov         r6, #0x64
  002a8	e3a03205	 mov         r3, #5, 4
  002ac	e3a00000	 mov         r0, #0
  002b0	e58de01c	 str         lr, [sp, #0x1C]
  002b4	e58de014	 str         lr, [sp, #0x14]
  002b8	e58d7018	 str         r7, [sp, #0x18]
  002bc	e58d500c	 str         r5, [sp, #0xC]
  002c0	e58da008	 str         r10, [sp, #8]
  002c4	e58d6004	 str         r6, [sp, #4]
  002c8	e58da000	 str         r10, [sp]
  002cc	eb000000	 bl          CreateWindowExW
  002d0	e1a03000	 mov         r3, r0

; 138  : 
; 139  : 	// Diplay the window
; 140  :     ShowWindow(h_window, nCmdShow);

  002d4	e5940008	 ldr         r0, [r4, #8]
  002d8	e1a01009	 mov         r1, r9
  002dc	e5843000	 str         r3, [r4]
  002e0	eb000000	 bl          ShowWindow

; 141  :     UpdateWindow(h_window);

  002e4	e5940008	 ldr         r0, [r4, #8]
  002e8	eb000000	 bl          UpdateWindow

; 142  : 
; 143  :     // Message Loop
; 144  :     while(GetMessage(&Msg, NULL, 0, 0) > 0)

  002ec	ea000003	 b           |$LN9@WinMain|
  002f0		 |$LL2@WinMain|

; 145  :     {
; 146  :         TranslateMessage(&Msg);

  002f0	e28d0050	 add         r0, sp, #0x50
  002f4	eb000000	 bl          TranslateMessage

; 147  :         DispatchMessage(&Msg);

  002f8	e28d0050	 add         r0, sp, #0x50
  002fc	eb000000	 bl          DispatchMessageW
  00300		 |$LN9@WinMain|
  00300	e3a03000	 mov         r3, #0
  00304	e3a02000	 mov         r2, #0
  00308	e3a01000	 mov         r1, #0
  0030c	e28d0050	 add         r0, sp, #0x50
  00310	eb000000	 bl          GetMessageW
  00314	e3500000	 cmp         r0, #0
  00318	cafffff4	 bgt         |$LL2@WinMain|

; 148  :     }
; 149  : 
; 150  :     return Msg.wParam;

  0031c	e59d008c	 ldr         r0, [sp, #0x8C]
  00320	eb000000	 bl          __security_check_cookie
  00324	e59d0058	 ldr         r0, [sp, #0x58]
  00328		 |$LN4@WinMain|

; 151  : }

  00328	e28dd090	 add         sp, sp, #0x90
  0032c	e8bd4ff0	 ldmia       sp!, {r4 - r11, lr}
  00330	e12fff1e	 bx          lr
  00334		 |$LN13@WinMain|
  00334		 |$LN14@WinMain|
  00334	00000000	 DCD         |??_C@_1O@MOBNNEMB@?$AAB?$AAU?$AAT?$AAT?$AAO?$AAN?$AA?$AA@|
  00338		 |$LN15@WinMain|
  00338	00000000	 DCD         |??_C@_15PMCGDJNJ@?$AAO?$AAK?$AA?$AA@|
  0033c		 |$LN16@WinMain|
  0033c	00000000	 DCD         |??_C@_1O@ELLBDENI@?$AAS?$AAT?$AAA?$AAT?$AAI?$AAC?$AA?$AA@|
  00340		 |$LN17@WinMain|
  00340	00000000	 DCD         |?h_okBtn@@3PAUHWND__@@A|
  00344		 |$LN18@WinMain|
  00344	00000000	 DCD         |??_C@_1CA@PKGDFAGL@?$AAB?$AAS?$AAP?$AA?5?$AAI?$AAn?$AAf?$AAo?$AAr?$AAm?$AAa?$AAt?$AAi?$AAo?$AAn?$AA?$AA@|
  00348		 |$LN19@WinMain|
  00348	00000000	 DCD         |??_C@_15MMOGNHFI@?$AAM?$AAB?$AA?$AA@|
  0034c		 |$LN20@WinMain|
  0034c	00000000	 DCD         |??_C@_17MIGADKGF@?$AAM?$AAh?$AAz?$AA?$AA@|
  00350		 |$LN21@WinMain|
  00350	00000000	 DCD         |?cLabel_bsp@@3PAGA|
  00354		 |$LN22@WinMain|
  00354	01013080	 DCD         0x1013080
  00358		 |$LN23@WinMain|
  00358	00000000	 DCD         |??_C@_1DI@BBHHNHJJ@?$AAW?$AAi?$AAn?$AAd?$AAo?$AAw?$AA?5?$AAR?$AAe?$AAg?$AAi?$AAs?$AAt?$AAr?$AAa?$AAt?$AAi?$AAo?$AAn?$AA?5?$AAF?$AAa?$AAi?$AAl?$AAe?$AAd?$AA?$CB?$AA?$AA@|
  0035c		 |$LN24@WinMain|
  0035c	00000000	 DCD         |??_C@_1O@IGDMIDOM@?$AAE?$AAr?$AAr?$AAo?$AAr?$AA?$CB?$AA?$AA@|
  00360		 |$LN25@WinMain|
  00360	00000000	 DCD         |??_C@_1CA@FDDCNGDL@?$AAI?$AAn?$AAf?$AAo?$AAW?$AAi?$AAn?$AAd?$AAo?$AAw?$AAC?$AAl?$AAa?$AAs?$AAs?$AA?$AA@|
  00364		 |$LN26@WinMain|
  00364	00000000	 DCD         |?WndProc@@YAJPAUHWND__@@IIJ@Z|
  00368		 |$LN27@WinMain|
  00368	00000000	 DCD         |__security_cookie|
  0036c		 |$M39234|

			 ENDP  ; |WinMain|

	END
