 ebootnd

 Timestamp is 526f8216 (Tue Oct 29 17:38:30 2013)

 Preferred load address is 00000000

 Start         Length     Name                   Class
 0001:00000000 00000210H .astart                 CODE
 0001:00000210 0000e7ccH .rdata                  CODE
 0001:0000e9dc 00000024H .rdata$debug            CODE
 0001:0000ea00 0001badcH .text                   CODE
 0001:0002a4dc 0000005cH .xdata                  CODE
 0001:0002a538 00000000H .edata                  CODE
 0002:00000000 00000e4bH .data                   DATA
 0002:00000e60 0003fc98H .bss                    DATA
 0003:00000000 00000dd8H .pdata                  DATA

  Address         Publics by Value              Rva+Base       Lib:Object

 0000:00000000       ___safe_se_handler_table   00000000     <absolute>
 0000:00000000       ___safe_se_handler_count   00000000     <absolute>
 0001:00000000       StartUp                    00001000 f   startup.obj
 0001:000000c4       g_oalAddressTable          000010c4     startup.obj
 0001:0000016c       g_oalAddressTableHynix     0000116c     startup.obj
 0001:0000022c       ??_C@_1BK@GNCICGCB@?$AAN?$AAK?$AA?5?$AAf?$AAr?$AAo?$AAm?$AA?5?$AAN?$AAA?$AAN?$AAD?$AA?$AA@ 0000122c     main.obj
 0001:00000248       ??_C@_1BK@NKDLNHPK@?$AAU?$AAS?$AAB?$AAF?$AAn?$AA?5?$AAR?$AAN?$AAD?$AAI?$AAS?$AA?5?$AA?$AA@ 00001248     main.obj
 0001:00000264       ??_C@_1BI@OOCKPHGK@?$AAL?$AAA?$AAN?$AA9?$AA1?$AA1?$AA5?$AA?5?$AAM?$AAA?$AAC?$AA?$AA@ 00001264     main.obj
 0001:00000310       dwEbootECCtype             00001310     main.obj
 0001:00000500       ??_C@_1DO@MGHPPPEE@?$AAT?$AAP?$AAS?$AA6?$AA5?$AA9?$AAX?$AAX?$AA?5?$AAV?$AAe?$AAr?$AAs?$AAi?$AAo?$AAn?$AA?5?$AA0?$AAx?$AA?$CF?$AA0?$AA2?$AAx?$AA?5?$AA?$CI?$AA?$CF?$AAs?$AA?$CJ?$AA?$AN?$AA?6?$AA?$AA@ 00001500     main.obj
 0001:00000540       ??_C@_1M@OIJGKENB@?$AAE?$AAS?$AA1?$AA?4?$AA3?$AA?$AA@ 00001540     main.obj
 0001:00000550       ??_C@_1EE@KGKCAFPP@?$AAI?$AAN?$AAF?$AAO?$AA?3?$AA?5?$AAU?$AAn?$AAK?$AAn?$AAo?$AAw?$AAn?$AA?5?$AAC?$AAP?$AAU?$AA?5?$AAf?$AAa?$AAm?$AAi?$AAl?$AAy?$AA?3?$AA?$CF?$AAd?$AA?4?$AA?4?$AA?4?$AA?4?$AA?$AN@ 00001550     main.obj
 0001:00000594       ??_C@_08DGJGOJCE@EVM3530?9?$AA@ 00001594     main.obj
 0001:000005a0       ??_C@_07BFNEHID@Z2170P?9?$AA@ 000015a0     main.obj
 0001:000005a8       ??_C@_1EA@CNLHEJHC@?$AAT?$AAI?$AA?5?$AAO?$AAM?$AAA?$AAP?$AA?$CF?$AAx?$AA?5?$AAV?$AAe?$AAr?$AAs?$AAi?$AAo?$AAn?$AA?5?$AA0?$AAx?$AA?$CF?$AA0?$AA8?$AAx?$AA?5?$AA?$CI?$AA?$CF?$AAs?$AA?$CJ?$AA?$AN?$AA?6?$AA?$AA@ 000015a8     main.obj
 0001:000005e8       ??_C@_1BA@LEPJIIOK@?$AAU?$AAn?$AAk?$AAn?$AAo?$AAw?$AAn?$AA?$AA@ 000015e8     main.obj
 0001:000005f8       ??_C@_1M@FACKMDLE@?$AAE?$AAS?$AA1?$AA?4?$AA2?$AA?$AA@ 000015f8     main.obj
 0001:00000604       ??_C@_1M@ECJPGMFK@?$AAE?$AAS?$AA1?$AA?4?$AA1?$AA?$AA@ 00001604     main.obj
 0001:00000610       ??_C@_1M@LKGLCH@?$AAE?$AAS?$AA3?$AA?4?$AA1?$AA?$AA@ 00001610     main.obj
 0001:0000061c       ??_C@_1M@LIAGAMEC@?$AAE?$AAS?$AA3?$AA?4?$AA0?$AA?$AA@ 0000161c     main.obj
 0001:00000628       ??_C@_1DO@OPHFFOFA@?$AAE?$AAS?$AA2?$AA?4?$AA1?$AA?0?$AA?5?$AAI?$AAD?$AA?5?$AAd?$AAe?$AAt?$AAe?$AAr?$AAm?$AAi?$AAn?$AAe?$AAd?$AA?5?$AAu?$AAs?$AAi?$AAn?$AAg?$AA?5?$AAC?$AAR?$AAC?$AA?$AA@ 00001628     main.obj
 0001:00000668       ??_C@_1DO@OONAPHOG@?$AAE?$AAS?$AA2?$AA?4?$AA0?$AA?0?$AA?5?$AAI?$AAD?$AA?5?$AAd?$AAe?$AAt?$AAe?$AAr?$AAm?$AAi?$AAn?$AAe?$AAd?$AA?5?$AAu?$AAs?$AAi?$AAn?$AAg?$AA?5?$AAC?$AAR?$AAC?$AA?$AA@ 00001668     main.obj
 0001:000006a8       ??_C@_1M@MMBAGLLJ@?$AAE?$AAS?$AA2?$AA?4?$AA1?$AA?$AA@ 000016a8     main.obj
 0001:000006b4       ??_C@_1M@HEKMAMNM@?$AAE?$AAS?$AA2?$AA?4?$AA0?$AA?$AA@ 000016b4     main.obj
 0001:000006c0       ??_C@_1M@PKCDALDP@?$AAE?$AAS?$AA1?$AA?4?$AA0?$AA?$AA@ 000016c0     main.obj
 0001:000006cc       ??_C@_08POEMOLKO@17?338?313?$AA@ 000016cc     main.obj
 0001:000006d8       ??_C@_0M@HFAPAOAO@Oct?529?52013?$AA@ 000016d8     main.obj
 0001:000006e8       ??_C@_1HG@KGFFNHHE@?$AAZ?$AAE?$AAB?$AAE?$AAX?$AA?5?$AAW?$AAi?$AAn?$AAd?$AAo?$AAw?$AAs?$AA?5?$AAC?$AAE?$AA?5?$AAE?$AAB?$AAO?$AAO?$AAT?$AA?5?$AAf?$AAo?$AAr?$AA?5?$AAZ?$AA?9?$AA2?$AA1?$AA7@ 000016e8     main.obj
 0001:00000760       ??_C@_1CC@DJCPIFGO@?$AAV?$AAe?$AAr?$AAs?$AAi?$AAo?$AAn?$AA?3?$AA?5?$AA0?$AA?4?$AA0?$AA?4?$AA1?$AA?$AN?$AA?6?$AA?$AA@ 00001760     main.obj
 0001:00000788       ??_C@_1GG@GNNPKEFL@?$AAI?$AAN?$AAF?$AAO?$AA?3?$AA?5?$AAO?$AAE?$AAM?$AAP?$AAl?$AAa?$AAt?$AAf?$AAo?$AAr?$AAm?$AAD?$AAe?$AAi?$AAn?$AAi?$AAt?$AA?5?$AA?9?$AA?5?$AA?5?$AAD?$AAi?$AAs?$AAa?$AAb@ 00001788     main.obj
 0001:000007f0       ??_C@_1CK@FDDKFJJE@?$AA?9?$AAO?$AAE?$AAM?$AAM?$AAu?$AAl?$AAt?$AAi?$AAB?$AAi?$AAn?$AAN?$AAo?$AAt?$AAi?$AAf?$AAy?$AA?$AN?$AA?6?$AA?$AA@ 000017f0     main.obj
 0001:0000081c       ??_C@_1CG@JHMEBKAH@?$AAS?$AAp?$AAi?$AAn?$AA?5?$AAf?$AAo?$AAr?$AA?5?$AAe?$AAv?$AAe?$AAr?$AA?4?$AA?4?$AA?4?$AA?$AN?$AA?6?$AA?$AA@ 0000181c     main.obj
 0001:00000844       ??_C@_1DC@FNKKGJOD@?$AAD?$AAo?$AAw?$AAn?$AAl?$AAo?$AAa?$AAd?$AA?5?$AAf?$AAi?$AAl?$AAe?$AA?5?$AAt?$AAy?$AAp?$AAe?$AA?3?$AA?5?$AA?$CF?$AAd?$AA?$AN?$AA?6?$AA?$AA@ 00001844     main.obj
 0001:00000878       ??_C@_1DM@CJMKOEPD@?$AAU?$AAn?$AAs?$AAu?$AAp?$AAp?$AAo?$AAr?$AAt?$AAe?$AAd?$AA?5?$AAd?$AAo?$AAw?$AAn?$AAl?$AAo?$AAa?$AAd?$AAe?$AAd?$AA?5?$AAf?$AAi?$AAl?$AAe?$AA?$AN?$AA?6?$AA?$AA@ 00001878     main.obj
 0001:000008b4       ??_C@_08CMMENMPK@logo?4nb0?$AA@ 000018b4     main.obj
 0001:000008c0       ??_C@_1FC@BJIBFLEA@?$AAE?$AAR?$AAR?$AAO?$AAR?$AA?3?$AA?5?$AAM?$AAu?$AAl?$AAt?$AAi?$AAX?$AAI?$AAP?$AA?5?$AAi?$AAm?$AAa?$AAg?$AAe?$AA?5?$AAi?$AAs?$AA?5?$AAn?$AAo?$AAt?$AA?5?$AAs?$AAu?$AAp@ 000018c0     main.obj
 0001:00000918       ??_C@_1GG@NLHBBJNL@?$AA?$FL?$AA?$CF?$AAd?$AA?$FN?$AA?3?$AA?5?$AAA?$AAd?$AAd?$AAr?$AAe?$AAs?$AAs?$AA?$DN?$AA0?$AAx?$AA?$CF?$AA0?$AA8?$AAx?$AA?5?$AA?5?$AAL?$AAe?$AAn?$AAg?$AAt?$AAh?$AA?$DN?$AA0?$AAx?$AA?$CF@ 00001918     main.obj
 0001:00000980       ??_C@_1DK@OFMGKCPE@?$AAD?$AAo?$AAw?$AAn?$AAl?$AAo?$AAa?$AAd?$AA?5?$AAf?$AAi?$AAl?$AAe?$AA?5?$AAi?$AAn?$AAf?$AAo?$AAr?$AAm?$AAa?$AAt?$AAi?$AAo?$AAn?$AA?3?$AA?$AN?$AA?6?$AA?$AA@ 00001980     main.obj
 0001:000009c0       ??_C@_1HM@MNPMBDFE@?$AA?9?$AA?9?$AA?9?$AA?9?$AA?9?$AA?9?$AA?9?$AA?9?$AA?9?$AA?9?$AA?9?$AA?9?$AA?9?$AA?9?$AA?9?$AA?9?$AA?9?$AA?9?$AA?9?$AA?9?$AA?9?$AA?9?$AA?9?$AA?9?$AA?9?$AA?9?$AA?9?$AA?9?$AA?9?$AA?9?$AA?9?$AA?9@ 000019c0     main.obj
 0001:00000a40       ??_C@_1GC@BMCFFGLH@?$AAE?$AAR?$AAR?$AAO?$AAR?$AA?3?$AA?5?$AAO?$AAE?$AAM?$AAM?$AAa?$AAp?$AAM?$AAe?$AAm?$AAA?$AAd?$AAd?$AAr?$AA?3?$AA?5?$AAI?$AAn?$AAv?$AAa?$AAl?$AAi?$AAd?$AA?5?$AAd?$AAo@ 00001a40     main.obj
 0001:00000aa4       ??_C@_13JOFGPIOO@?$AA?4?$AA?$AA@ 00001aa4     main.obj
 0001:00000aa8       ??_C@_1CM@LKNPOFLB@?$AAb?$AAo?$AAo?$AAt?$AAD?$AAe?$AAv?$AAi?$AAc?$AAe?$AAT?$AAy?$AAp?$AAe?$AA?5?$AA?$DN?$AA?5?$AA?$CF?$AAd?$AA?$AN?$AA?6?$AA?$AA@ 00001aa8     main.obj
 0001:00000ad4       ??_C@_1CI@OKDMPKNO@?$AAL?$AAo?$AAg?$AAi?$AAc?$AAa?$AAl?$AAL?$AAo?$AAc?$AA?5?$AA?$DN?$AA?5?$AA0?$AAx?$AA?$CF?$AAx?$AA?$AN?$AA?6?$AA?$AA@ 00001ad4     main.obj
 0001:00000afc       ??_C@_1DO@OPINKPO@?$AAI?$AAn?$AAi?$AAt?$AAi?$AAa?$AAl?$AAi?$AAz?$AAe?$AA?5?$AAs?$AAh?$AAa?$AAr?$AAe?$AA?5?$AAA?$AAR?$AAG?$AAS?$AA?5?$AA?9?$AA?5?$AA0?$AAx?$AA?$CF?$AAx?$AA?$AN?$AA?6?$AA?$AA@ 00001afc     main.obj
 0001:00000b40       ??_C@_1KM@MLNPCLLF@?$AA?$AN?$AA?6?$AA?$DO?$AA?$DO?$AA?$DO?$AA?5?$AAF?$AAo?$AAr?$AAc?$AAi?$AAn?$AAg?$AA?5?$AAc?$AAo?$AAl?$AAd?$AA?5?$AAb?$AAo?$AAo?$AAt?$AA?5?$AA?$CI?$AAn?$AAo?$AAn?$AA?9?$AAp?$AAe?$AAr@ 00001b40     main.obj
 0001:00000bf0       ??_C@_1EA@EAGALJIK@?$AA?$AN?$AA?$DO?$AA?$DO?$AA?$DO?$AA?5?$AAN?$AAo?$AAw?$AA?5?$AAe?$AAn?$AAt?$AAr?$AAy?$AA?5?$AAc?$AAo?$AAl?$AAd?$AA?9?$AAr?$AAe?$AAs?$AAe?$AAt?$AA?4?$AA?4?$AA?4?$AA?5?$AA?$AN?$AA?6?$AA?$AA@ 00001bf0     main.obj
 0001:00000c30       ??_C@_1EA@JAEGLKFM@?$AA?$AN?$AA?$DO?$AA?$DO?$AA?$DO?$AA?5?$AAN?$AAo?$AAw?$AA?5?$AAe?$AAn?$AAt?$AAr?$AAy?$AA?5?$AAw?$AAa?$AAr?$AAm?$AA?9?$AAr?$AAe?$AAs?$AAe?$AAt?$AA?4?$AA?4?$AA?4?$AA?5?$AA?$AN?$AA?6?$AA?$AA@ 00001c30     main.obj
 0001:00000c70       ??_C@_1DE@IDJEJNKG@?$AAC?$AAl?$AAe?$AAa?$AAr?$AA?5?$AAs?$AAh?$AAa?$AAr?$AAe?$AA?5?$AAA?$AAR?$AAG?$AAS?$AA?5?$AA?9?$AA?5?$AA0?$AAx?$AA?$CF?$AAx?$AA?$AN?$AA?6?$AA?$AA@ 00001c70     main.obj
 0001:00000ca4       ??_C@_11LOCGONAA@?$AA?$AA@ 00001ca4     main.obj
 0001:00000ca8       ??_C@_1O@HJKNOJA@?$AAn?$AAk?$AA?4?$AAb?$AAi?$AAn?$AA?$AA@ 00001ca8     main.obj
 0001:00000cb8       ??_C@_1EC@IFKCAMGN@?$AAI?$AAN?$AAF?$AAO?$AA?3?$AA?5?$AAS?$AAW?$AA4?$AA?5?$AAb?$AAo?$AAo?$AAt?$AA?5?$AAs?$AAe?$AAt?$AAt?$AAi?$AAn?$AAg?$AA?3?$AA?5?$AA0?$AAx?$AA?$CF?$AA0?$AA2?$AAx?$AA?$AN?$AA?6@ 00001cb8     main.obj
 0001:00000d00       ??_C@_1GC@MEIINOMM@?$AAW?$AAA?$AAR?$AAN?$AA?3?$AA?5?$AAB?$AAo?$AAo?$AAt?$AA?5?$AAc?$AAo?$AAn?$AAf?$AAi?$AAg?$AA?5?$AAw?$AAa?$AAs?$AAn?$AA?8?$AAt?$AA?5?$AAf?$AAo?$AAu?$AAn?$AAd?$AA?0?$AA?5@ 00001d00     main.obj
 0001:00000d68       ??_C@_1EC@IBPJNEAL@?$AAI?$AAN?$AAF?$AAO?$AA?3?$AA?5?$AAB?$AAo?$AAo?$AAt?$AA?5?$AAc?$AAo?$AAn?$AAf?$AAi?$AAg?$AAu?$AAr?$AAa?$AAt?$AAi?$AAo?$AAn?$AA?5?$AAf?$AAo?$AAu?$AAn?$AAd?$AA?$AN?$AA?6@ 00001d68     main.obj
 0001:00000db0       ??_C@_1GI@OMOEGIPN@?$AAL?$AAa?$AAu?$AAn?$AAc?$AAh?$AA?5?$AAW?$AAi?$AAn?$AAd?$AAo?$AAw?$AAs?$AA?5?$AAC?$AAE?$AA?5?$AAi?$AAm?$AAa?$AAg?$AAe?$AA?5?$AAb?$AAy?$AA?5?$AAj?$AAu?$AAm?$AAp?$AAi@ 00001db0     main.obj
 0001:00000e18       ??_C@_1HO@MGHNOKAM@?$AAE?$AAR?$AAR?$AAO?$AAR?$AA?3?$AA?5?$AAO?$AAE?$AAM?$AAL?$AAa?$AAu?$AAn?$AAc?$AAh?$AA?3?$AA?5?$AAU?$AAn?$AAk?$AAn?$AAo?$AAw?$AAn?$AA?5?$AAi?$AAm?$AAa?$AAg?$AAe?$AA?5@ 00001e18     main.obj
 0001:00000e98       ??_C@_1GE@FBKDALPO@?$AAE?$AAR?$AAR?$AAO?$AAR?$AA?3?$AA?5?$AAO?$AAE?$AAM?$AAL?$AAa?$AAu?$AAn?$AAc?$AAh?$AA?3?$AA?5?$AAF?$AAl?$AAa?$AAs?$AAh?$AA?5?$AAN?$AAK?$AA?4?$AAb?$AAi?$AAn?$AA?5?$AAf@ 00001e98     main.obj
 0001:00000f00       ??_C@_1FC@IKOIDMGO@?$AAW?$AAr?$AAi?$AAt?$AAe?$AAF?$AAl?$AAa?$AAs?$AAh?$AAN?$AAK?$AA?3?$AA?5?$AAs?$AAt?$AAa?$AAr?$AAt?$AA?5?$AA?$DN?$AA?5?$AA0?$AAx?$AA?$CF?$AAx?$AA?0?$AAs?$AAi?$AAz?$AAe?$AA?5@ 00001f00     main.obj
 0001:00000f58       ??_C@_1HA@PPNIDEHG@?$AAE?$AAR?$AAR?$AAO?$AAR?$AA?3?$AA?5?$AAO?$AAE?$AAM?$AAL?$AAa?$AAu?$AAn?$AAc?$AAh?$AA?3?$AA?5?$AAU?$AAn?$AAk?$AAn?$AAo?$AAw?$AAn?$AA?5?$AAd?$AAo?$AAw?$AAn?$AAl?$AAo@ 00001f58     main.obj
 0001:00000fc8       ??_C@_1GA@LEGMELFL@?$AAI?$AAN?$AAF?$AAO?$AA?3?$AA?5?$AAX?$AAL?$AAD?$AAR?$AA?1?$AAE?$AAB?$AAO?$AAO?$AAT?$AA?1?$AAI?$AAP?$AAL?$AA?5?$AAd?$AAo?$AAw?$AAn?$AAl?$AAo?$AAa?$AAd?$AAe?$AAd?$AA?0@ 00001fc8     main.obj
 0001:00001028       ??_C@_1HA@LNJPPCBO@?$AAE?$AAR?$AAR?$AAO?$AAR?$AA?3?$AA?5?$AAO?$AAE?$AAM?$AAL?$AAa?$AAu?$AAn?$AAc?$AAh?$AA?3?$AA?5?$AAI?$AAm?$AAa?$AAg?$AAe?$AA?5?$AAl?$AAo?$AAa?$AAd?$AA?5?$AAf?$AAr?$AAo@ 00002028     main.obj
 0001:00001098       ??_C@_1GE@FFBNFJNC@?$AAI?$AAN?$AAF?$AAO?$AA?3?$AA?5?$AAS?$AAp?$AAl?$AAa?$AAs?$AAh?$AAc?$AAr?$AAe?$AAe?$AAn?$AA?5?$AAl?$AAo?$AAg?$AAo?$AA?5?$AAd?$AAo?$AAw?$AAn?$AAl?$AAo?$AAa?$AAd?$AAe@ 00002098     main.obj
 0001:00001100       ??_C@_1GK@MMIDCEGF@?$AA?$CL?$AAO?$AAE?$AAM?$AAL?$AAa?$AAu?$AAn?$AAc?$AAh?$AA?$CI?$AA0?$AAx?$AA?$CF?$AA0?$AA8?$AAx?$AA?0?$AA?5?$AA0?$AAx?$AA?$CF?$AA0?$AA8?$AAx?$AA?0?$AA?5?$AA0?$AAx?$AA?$CF?$AA0?$AA8@ 00002100     main.obj
 0001:0000116c       ??_C@_1CE@DFLFAFMD@?$AAE?$AAx?$AAi?$AAt?$AA?5?$AAa?$AAn?$AAd?$AA?5?$AAC?$AAo?$AAn?$AAt?$AAi?$AAn?$AAu?$AAe?$AA?$AA@ 0000216c     hotkey.obj
 0001:00001190       ??_C@_1BC@BIAHJJFB@?$AAR?$AAe?$AAs?$AAe?$AAr?$AAv?$AAe?$AAd?$AA?$AA@ 00002190     hotkey.obj
 0001:000011a4       ??_C@_1BI@BBLNBJAP@?$AAF?$AAi?$AAl?$AAe?$AA?5?$AAU?$AAp?$AAd?$AAa?$AAt?$AAe?$AA?$AA@ 000021a4     hotkey.obj
 0001:00001250       ??_C@_1DE@MDALDBDK@?$AAH?$AAo?$AAt?$AAK?$AAe?$AAy?$AAF?$AAu?$AAn?$AAc?$AAt?$AAi?$AAo?$AAn?$AA?3?$AA?5?$AA?$FL?$AA?$CF?$AAd?$AA?0?$AA?$CF?$AAd?$AA?$FN?$AA?$AN?$AA?6?$AA?$AA@ 00002250     hotkey.obj
 0001:00001284       ??_C@_15JNBOKNOG@?$AA?$AN?$AA?6?$AA?$AA@ 00002284     hotkey.obj
 0001:0000128c       ??_C@_1M@MGHLGJNG@?$AA?5?$AA?$FL?$AA?$CF?$AAd?$AA?$FN?$AA?$AA@ 0000228c     hotkey.obj
 0001:00001298       ??_C@_1DE@NBLBDNBC@?$AA?5?$AAH?$AAo?$AAt?$AAK?$AAe?$AAy?$AAF?$AAu?$AAn?$AAc?$AAt?$AAi?$AAo?$AAn?$AA?3?$AA?5?$AAm?$AAa?$AAt?$AAr?$AAi?$AAx?$AA?5?$AA?5?$AA?$AA@ 00002298     hotkey.obj
 0001:000012cc       ??_C@_1DI@MMKNJOJC@?$AA?5?$AA?$AN?$AA?$DO?$AA?$DO?$AA?$DO?$AA?5?$AAF?$AA1?$AA?3?$AA?5?$AAF?$AAi?$AAl?$AAe?$AA?5?$AAU?$AAp?$AAd?$AAa?$AAt?$AAe?$AA?4?$AA?4?$AA?4?$AA?5?$AA?$AN?$AA?6?$AA?$AA@ 000022cc     hotkey.obj
 0001:00001304       ??_C@_1DC@HAPNJIFJ@?$AA?5?$AA?$AN?$AA?$DO?$AA?$DO?$AA?$DO?$AA?5?$AAF?$AA2?$AA?3?$AA?5?$AAR?$AAe?$AAs?$AAe?$AAr?$AAv?$AAe?$AAd?$AA?4?$AA?4?$AA?4?$AA?5?$AA?$AN?$AA?6?$AA?$AA@ 00002304     hotkey.obj
 0001:00001338       ??_C@_1DC@LJDNGPKF@?$AA?5?$AA?$AN?$AA?$DO?$AA?$DO?$AA?$DO?$AA?5?$AAF?$AA4?$AA?3?$AA?5?$AAR?$AAe?$AAs?$AAe?$AAr?$AAv?$AAe?$AAd?$AA?4?$AA?4?$AA?4?$AA?5?$AA?$AN?$AA?6?$AA?$AA@ 00002338     hotkey.obj
 0001:0000136c       ??_C@_1DM@GDNHHHGA@?$AA?5?$AA?$AN?$AA?$DO?$AA?$DO?$AA?$DO?$AA?5?$AAE?$AAx?$AAi?$AAt?$AA?5?$AAa?$AAn?$AAd?$AA?5?$AAC?$AAo?$AAn?$AAt?$AAi?$AAn?$AAu?$AAe?$AA?4?$AA?4?$AA?4?$AA?5?$AA?$AN?$AA?6?$AA?$AA@ 0000236c     hotkey.obj
 0001:000014c8       ??_C@_1FK@IBMDHDI@?$AAM?$AAP?$AAU?$AA?$FL?$AA1?$AA0?$AA0?$AA0?$AAM?$AAh?$AAz?$AA?5?$AA?$EA?$AA?5?$AA1?$AA?4?$AA3?$AA7?$AA5?$AAV?$AA?$FN?$AA?0?$AA?5?$AAI?$AAV?$AAA?$AA2?$AA?$FL?$AA8?$AA0?$AA0?$AAM@ 000024c8     menu.obj
 0001:00001528       ??_C@_1FO@MCHCGGFD@?$AAM?$AAP?$AAU?$AA?$FL?$AA8?$AA0?$AA0?$AAM?$AAh?$AAz?$AA?5?$AA?5?$AA?$EA?$AA?5?$AA1?$AA?4?$AA2?$AA6?$AA2?$AA5?$AAV?$AA?$FN?$AA?0?$AA?5?$AAI?$AAV?$AAA?$AA2?$AA?$FL?$AA6?$AA6?$AA0@ 00002528     menu.obj
 0001:00001588       ??_C@_1FO@CAGHGIKC@?$AAM?$AAP?$AAU?$AA?$FL?$AA6?$AA0?$AA0?$AAM?$AAh?$AAz?$AA?5?$AA?5?$AA?$EA?$AA?5?$AA1?$AA?4?$AA1?$AA0?$AA0?$AA0?$AAV?$AA?$FN?$AA?0?$AA?5?$AAI?$AAV?$AAA?$AA2?$AA?$FL?$AA5?$AA2?$AA0@ 00002588     menu.obj
 0001:000015e8       ??_C@_1FO@ELABMNJD@?$AAM?$AAP?$AAU?$AA?$FL?$AA3?$AA0?$AA0?$AAM?$AAh?$AAz?$AA?5?$AA?5?$AA?$EA?$AA?5?$AA0?$AA?4?$AA9?$AA3?$AA7?$AA5?$AAV?$AA?$FN?$AA?0?$AA?5?$AAI?$AAV?$AAA?$AA2?$AA?$FL?$AA2?$AA6?$AA0@ 000025e8     menu.obj
 0001:00001648       ??_C@_1FG@KPBOKIAA@?$AAM?$AAP?$AAU?$AA?$FL?$AA7?$AA2?$AA0?$AAh?$AAz?$AA?5?$AA?$EA?$AA?5?$AA1?$AA?4?$AA3?$AA5?$AA0?$AA0?$AAV?$AA?$FN?$AA?0?$AA?5?$AAI?$AAV?$AAA?$AA2?$AA?$FL?$AA5?$AA2?$AA0?$AAM?$AAh@ 00002648     menu.obj
 0001:000016a0       ??_C@_1FI@GKLNGOFA@?$AAM?$AAP?$AAU?$AA?$FL?$AA6?$AA0?$AA0?$AAM?$AAh?$AAz?$AA?5?$AA?$EA?$AA?5?$AA1?$AA?4?$AA3?$AA5?$AA0?$AA0?$AAV?$AA?$FN?$AA?0?$AA?5?$AAI?$AAV?$AAA?$AA2?$AA?$FL?$AA4?$AA3?$AA0?$AAM@ 000026a0     menu.obj
 0001:000016f8       ??_C@_1FI@GMIAOKFE@?$AAM?$AAP?$AAU?$AA?$FL?$AA5?$AA5?$AA0?$AAM?$AAh?$AAz?$AA?5?$AA?$EA?$AA?5?$AA1?$AA?4?$AA2?$AA7?$AA5?$AA0?$AAV?$AA?$FN?$AA?0?$AA?5?$AAI?$AAV?$AAA?$AA2?$AA?$FL?$AA4?$AA0?$AA0?$AAM@ 000026f8     menu.obj
 0001:00001750       ??_C@_1FI@LNIHINJA@?$AAM?$AAP?$AAU?$AA?$FL?$AA5?$AA0?$AA0?$AAM?$AAh?$AAz?$AA?5?$AA?$EA?$AA?5?$AA1?$AA?4?$AA2?$AA0?$AA0?$AA0?$AAV?$AA?$FN?$AA?0?$AA?5?$AAI?$AAV?$AAA?$AA2?$AA?$FL?$AA3?$AA6?$AA0?$AAM@ 00002750     menu.obj
 0001:000017a8       ??_C@_1FG@IMGDNCBP@?$AAM?$AAP?$AAU?$AA?$FL?$AA2?$AA5?$AA0?$AAM?$AAh?$AAz?$AA?5?$AA?$EA?$AA?5?$AA1?$AA?4?$AA0?$AA0?$AA0?$AAV?$AA?$FN?$AA?0?$AA?5?$AAI?$AAV?$AAA?$AA2?$AA?$FL?$AA1?$AA8?$AA0?$AAM?$AAh@ 000027a8     menu.obj
 0001:00001800       ??_C@_1FI@HKFGBOFG@?$AAM?$AAP?$AAU?$AA?$FL?$AA1?$AA2?$AA5?$AAM?$AAh?$AAz?$AA?5?$AA?$EA?$AA?5?$AA0?$AA?4?$AA9?$AA7?$AA5?$AAV?$AA?$FN?$AA?0?$AA?5?$AAI?$AAV?$AAA?$AA2?$AA?$FL?$AA?5?$AA9?$AA0?$AAM?$AAh@ 00002800     menu.obj
 0001:00001858       ??_C@_1BM@KBHAINFM@?$AAI?$AAn?$AAv?$AAa?$AAl?$AAi?$AAd?$AA?5?$AAE?$AAn?$AAt?$AAr?$AAy?$AA?$AA@ 00002858     menu.obj
 0001:00001874       ??_C@_1CE@BMIKEEML@?$AAD?$AAV?$AAI?$AA?5?$AA1?$AA2?$AA8?$AA0?$AAx?$AA7?$AA2?$AA0?$AA?5?$AA6?$AA0?$AAH?$AAz?$AA?$AA@ 00002874     menu.obj
 0001:00001898       ??_C@_1CE@LJDPDOKE@?$AAD?$AAV?$AAI?$AA?5?$AA1?$AA0?$AA2?$AA4?$AAx?$AA7?$AA6?$AA8?$AA?5?$AA6?$AA0?$AAH?$AAz?$AA?$AA@ 00002898     menu.obj
 0001:000018bc       ??_C@_1CE@PMPMKBOJ@?$AAD?$AAV?$AAI?$AA?5?$AA?5?$AA8?$AA0?$AA0?$AAx?$AA6?$AA0?$AA0?$AA?5?$AA6?$AA0?$AAH?$AAz?$AA?$AA@ 000028bc     menu.obj
 0001:000018e0       ??_C@_1CE@IJMKDLHH@?$AAD?$AAV?$AAI?$AA?5?$AA?5?$AA6?$AA4?$AA0?$AAx?$AA4?$AA8?$AA0?$AA?5?$AA6?$AA0?$AAH?$AAz?$AA?$AA@ 000028e0     menu.obj
 0001:00001904       ??_C@_1CE@FKEPMAF@?$AAL?$AAC?$AAD?$AA?5?$AA?5?$AA4?$AA8?$AA0?$AAx?$AA6?$AA4?$AA0?$AA?5?$AA6?$AA0?$AAH?$AAz?$AA?$AA@ 00002904     menu.obj
 0001:00001928       ??_C@_1BE@FNAHCCDL@?$AAM?$AAa?$AAi?$AAn?$AA?5?$AAM?$AAe?$AAn?$AAu?$AA?$AA@ 00002928     menu.obj
 0001:0000193c       ??_C@_1CA@MOPOGELI@?$AAS?$AAe?$AAl?$AAe?$AAc?$AAt?$AA?5?$AAO?$AAP?$AAP?$AA?5?$AAM?$AAo?$AAd?$AAe?$AA?$AA@ 0000293c     menu.obj
 0001:0000195c       ??_C@_19FNGKFHMA@?$AAT?$AAe?$AAs?$AAt?$AA?$AA@ 0000295c     menu.obj
 0001:00001968       ??_C@_1EG@HMEOLENI@?$AAE?$AAn?$AAa?$AAb?$AAl?$AAe?$AA?1?$AAD?$AAi?$AAs?$AAa?$AAb?$AAl?$AAe?$AA?5?$AAO?$AAA?$AAL?$AA?5?$AAR?$AAe?$AAt?$AAa?$AAi?$AAl?$AA?5?$AAM?$AAe?$AAs?$AAs?$AAa?$AAg@ 00002968     menu.obj
 0001:000019b0       ??_C@_1BM@MOEMNNDE@?$AAS?$AAa?$AAv?$AAe?$AA?5?$AAS?$AAe?$AAt?$AAt?$AAi?$AAn?$AAg?$AAs?$AA?$AA@ 000029b0     menu.obj
 0001:000019cc       ??_C@_1BA@MECCPMOL@?$AAS?$AAe?$AAt?$AA?5?$AAS?$AA?1?$AAN?$AA?$AA@ 000029cc     menu.obj
 0001:000019dc       ??_C@_1CC@GBKCLJHP@?$AAF?$AAl?$AAa?$AAs?$AAh?$AA?5?$AAM?$AAa?$AAn?$AAa?$AAg?$AAe?$AAm?$AAe?$AAn?$AAt?$AA?$AA@ 000029dc     menu.obj
 0001:00001a00       ??_C@_1CM@CFLHLMJF@?$AAS?$AAh?$AAo?$AAw?$AA?5?$AAC?$AAu?$AAr?$AAr?$AAe?$AAn?$AAt?$AA?5?$AAS?$AAe?$AAt?$AAt?$AAi?$AAn?$AAg?$AAs?$AA?$AA@ 00002a00     menu.obj
 0001:00001ac0       ??_C@_1FM@KKEGFMMC@?$AAH?$AAi?$AAt?$AA?5?$AAs?$AAp?$AAa?$AAc?$AAe?$AA?5?$AAt?$AAo?$AA?5?$AAe?$AAn?$AAt?$AAe?$AAr?$AA?5?$AAc?$AAo?$AAn?$AAf?$AAi?$AAg?$AAu?$AAr?$AAa?$AAt?$AAi?$AAo?$AAn@ 00002ac0     menu.obj
 0001:00001b1c       ??_C@_1DE@FKCOLIJA@?$AA?5?$AA?5?$AAF?$AAl?$AAa?$AAs?$AAh?$AAi?$AAn?$AAg?$AA?5?$AAN?$AAK?$AA?4?$AAb?$AAi?$AAn?$AA?3?$AA?5?$AA?5?$AA?5?$AA?$CF?$AAs?$AA?$AN?$AA?6?$AA?$AA@ 00002b1c     menu.obj
 0001:00001b50       ??_C@_1CG@OIGCIHAG@?$AA?5?$AA?5?$AAO?$AAP?$AAP?$AA?5?$AAM?$AAo?$AAd?$AAe?$AA?3?$AA?5?$AA?5?$AA?5?$AA?$CF?$AAs?$AA?$AN?$AA?6?$AA?$AA@ 00002b50     menu.obj
 0001:00001b78       ??_C@_1CM@JIGPKFND@?$AA?5?$AA?5?$AAR?$AAe?$AAt?$AAa?$AAi?$AAl?$AA?5?$AAM?$AAs?$AAg?$AAs?$AA?3?$AA?5?$AA?5?$AA?5?$AA?$CF?$AAs?$AA?$AN?$AA?6?$AA?$AA@ 00002b78     menu.obj
 0001:00001ba4       ??_C@_1CA@GEJBEGHK@?$AA?5?$AA?5?$AAS?$AA?1?$AAN?$AA?3?$AA?5?$AA?5?$AA?5?$AA?5?$AA?5?$AA?$CF?$AAs?$AA?$AN?$AA?6?$AA?$AA@ 00002ba4     menu.obj
 0001:00001bc4       ??_C@_1BC@LGPIFEA@?$AAd?$AAi?$AAs?$AAa?$AAb?$AAl?$AAe?$AAd?$AA?$AA@ 00002bc4     menu.obj
 0001:00001bd8       ??_C@_1BA@BKMGIBPB@?$AAe?$AAn?$AAa?$AAb?$AAl?$AAe?$AAd?$AA?$AA@ 00002bd8     menu.obj
 0001:00001be8       ??_C@_1CM@NPGGEGKD@?$AA?5?$AA?5?$AAD?$AAe?$AAb?$AAu?$AAg?$AA?5?$AAd?$AAe?$AAv?$AAi?$AAc?$AAe?$AA?3?$AA?5?$AA?5?$AA?$CF?$AAs?$AA?$AN?$AA?6?$AA?$AA@ 00002be8     menu.obj
 0001:00001c14       ??_C@_1BM@PMDNGDGM@?$AAn?$AAo?$AAt?$AA?5?$AAs?$AAp?$AAe?$AAc?$AAi?$AAf?$AAi?$AAe?$AAd?$AA?$AA@ 00002c14     menu.obj
 0001:00001c30       ??_C@_1BG@CEFCIDHI@?$AA?$AN?$AA?6?$AA?5?$AAM?$AAa?$AAi?$AAn?$AA?3?$AA?$AN?$AA?6?$AA?$AA@ 00002c30     menu.obj
 0001:00001c48       ??_C@_1CM@IGJFNOHM@?$AA?5?$AA?5?$AAB?$AAo?$AAo?$AAt?$AA?5?$AAd?$AAe?$AAv?$AAi?$AAc?$AAe?$AA?3?$AA?5?$AA?5?$AA?5?$AA?$CF?$AAs?$AA?$AN?$AA?6?$AA?$AA@ 00002c48     menu.obj
 0001:00001c74       ??_C@_1CI@CKGGDGOD@?$AA?5?$AAC?$AAu?$AAr?$AAr?$AAe?$AAn?$AAt?$AA?5?$AAS?$AA?1?$AAN?$AA?3?$AA?5?$AA?5?$AA?$CF?$AAs?$AA?$AN?$AA?6?$AA?$AA@ 00002c74     menu.obj
 0001:00001c9c       ??_C@_1BK@EHKHMELD@?$AA?$AN?$AA?6?$AA?5?$AAN?$AAe?$AAw?$AA?5?$AAS?$AA?1?$AAN?$AA?3?$AA?5?$AA?$AA@ 00002c9c     menu.obj
 0001:00001cb8       ??_C@_1DO@IPDMADGH@?$AA?5?$AAO?$AAA?$AAL?$AA?5?$AAR?$AAe?$AAt?$AAa?$AAi?$AAl?$AA?5?$AAM?$AAe?$AAs?$AAs?$AAa?$AAg?$AAe?$AAs?$AA?5?$AAe?$AAn?$AAa?$AAb?$AAl?$AAe?$AAd?$AA?$AN?$AA?6?$AA?$AA@ 00002cb8     menu.obj
 0001:00001cf8       ??_C@_1EA@EDIKANLP@?$AA?5?$AAO?$AAA?$AAL?$AA?5?$AAR?$AAe?$AAt?$AAa?$AAi?$AAl?$AA?5?$AAM?$AAe?$AAs?$AAs?$AAa?$AAg?$AAe?$AAs?$AA?5?$AAd?$AAi?$AAs?$AAa?$AAb?$AAl?$AAe?$AAd?$AA?$AN?$AA?6?$AA?$AA@ 00002cf8     menu.obj
 0001:00001d38       ??_C@_19DIEGALPP@?$AA?$CF?$AAc?$AA?$AN?$AA?6?$AA?$AA@ 00002d38     menu.obj
 0001:00001d48       ??_C@_1EI@IEOEJKJK@?$AA?5?$AAE?$AAn?$AAa?$AAb?$AAl?$AAe?$AA?5?$AAO?$AAA?$AAL?$AA?5?$AAR?$AAe?$AAt?$AAa?$AAi?$AAl?$AA?5?$AAM?$AAe?$AAs?$AAs?$AAa?$AAg?$AAe?$AAs?$AA?5?$AA?$FL?$AAy?$AA?1?$AA?9@ 00002d48     menu.obj
 0001:00001d90       ??_C@_1EK@NMKAIECH@?$AA?5?$AAD?$AAi?$AAs?$AAa?$AAb?$AAl?$AAe?$AA?5?$AAO?$AAA?$AAL?$AA?5?$AAR?$AAe?$AAt?$AAa?$AAi?$AAl?$AA?5?$AAM?$AAe?$AAs?$AAs?$AAa?$AAg?$AAe?$AAs?$AA?5?$AA?$FL?$AAy?$AA?1@ 00002d90     menu.obj
 0001:00001ddc       ??_C@_1DC@KGICMHCL@?$AA?5?$AA?$FL?$AA0?$AA?$FN?$AA?5?$AAE?$AAx?$AAi?$AAt?$AA?5?$AAa?$AAn?$AAd?$AA?5?$AAC?$AAo?$AAn?$AAt?$AAi?$AAn?$AAu?$AAe?$AA?$AN?$AA?6?$AA?$AA@ 00002ddc     menu.obj
 0001:00001e10       ??_C@_1DK@EBBOCKOO@?$AA?$AN?$AA?6?$AA?5?$AAS?$AAe?$AAl?$AAe?$AAc?$AAt?$AAi?$AAo?$AAn?$AA?5?$AA?$CI?$AAa?$AAc?$AAt?$AAu?$AAa?$AAl?$AA?5?$AA?$FL?$AA?$CF?$AAs?$AA?$FN?$AA?$CJ?$AA?3?$AA?5?$AA?$AA@ 00002e10     menu.obj
 0001:00001e4c       ??_C@_1BG@LMIBJJCD@?$AA?5?$AA?$FL?$AA?$CF?$AAd?$AA?$FN?$AA?5?$AA?$CF?$AAs?$AA?$AN?$AA?6?$AA?$AA@ 00002e4c     menu.obj
 0001:00001e64       ??_C@_1DO@GCBJIIGC@?$AAE?$AAR?$AAR?$AAO?$AAR?$AA?3?$AA?5?$AAS?$AAe?$AAt?$AAt?$AAi?$AAn?$AAg?$AAs?$AA?5?$AAs?$AAa?$AAv?$AAe?$AA?5?$AAf?$AAa?$AAi?$AAl?$AAe?$AAd?$AA?$CB?$AA?$AN?$AA?6?$AA?$AA@ 00002e64     menu.obj
 0001:00001ea8       ??_C@_1EG@EPHHPOIA@?$AA?5?$AAC?$AAu?$AAr?$AAr?$AAe?$AAn?$AAt?$AA?5?$AAs?$AAe?$AAt?$AAt?$AAi?$AAn?$AAg?$AAs?$AA?5?$AAh?$AAa?$AAs?$AA?5?$AAb?$AAe?$AAe?$AAn?$AA?5?$AAs?$AAa?$AAv?$AAe?$AAd@ 00002ea8     menu.obj
 0001:00001ef0       ??_C@_1FG@NGGODBPB@?$AA?5?$AAD?$AAo?$AA?5?$AAy?$AAo?$AAu?$AA?5?$AAw?$AAa?$AAn?$AAt?$AA?5?$AAs?$AAa?$AAv?$AAe?$AA?5?$AAc?$AAu?$AAr?$AAr?$AAe?$AAn?$AAt?$AA?5?$AAs?$AAe?$AAt?$AAt?$AAi?$AAn@ 00002ef0     menu.obj
 0001:00001fd8       ??_C@_1BK@JPPJHKGA@?$AAS?$AAe?$AAt?$AA?5?$AAE?$AAC?$AAC?$AA?5?$AAm?$AAo?$AAd?$AAe?$AA?$AA@ 00002fd8     flashmenu.obj
 0001:00001ff4       ??_C@_1CO@EGKANGDF@?$AAE?$AAn?$AAa?$AAb?$AAl?$AAe?$AA?5?$AAf?$AAl?$AAa?$AAs?$AAh?$AAi?$AAn?$AAg?$AA?5?$AAN?$AAK?$AA?4?$AAb?$AAi?$AAn?$AA?$AA@ 00002ff4     flashmenu.obj
 0001:00002024       ??_C@_1BK@GBFAOEGL@?$AAF?$AAo?$AAr?$AAm?$AAa?$AAt?$AA?5?$AAf?$AAl?$AAa?$AAs?$AAh?$AA?$AA@ 00003024     flashmenu.obj
 0001:00002040       ??_C@_1BM@GCHGGBGE@?$AAS?$AAe?$AAt?$AA?5?$AAb?$AAa?$AAd?$AA?5?$AAb?$AAl?$AAo?$AAc?$AAk?$AA?$AA@ 00003040     flashmenu.obj
 0001:0000205c       ??_C@_1CI@NOBBAEFH@?$AAR?$AAe?$AAs?$AAe?$AAr?$AAv?$AAe?$AA?5?$AAb?$AAl?$AAo?$AAc?$AAk?$AA?5?$AAr?$AAa?$AAn?$AAg?$AAe?$AA?$AA@ 0000305c     flashmenu.obj
 0001:00002084       ??_C@_1CE@GGLAHODL@?$AAE?$AAr?$AAa?$AAs?$AAe?$AA?5?$AAb?$AAl?$AAo?$AAc?$AAk?$AA?5?$AAr?$AAa?$AAn?$AAg?$AAe?$AA?$AA@ 00003084     flashmenu.obj
 0001:000020a8       ??_C@_1BI@NDJHIBFP@?$AAE?$AAr?$AAa?$AAs?$AAe?$AA?5?$AAf?$AAl?$AAa?$AAs?$AAh?$AA?$AA@ 000030a8     flashmenu.obj
 0001:000020c0       ??_C@_1CE@IKOIJPJI@?$AAD?$AAu?$AAm?$AAp?$AA?5?$AAf?$AAl?$AAa?$AAs?$AAh?$AA?5?$AAs?$AAe?$AAc?$AAt?$AAo?$AAr?$AA?$AA@ 000030c0     flashmenu.obj
 0001:000020e4       ??_C@_1CI@NOIANDIC@?$AAS?$AAh?$AAo?$AAw?$AA?5?$AAf?$AAl?$AAa?$AAs?$AAh?$AA?5?$AAg?$AAe?$AAo?$AAm?$AAe?$AAt?$AAr?$AAy?$AA?$AA@ 000030e4     flashmenu.obj
 0001:000021a0       ??_C@_1BA@ICKOCNOC@?$AA?5?$AAD?$AAo?$AAn?$AAe?$AA?$AN?$AA?6?$AA?$AA@ 000031a0     flashmenu.obj
 0001:000021b0       ??_C@_1BK@NJMFPCLL@?$AA?$AN?$AA?6?$AA?$FL?$AAr?$AAe?$AAs?$AAe?$AAr?$AAv?$AAe?$AAd?$AA?$FN?$AA?$AA@ 000031b0     flashmenu.obj
 0001:000021cc       ??_C@_17IAIOLGBB@?$AA?5?$AA?$CF?$AAd?$AA?$AA@ 000031cc     flashmenu.obj
 0001:000021d4       ??_C@_1BK@LJFBNMNP@?$AA?$AN?$AA?6?$AA?$FL?$AAb?$AAa?$AAd?$AA?$FN?$AA?5?$AA?5?$AA?5?$AA?5?$AA?5?$AA?$AA@ 000031d4     flashmenu.obj
 0001:000021f0       ??_C@_1CC@CKACAODM@?$AA?5?$AAE?$AAC?$AAC?$AA?5?$AAm?$AAo?$AAd?$AAe?$AA?3?$AA?5?$AA?5?$AA?$CF?$AAs?$AA?$AN?$AA?6?$AA?$AA@ 000031f0     flashmenu.obj
 0001:00002214       ??_C@_1CC@EDJAHKCB@?$AAH?$AAa?$AAm?$AAm?$AAi?$AAn?$AAg?$AA?5?$AA1?$AAb?$AAi?$AAt?$AA?5?$AAE?$AAC?$AAC?$AA?$AA@ 00003214     flashmenu.obj
 0001:00002238       ??_C@_1BK@HLJGHKLA@?$AAB?$AAC?$AAH?$AA?5?$AA4?$AAb?$AAi?$AAt?$AA?5?$AAE?$AAC?$AAC?$AA?$AA@ 00003238     flashmenu.obj
 0001:00002254       ??_C@_1BK@GHGPADLK@?$AAB?$AAC?$AAH?$AA?5?$AA8?$AAb?$AAi?$AAt?$AA?5?$AAE?$AAC?$AAC?$AA?$AA@ 00003254     flashmenu.obj
 0001:00002270       ??_C@_1CK@GKLBIPDL@?$AA?5?$AAF?$AAl?$AAa?$AAs?$AAh?$AA?5?$AAT?$AAy?$AAp?$AAe?$AA?3?$AA?5?$AA?5?$AA?5?$AA?5?$AA?$CF?$AAs?$AA?$AN?$AA?6?$AA?$AA@ 00003270     flashmenu.obj
 0001:0000229c       ??_C@_1CK@FFMHKDOJ@?$AA?5?$AAB?$AAl?$AAo?$AAc?$AAk?$AAs?$AA?3?$AA?5?$AA?5?$AA?5?$AA?5?$AA?5?$AA?5?$AA?5?$AA?5?$AA?$CF?$AAd?$AA?$AN?$AA?6?$AA?$AA@ 0000329c     flashmenu.obj
 0001:000022c8       ??_C@_1CK@IKGPGDPJ@?$AA?5?$AAB?$AAy?$AAt?$AAe?$AAs?$AA?1?$AAb?$AAl?$AAo?$AAc?$AAk?$AA?3?$AA?5?$AA?5?$AA?5?$AA?$CF?$AAd?$AA?$AN?$AA?6?$AA?$AA@ 000032c8     flashmenu.obj
 0001:000022f4       ??_C@_1CK@OCGGJEJ@?$AA?5?$AAS?$AAe?$AAc?$AAt?$AAo?$AAr?$AAs?$AA?1?$AAb?$AAl?$AAo?$AAc?$AAk?$AA?3?$AA?5?$AA?$CF?$AAd?$AA?$AN?$AA?6?$AA?$AA@ 000032f4     flashmenu.obj
 0001:00002320       ??_C@_1CK@KEDBKDHI@?$AA?5?$AAB?$AAy?$AAt?$AAe?$AAs?$AA?1?$AAs?$AAe?$AAc?$AAt?$AAo?$AAr?$AA?3?$AA?5?$AA?5?$AA?$CF?$AAd?$AA?$AN?$AA?6?$AA?$AA@ 00003320     flashmenu.obj
 0001:0000234c       ??_C@_19FIBFMGJP@?$AAN?$AAA?$AAN?$AAD?$AA?$AA@ 0000334c     flashmenu.obj
 0001:00002358       ??_C@_17DJMAIPNJ@?$AAN?$AAO?$AAR?$AA?$AA@ 00003358     flashmenu.obj
 0001:00002360       ??_C@_1EO@FMHOCAJM@?$AA?5?$AAO?$AAo?$AAp?$AAs?$AA?0?$AA?5?$AAc?$AAa?$AAn?$AA?8?$AAt?$AA?5?$AAg?$AAe?$AAt?$AA?5?$AAf?$AAl?$AAa?$AAs?$AAh?$AA?5?$AAg?$AAe?$AAo?$AAm?$AAe?$AAt?$AAr?$AAy?$AA?5@ 00003360     flashmenu.obj
 0001:000023b0       ??_C@_1DO@ECBGAOKH@?$AA?5?$AAO?$AAo?$AAp?$AAs?$AA?0?$AA?5?$AAc?$AAa?$AAn?$AA?8?$AAt?$AA?5?$AAo?$AAp?$AAe?$AAn?$AA?5?$AAF?$AAM?$AAD?$AA?5?$AAd?$AAr?$AAi?$AAv?$AAe?$AAr?$AA?$AN?$AA?6?$AA?$AA@ 000033b0     flashmenu.obj
 0001:000023f0       ??_C@_1FI@LPGEHBMI@?$AA?5?$AAO?$AAo?$AAp?$AAs?$AA?0?$AA?5?$AAc?$AAa?$AAn?$AA?8?$AAt?$AA?5?$AAe?$AAr?$AAa?$AAs?$AAe?$AA?5?$AAb?$AAl?$AAo?$AAc?$AAk?$AA?5?$AA?$CF?$AAd?$AA?5?$AA?9?$AA?5?$AAm?$AAa@ 000033f0     flashmenu.obj
 0001:00002448       ??_C@_1DE@FDJBJKAL@?$AA?5?$AAS?$AAk?$AAi?$AAp?$AA?5?$AAr?$AAe?$AAs?$AAe?$AAr?$AAv?$AAe?$AAd?$AA?5?$AAb?$AAl?$AAo?$AAc?$AAk?$AA?5?$AA?$CF?$AAd?$AA?$AN?$AA?6?$AA?$AA@ 00003448     flashmenu.obj
 0001:0000247c       ??_C@_1CK@FKCECPDI@?$AA?5?$AAS?$AAk?$AAi?$AAp?$AA?5?$AAb?$AAa?$AAd?$AA?5?$AAb?$AAl?$AAo?$AAc?$AAk?$AA?5?$AA?$CF?$AAd?$AA?$AN?$AA?6?$AA?$AA@ 0000347c     flashmenu.obj
 0001:000024a8       ??_C@_1GA@KKFAKMFP@?$AA?5?$AAD?$AAo?$AA?5?$AAy?$AAo?$AAu?$AA?5?$AAw?$AAa?$AAn?$AAt?$AA?5?$AAt?$AAo?$AA?5?$AAe?$AAr?$AAa?$AAs?$AAe?$AA?5?$AAu?$AAn?$AAr?$AAe?$AAs?$AAe?$AAr?$AAv?$AAe?$AAd@ 000034a8     flashmenu.obj
 0001:00002508       ??_C@_1FG@KMEBKKAG@?$AA?5?$AAD?$AAo?$AA?5?$AAy?$AAo?$AAu?$AA?5?$AAw?$AAa?$AAn?$AAt?$AA?5?$AAt?$AAo?$AA?5?$AAe?$AAr?$AAa?$AAs?$AAe?$AA?5?$AAb?$AAa?$AAd?$AA?5?$AAb?$AAl?$AAo?$AAc?$AAk?$AA?5@ 00003508     flashmenu.obj
 0001:00002560       ??_C@_1GA@IMHNOHDN@?$AA?5?$AAD?$AAo?$AA?5?$AAy?$AAo?$AAu?$AA?5?$AAw?$AAa?$AAn?$AAt?$AA?5?$AAt?$AAo?$AA?5?$AAe?$AAr?$AAa?$AAs?$AAe?$AA?5?$AAr?$AAe?$AAs?$AAe?$AAr?$AAv?$AAe?$AAd?$AA?5?$AAb@ 00003560     flashmenu.obj
 0001:000025c0       ??_C@_1EO@FLJCJNNB@?$AA?5?$AAD?$AAo?$AA?5?$AAy?$AAo?$AAu?$AA?5?$AAw?$AAa?$AAn?$AAt?$AA?5?$AAe?$AAr?$AAa?$AAs?$AAe?$AA?5?$AAb?$AAl?$AAo?$AAc?$AAk?$AA?5?$AA?$CF?$AAd?$AA?9?$AA?$CF?$AAd?$AA?5?$AA?$FL@ 000035c0     flashmenu.obj
 0001:00002610       ??_C@_1DM@MPGKHCCK@?$AA?5?$AAO?$AAo?$AAp?$AAs?$AA?0?$AA?5?$AAt?$AAo?$AAo?$AA?5?$AAb?$AAi?$AAg?$AA?5?$AAb?$AAl?$AAo?$AAc?$AAk?$AA?5?$AAn?$AAu?$AAm?$AAb?$AAe?$AAr?$AA?$AN?$AA?6?$AA?$AA@ 00003610     flashmenu.obj
 0001:0000264c       ??_C@_1CO@CKBOHOON@?$AA?$AN?$AA?6?$AA?5?$AAL?$AAa?$AAs?$AAt?$AA?5?$AAB?$AAl?$AAo?$AAc?$AAk?$AA?5?$AAN?$AAu?$AAm?$AAb?$AAe?$AAr?$AA?3?$AA?5?$AA?$AA@ 0000364c     flashmenu.obj
 0001:0000267c       ??_C@_1DA@LGLONGJJ@?$AA?$AN?$AA?6?$AA?5?$AAF?$AAi?$AAr?$AAs?$AAt?$AA?5?$AAB?$AAl?$AAo?$AAc?$AAk?$AA?5?$AAN?$AAu?$AAm?$AAb?$AAe?$AAr?$AA?3?$AA?5?$AA?$AA@ 0000367c     flashmenu.obj
 0001:000026b0       ??_C@_1FG@GECOJCBP@?$AA?5?$AAO?$AAo?$AAp?$AAs?$AA?0?$AA?5?$AAc?$AAa?$AAn?$AA?8?$AAt?$AA?5?$AAm?$AAa?$AAr?$AAk?$AA?5?$AAb?$AAl?$AAo?$AAc?$AAk?$AA?5?$AA?$CF?$AAd?$AA?5?$AA?9?$AA?5?$AAa?$AAs?$AA?5@ 000036b0     flashmenu.obj
 0001:00002708       ??_C@_1GE@KHHGLGPF@?$AA?5?$AAD?$AAo?$AA?5?$AAy?$AAo?$AAu?$AA?5?$AAw?$AAa?$AAn?$AAt?$AA?5?$AAm?$AAa?$AAr?$AAk?$AA?5?$AAa?$AAs?$AA?5?$AAr?$AAe?$AAs?$AAe?$AAr?$AAv?$AAe?$AAd?$AA?5?$AAb?$AAl@ 00003708     flashmenu.obj
 0001:0000276c       ??_C@_15DAMPJCDE@?$AA?$CF?$AAc?$AA?$AA@ 0000376c     flashmenu.obj
 0001:00002774       ??_C@_15OJKDPEFE@?$AA?5?$AA?5?$AA?$AA@ 00003774     flashmenu.obj
 0001:0000277c       ??_C@_1M@FHJLFHFE@?$AA?5?$AA?$CF?$AA0?$AA2?$AAx?$AA?$AA@ 0000377c     flashmenu.obj
 0001:00002788       ??_C@_1M@CKIPGKFF@?$AA?$CF?$AA0?$AA4?$AAx?$AA?5?$AA?$AA@ 00003788     flashmenu.obj
 0001:00002798       ??_C@_1EM@JNIBIIAB@?$AA?$AN?$AA?6?$AAS?$AAe?$AAc?$AAt?$AAo?$AAr?$AA?5?$AA?$CF?$AAd?$AA?5?$AA?$CI?$AAs?$AAe?$AAc?$AAt?$AAo?$AAr?$AA?5?$AA?$CF?$AAd?$AA?5?$AAi?$AAn?$AA?5?$AAb?$AAl?$AAo?$AAc?$AAk?$AA?5@ 00003798     flashmenu.obj
 0001:000027e8       ??_C@_1HM@NEKLJOFD@?$AAR?$AAe?$AAs?$AAe?$AAr?$AAv?$AAe?$AAd?$AA1?$AA?3?$AA?5?$AA?$CF?$AA0?$AA8?$AAx?$AA?5?$AAO?$AAE?$AAM?$AAR?$AAe?$AAs?$AAe?$AAr?$AAv?$AAe?$AAd?$AA?3?$AA?5?$AA?$CF?$AA0?$AA2@ 000037e8     flashmenu.obj
 0001:00002864       ??_C@_1DI@NODDJIFB@?$AA?5?$AAO?$AAo?$AAp?$AAs?$AA?0?$AA?5?$AAs?$AAe?$AAc?$AAt?$AAo?$AAr?$AA?5?$AAr?$AAe?$AAa?$AAd?$AA?5?$AAf?$AAa?$AAi?$AAl?$AAe?$AAd?$AA?$AN?$AA?6?$AA?$AA@ 00003864     flashmenu.obj
 0001:0000289c       ??_C@_1DO@OOAFHGFN@?$AA?5?$AAO?$AAo?$AAp?$AAs?$AA?0?$AA?5?$AAt?$AAo?$AAo?$AA?5?$AAb?$AAi?$AAg?$AA?5?$AAs?$AAe?$AAc?$AAt?$AAo?$AAr?$AA?5?$AAn?$AAu?$AAm?$AAb?$AAe?$AAr?$AA?$AN?$AA?6?$AA?$AA@ 0000389c     flashmenu.obj
 0001:000028dc       ??_C@_1CG@KCBMIPD@?$AA?$AN?$AA?6?$AA?5?$AAS?$AAe?$AAc?$AAt?$AAo?$AAr?$AA?5?$AAN?$AAu?$AAm?$AAb?$AAe?$AAr?$AA?3?$AA?5?$AA?$AA@ 000038dc     flashmenu.obj
 0001:00002908       ??_C@_1FG@IJKIFPEH@?$AA?5?$AAO?$AAo?$AAp?$AAs?$AA?0?$AA?5?$AAs?$AAe?$AAc?$AAt?$AAo?$AAr?$AA?5?$AAs?$AAi?$AAz?$AAe?$AA?5?$AAl?$AAa?$AAr?$AAg?$AAe?$AAr?$AA?5?$AAt?$AAh?$AAa?$AAn?$AA?5?$AAm@ 00003908     flashmenu.obj
 0001:00002960       ??_C@_1BE@MFBEDOBI@?$AA?$AN?$AA?6?$AA?5?$AAD?$AAo?$AAn?$AAe?$AA?$AN?$AA?6?$AA?$AA@ 00003960     flashmenu.obj
 0001:00002974       ??_C@_1CE@EPPKNNOD@?$AA?$AN?$AA?6?$AA?5?$AAB?$AAl?$AAo?$AAc?$AAk?$AA?5?$AAN?$AAu?$AAm?$AAb?$AAe?$AAr?$AA?3?$AA?5?$AA?$AA@ 00003974     flashmenu.obj
 0001:00002998       ??_C@_1GC@JKKDFPCG@?$AA?5?$AAD?$AAo?$AA?5?$AAy?$AAo?$AAu?$AA?5?$AAw?$AAa?$AAn?$AAt?$AA?5?$AAt?$AAo?$AA?5?$AAf?$AAo?$AAr?$AAm?$AAa?$AAt?$AA?5?$AAu?$AAn?$AAr?$AAe?$AAs?$AAe?$AAr?$AAv?$AAe@ 00003998     flashmenu.obj
 0001:000029fc       ??_C@_1DM@NJFEAFBO@?$AA?5?$AAF?$AAl?$AAa?$AAs?$AAh?$AAi?$AAn?$AAg?$AA?5?$AAN?$AAK?$AA?4?$AAb?$AAi?$AAn?$AA?5?$AAi?$AAs?$AA?5?$AAe?$AAn?$AAa?$AAb?$AAl?$AAe?$AAd?$AA?$AN?$AA?6?$AA?$AA@ 000039fc     flashmenu.obj
 0001:00002a38       ??_C@_1DO@FEBEDMFN@?$AA?5?$AAF?$AAl?$AAa?$AAs?$AAh?$AAi?$AAn?$AAg?$AA?5?$AAN?$AAK?$AA?4?$AAb?$AAi?$AAn?$AA?5?$AAi?$AAs?$AA?5?$AAd?$AAi?$AAs?$AAa?$AAb?$AAl?$AAe?$AAd?$AA?$AN?$AA?6?$AA?$AA@ 00003a38     flashmenu.obj
 0001:00002a78       ??_C@_1EA@POGPJPIN@?$AA?5?$AAE?$AAn?$AAa?$AAb?$AAl?$AAe?$AA?5?$AAF?$AAl?$AAa?$AAs?$AAh?$AAi?$AAn?$AAg?$AA?5?$AAN?$AAK?$AA?4?$AAb?$AAi?$AAn?$AA?5?$AA?$FL?$AAy?$AA?1?$AA?9?$AA?$FN?$AA?3?$AA?5?$AA?$AA@ 00003a78     flashmenu.obj
 0001:00002ab8       ??_C@_1EC@LIJCOJEF@?$AA?5?$AAD?$AAi?$AAs?$AAa?$AAb?$AAl?$AAe?$AA?5?$AAF?$AAl?$AAa?$AAs?$AAh?$AAi?$AAn?$AAg?$AA?5?$AAN?$AAK?$AA?4?$AAb?$AAi?$AAn?$AA?5?$AA?$FL?$AAy?$AA?1?$AA?9?$AA?$FN?$AA?3?$AA?5@ 00003ab8     flashmenu.obj
 0001:00002b00       ??_C@_1GE@EJGAKBM@?$AA?5?$AAI?$AAn?$AAv?$AAa?$AAl?$AAi?$AAd?$AA?5?$AAE?$AAC?$AAC?$AA?5?$AAm?$AAo?$AAd?$AAe?$AA?0?$AA?5?$AAs?$AAe?$AAt?$AA?5?$AAE?$AAC?$AAC?$AA?5?$AAm?$AAo?$AAd?$AAe?$AA?5@ 00003b00     flashmenu.obj
 0001:00002b68       ??_C@_1ME@KHCPMAFG@?$AA?5?$AAT?$AAh?$AAi?$AAs?$AA?5?$AAc?$AAo?$AAm?$AAm?$AAa?$AAn?$AAd?$AA?5?$AAi?$AAs?$AA?5?$AAu?$AAs?$AAe?$AAd?$AA?5?$AAt?$AAo?$AA?5?$AAt?$AAe?$AAm?$AAp?$AAo?$AAr?$AAa@ 00003b68     flashmenu.obj
 0001:00002c30       ??_C@_1HK@NLFNLNJI@?$AA?5?$AAS?$AAe?$AAl?$AAe?$AAc?$AAt?$AA?5?$AAE?$AAC?$AAC?$AA?5?$AAm?$AAo?$AAd?$AAe?$AA?5?$AA?$FL?$AA0?$AA?$CI?$AAH?$AAa?$AAm?$AAm?$AAi?$AAn?$AAg?$AA?5?$AA1?$AAb?$AAi?$AAt@ 00003c30     flashmenu.obj
 0001:00002dd0       ??_C@_1DO@CGLKJNGE@?$AA?9?$AAO?$AAE?$AAM?$AAS?$AAt?$AAa?$AAr?$AAt?$AAE?$AAr?$AAa?$AAs?$AAe?$AAF?$AAl?$AAa?$AAs?$AAh?$AA?$CI?$AAr?$AAc?$AA?5?$AA?$DN?$AA?5?$AA?$CF?$AAd?$AA?$CJ?$AA?$AN?$AA?6?$AA?$AA@ 00003dd0     flash.obj
 0001:00002e10       ??_C@_1EM@JLOIOPDF@?$AA?$CL?$AAO?$AAE?$AAM?$AAS?$AAt?$AAa?$AAr?$AAt?$AAE?$AAr?$AAa?$AAs?$AAe?$AAF?$AAl?$AAa?$AAs?$AAh?$AA?$CI?$AA0?$AAx?$AA?$CF?$AA0?$AA8?$AAx?$AA?0?$AA?5?$AA0?$AAx?$AA?$CF?$AA0@ 00003e10     flash.obj
 0001:00002e5c       ??_C@_1DI@PEICDJAI@?$AAS?$AAp?$AAl?$AAa?$AAs?$AAh?$AAc?$AAr?$AAe?$AAe?$AAn?$AA?5?$AAi?$AAm?$AAa?$AAg?$AAe?$AA?5?$AAw?$AAr?$AAi?$AAt?$AAt?$AAe?$AAn?$AA?$AN?$AA?6?$AA?$AA@ 00003e5c     flash.obj
 0001:00002e98       ??_C@_1JK@INEHPIOE@?$AAE?$AAR?$AAR?$AAO?$AAR?$AA?3?$AA?5?$AAO?$AAE?$AAM?$AAW?$AAr?$AAi?$AAt?$AAe?$AAF?$AAl?$AAa?$AAs?$AAh?$AA?3?$AA?5?$AAO?$AAA?$AAL?$AAF?$AAl?$AAa?$AAs?$AAh?$AAS?$AAt@ 00003e98     flash.obj
 0001:00002f38       ??_C@_1JM@NFAJELED@?$AAE?$AAR?$AAR?$AAO?$AAR?$AA?3?$AA?5?$AAO?$AAE?$AAM?$AAW?$AAr?$AAi?$AAt?$AAe?$AAF?$AAl?$AAa?$AAs?$AAh?$AA?3?$AA?5?$AAL?$AAo?$AAg?$AAo?$AA?5?$AAi?$AAm?$AAa?$AAg?$AAe@ 00003f38     flash.obj
 0001:00002fd8       ??_C@_1GO@DLIAFJMC@?$AAE?$AAR?$AAR?$AAO?$AAR?$AA?3?$AA?5?$AAO?$AAE?$AAM?$AAW?$AAr?$AAi?$AAt?$AAe?$AAF?$AAl?$AAa?$AAs?$AAh?$AA?3?$AA?5?$AAO?$AAA?$AAL?$AAF?$AAl?$AAa?$AAs?$AAh?$AAS?$AAt@ 00003fd8     flash.obj
 0001:00003048       ??_C@_1FM@GPKMPIMP@?$AA?$AN?$AA?6?$AAW?$AAr?$AAi?$AAt?$AAi?$AAn?$AAg?$AA?5?$AAS?$AAp?$AAl?$AAa?$AAs?$AAh?$AAc?$AAr?$AAe?$AAe?$AAn?$AA?5?$AAi?$AAm?$AAa?$AAg?$AAe?$AA?5?$AAt?$AAo?$AA?5?$AAf@ 00004048     flash.obj
 0001:000030a8       ??_C@_1GG@PLILEPKK@?$AA?9?$AA?9?$AA?9?$AA?9?$AA?9?$AA?9?$AA?9?$AA?9?$AA?9?$AA?9?$AA?9?$AA?9?$AA?9?$AA?9?$AA?9?$AA?9?$AA?9?$AA?9?$AA?9?$AA?9?$AA?9?$AA?9?$AA?9?$AA?9?$AA?9?$AA?9?$AA?9?$AA?9?$AA?9?$AA?9?$AA?9?$AA?9@ 000040a8     flash.obj
 0001:00003110       ??_C@_1EC@FHNOBDCD@?$AA?5?$AA?5?$AAT?$AAr?$AAa?$AAc?$AAk?$AAi?$AAn?$AAg?$AA?5?$AAM?$AAe?$AAm?$AA?5?$AAL?$AAe?$AAn?$AAg?$AAt?$AAh?$AA?5?$AA?3?$AA?5?$AA0?$AAx?$AA?$CF?$AA0?$AA8?$AAx?$AA?$AN?$AA?6@ 00004110     flash.obj
 0001:00003158       ??_C@_1EC@OMMGJENJ@?$AA?5?$AA?5?$AAT?$AAr?$AAa?$AAc?$AAk?$AAi?$AAn?$AAg?$AA?5?$AAM?$AAe?$AAm?$AA?5?$AAS?$AAt?$AAa?$AAr?$AAt?$AA?5?$AA?5?$AA?3?$AA?5?$AA0?$AAx?$AA?$CF?$AA0?$AA8?$AAx?$AA?$AN?$AA?6@ 00004158     flash.obj
 0001:000031a0       ??_C@_1EC@JNDLGIKF@?$AA?5?$AA?5?$AAE?$AAx?$AAt?$AAe?$AAn?$AAs?$AAi?$AAo?$AAn?$AAs?$AA?5?$AA?5?$AA?5?$AA?5?$AA?5?$AA?5?$AA?5?$AA?5?$AA?5?$AA?5?$AA?3?$AA?5?$AA0?$AAx?$AA?$CF?$AA0?$AA8?$AAx?$AA?$AN?$AA?6@ 000041a0     flash.obj
 0001:000031e8       ??_C@_1EK@NKNNLDBD@?$AA?5?$AA?5?$AAM?$AAi?$AAs?$AAc?$AAF?$AAl?$AAa?$AAg?$AAs?$AA?5?$AA?5?$AA?5?$AA?5?$AA?5?$AA?5?$AA?5?$AA?5?$AA?5?$AA?5?$AA?5?$AA?3?$AA?5?$AA?5?$AA?5?$AA?5?$AA?5?$AA0?$AAx?$AA?$CF?$AA0@ 000041e8     flash.obj
 0001:00003238       ??_C@_1EK@JJJOHJHH@?$AA?5?$AA?5?$AAC?$AAP?$AAU?$AA?5?$AA?5?$AA?5?$AA?5?$AA?5?$AA?5?$AA?5?$AA?5?$AA?5?$AA?5?$AA?5?$AA?5?$AA?5?$AA?5?$AA?5?$AA?5?$AA?5?$AA?3?$AA?5?$AA?5?$AA?5?$AA?5?$AA?5?$AA0?$AAx?$AA?$CF?$AA0@ 00004238     flash.obj
 0001:00003288       ??_C@_1EC@CCJIKKIG@?$AA?5?$AA?5?$AAD?$AAr?$AAi?$AAv?$AAe?$AAr?$AA?5?$AAG?$AAl?$AAo?$AAb?$AA?5?$AAL?$AAe?$AAn?$AAg?$AAt?$AAh?$AA?5?$AA?5?$AA?3?$AA?5?$AA0?$AAx?$AA?$CF?$AA0?$AA8?$AAx?$AA?$AN?$AA?6@ 00004288     flash.obj
 0001:000032d0       ??_C@_1EC@LPBHAOCK@?$AA?5?$AA?5?$AAD?$AAr?$AAi?$AAv?$AAe?$AAr?$AA?5?$AAG?$AAl?$AAo?$AAb?$AA?5?$AAS?$AAt?$AAa?$AAr?$AAt?$AA?5?$AA?5?$AA?5?$AA?3?$AA?5?$AA0?$AAx?$AA?$CF?$AA0?$AA8?$AAx?$AA?$AN?$AA?6@ 000042d0     flash.obj
 0001:00003318       ??_C@_1EC@IABJILGI@?$AA?5?$AA?5?$AAF?$AAi?$AAl?$AAe?$AAS?$AAy?$AAs?$AA?5?$AAR?$AAA?$AAM?$AA?5?$AAP?$AAe?$AAr?$AAc?$AAe?$AAn?$AAt?$AA?5?$AA?3?$AA?5?$AA0?$AAx?$AA?$CF?$AA0?$AA8?$AAx?$AA?$AN?$AA?6@ 00004318     flash.obj
 0001:00003360       ??_C@_1EC@GDFJIFCF@?$AA?5?$AA?5?$AAK?$AAe?$AAr?$AAn?$AAe?$AAl?$AA?5?$AAF?$AAl?$AAa?$AAg?$AAs?$AA?5?$AA?5?$AA?5?$AA?5?$AA?5?$AA?5?$AA?5?$AA?5?$AA?3?$AA?5?$AA0?$AAx?$AA?$CF?$AA0?$AA8?$AAx?$AA?$AN?$AA?6@ 00004360     flash.obj
 0001:000033a4       ??_C@_1DO@NPCIPKAK@?$AA?5?$AA?5?$AAN?$AAu?$AAm?$AA?5?$AAF?$AAi?$AAl?$AAe?$AAs?$AA?5?$AA?5?$AA?5?$AA?5?$AA?5?$AA?5?$AA?5?$AA?5?$AA?5?$AA?5?$AA?5?$AA?3?$AA?5?$AA?$CF?$AA1?$AA0?$AAd?$AA?$AN?$AA?6?$AA?$AA@ 000043a4     flash.obj
 0001:000033e8       ??_C@_1EC@GLFGIGFP@?$AA?5?$AA?5?$AAP?$AAr?$AAo?$AAf?$AA?5?$AAS?$AAy?$AAm?$AAb?$AAo?$AAl?$AA?5?$AAO?$AAf?$AAf?$AAs?$AAe?$AAt?$AA?5?$AA?5?$AA?3?$AA?5?$AA0?$AAx?$AA?$CF?$AA0?$AA8?$AAx?$AA?$AN?$AA?6@ 000043e8     flash.obj
 0001:00003430       ??_C@_1EC@INEFBELC@?$AA?5?$AA?5?$AAP?$AAr?$AAo?$AAf?$AA?5?$AAS?$AAy?$AAm?$AAb?$AAo?$AAl?$AA?5?$AAL?$AAe?$AAn?$AAg?$AAt?$AAh?$AA?5?$AA?5?$AA?3?$AA?5?$AA0?$AAx?$AA?$CF?$AA0?$AA8?$AAx?$AA?$AN?$AA?6@ 00004430     flash.obj
 0001:00003478       ??_C@_1EC@FEMDLBGI@?$AA?5?$AA?5?$AAC?$AAo?$AAp?$AAy?$AA?5?$AAE?$AAn?$AAt?$AAr?$AAi?$AAe?$AAs?$AA?5?$AAO?$AAf?$AAf?$AAs?$AAe?$AAt?$AA?5?$AA?3?$AA?5?$AA0?$AAx?$AA?$CF?$AA0?$AA8?$AAx?$AA?$AN?$AA?6@ 00004478     flash.obj
 0001:000034bc       ??_C@_1DO@LFBMBNAO@?$AA?5?$AA?5?$AAN?$AAu?$AAm?$AA?5?$AAC?$AAo?$AAp?$AAy?$AA?5?$AAE?$AAn?$AAt?$AAr?$AAi?$AAe?$AAs?$AA?5?$AA?5?$AA?5?$AA?5?$AA?3?$AA?5?$AA?$CF?$AA1?$AA0?$AAd?$AA?$AN?$AA?6?$AA?$AA@ 000044bc     flash.obj
 0001:00003500       ??_C@_1EC@IKFCIHNK@?$AA?5?$AA?5?$AAR?$AAA?$AAM?$AA?5?$AAE?$AAn?$AAd?$AA?5?$AA?5?$AA?5?$AA?5?$AA?5?$AA?5?$AA?5?$AA?5?$AA?5?$AA?5?$AA?5?$AA?5?$AA?5?$AA?3?$AA?5?$AA0?$AAx?$AA?$CF?$AA0?$AA8?$AAx?$AA?$AN?$AA?6@ 00004500     flash.obj
 0001:00003548       ??_C@_1EC@FMEPNBO@?$AA?5?$AA?5?$AAR?$AAA?$AAM?$AA?5?$AAF?$AAr?$AAe?$AAe?$AA?5?$AA?5?$AA?5?$AA?5?$AA?5?$AA?5?$AA?5?$AA?5?$AA?5?$AA?5?$AA?5?$AA?5?$AA?3?$AA?5?$AA0?$AAx?$AA?$CF?$AA0?$AA8?$AAx?$AA?$AN?$AA?6@ 00004548     flash.obj
 0001:00003590       ??_C@_1EC@IKCHAPAE@?$AA?5?$AA?5?$AAR?$AAA?$AAM?$AA?5?$AAS?$AAt?$AAa?$AAr?$AAt?$AA?5?$AA?5?$AA?5?$AA?5?$AA?5?$AA?5?$AA?5?$AA?5?$AA?5?$AA?5?$AA?5?$AA?3?$AA?5?$AA0?$AAx?$AA?$CF?$AA0?$AA8?$AAx?$AA?$AN?$AA?6@ 00004590     flash.obj
 0001:000035d4       ??_C@_1DO@OKOEBDCJ@?$AA?5?$AA?5?$AAN?$AAu?$AAm?$AA?5?$AAM?$AAo?$AAd?$AAu?$AAl?$AAe?$AAs?$AA?5?$AA?5?$AA?5?$AA?5?$AA?5?$AA?5?$AA?5?$AA?5?$AA?5?$AA?3?$AA?5?$AA?$CF?$AA1?$AA0?$AAd?$AA?$AN?$AA?6?$AA?$AA@ 000045d4     flash.obj
 0001:00003618       ??_C@_1EC@NAHCJOL@?$AA?5?$AA?5?$AAP?$AAh?$AAy?$AAs?$AAi?$AAc?$AAa?$AAl?$AA?5?$AAL?$AAa?$AAs?$AAt?$AA?5?$AA?5?$AA?5?$AA?5?$AA?5?$AA?5?$AA?5?$AA?3?$AA?5?$AA0?$AAx?$AA?$CF?$AA0?$AA8?$AAx?$AA?$AN?$AA?6@ 00004618     flash.obj
 0001:00003660       ??_C@_1EC@IJBGHIJL@?$AA?5?$AA?5?$AAP?$AAh?$AAy?$AAs?$AAi?$AAc?$AAa?$AAl?$AA?5?$AAF?$AAi?$AAr?$AAs?$AAt?$AA?5?$AA?5?$AA?5?$AA?5?$AA?5?$AA?5?$AA?3?$AA?5?$AA0?$AAx?$AA?$CF?$AA0?$AA8?$AAx?$AA?$AN?$AA?6@ 00004660     flash.obj
 0001:000036a8       ??_C@_1EC@OOCEINF@?$AA?5?$AA?5?$AAD?$AAL?$AAL?$AA?5?$AAL?$AAa?$AAs?$AAt?$AA?5?$AA?5?$AA?5?$AA?5?$AA?5?$AA?5?$AA?5?$AA?5?$AA?5?$AA?5?$AA?5?$AA?5?$AA?3?$AA?5?$AA0?$AAx?$AA?$CF?$AA0?$AA8?$AAx?$AA?$AN?$AA?6@ 000046a8     flash.obj
 0001:000036f0       ??_C@_1EC@FBMKGHCM@?$AA?5?$AA?5?$AAD?$AAL?$AAL?$AA?5?$AAF?$AAi?$AAr?$AAs?$AAt?$AA?5?$AA?5?$AA?5?$AA?5?$AA?5?$AA?5?$AA?5?$AA?5?$AA?5?$AA?5?$AA?5?$AA?3?$AA?5?$AA0?$AAx?$AA?$CF?$AA0?$AA8?$AAx?$AA?$AN?$AA?6@ 000046f0     flash.obj
 0001:00003738       ??_C@_1FO@LHJKOBMN@?$AAR?$AAO?$AAM?$AAH?$AAD?$AAR?$AA?5?$AA?$CI?$AAp?$AAT?$AAO?$AAC?$AA?5?$AA?$DN?$AA?5?$AA0?$AAx?$AA?$CF?$AA0?$AA8?$AAx?$AA?$CJ?$AA?5?$AA?9?$AA?9?$AA?9?$AA?9?$AA?9?$AA?9?$AA?9?$AA?9?$AA?9@ 00004738     flash.obj
 0001:00003798       ??_C@_1DC@CJMIMBMC@?$AAF?$AAl?$AAa?$AAs?$AAh?$AA?5?$AAf?$AAo?$AAr?$AAm?$AAa?$AAt?$AA?5?$AAc?$AAo?$AAm?$AAp?$AAl?$AAe?$AAt?$AAe?$AA?$CB?$AA?$AN?$AA?6?$AA?$AA@ 00004798     flash.obj
 0001:000037d0       ??_C@_1EE@EELLBIAJ@?$AAE?$AAr?$AAr?$AAo?$AAr?$AA?5?$AAc?$AAr?$AAe?$AAa?$AAt?$AAi?$AAn?$AAg?$AA?5?$AAf?$AAi?$AAl?$AAe?$AA?5?$AAp?$AAa?$AAr?$AAt?$AAi?$AAt?$AAi?$AAo?$AAn?$AA?$CB?$AA?$CB?$AA?$AN@ 000047d0     flash.obj
 0001:00003814       ??_C@_1CO@GFIJHOCH@?$AAN?$AAK?$AA?5?$AAp?$AAa?$AAr?$AAt?$AAi?$AAt?$AAi?$AAo?$AAn?$AA?5?$AAc?$AAr?$AAe?$AAa?$AAt?$AAe?$AAd?$AA?$AN?$AA?6?$AA?$AA@ 00004814     flash.obj
 0001:00003848       ??_C@_1EA@FBHNJDFD@?$AAE?$AAr?$AAr?$AAo?$AAr?$AA?5?$AAc?$AAr?$AAe?$AAa?$AAt?$AAi?$AAn?$AAg?$AA?5?$AAO?$AAS?$AA?5?$AAp?$AAa?$AAr?$AAt?$AAi?$AAt?$AAi?$AAo?$AAn?$AA?$CB?$AA?$CB?$AA?$AN?$AA?6?$AA?$AA@ 00004848     flash.obj
 0001:00003888       ??_C@_1CM@NDGHMEGF@?$AAF?$AAo?$AAr?$AAm?$AAa?$AAt?$AAt?$AAi?$AAn?$AAg?$AA?5?$AAf?$AAl?$AAa?$AAs?$AAh?$AA?4?$AA?4?$AA?4?$AA?$AN?$AA?6?$AA?$AA@ 00004888     flash.obj
 0001:000038b8       ??_C@_1LE@KHIPBHLF@?$AAO?$AAS?$AA?5?$AAp?$AAa?$AAr?$AAt?$AAi?$AAt?$AAi?$AAo?$AAn?$AA?5?$AAd?$AAo?$AAe?$AAs?$AA?5?$AAn?$AAo?$AAt?$AA?5?$AAm?$AAa?$AAt?$AAc?$AAh?$AA?5?$AAc?$AAo?$AAn?$AAf@ 000048b8     flash.obj
 0001:00003970       ??_C@_1EA@PANFDMBA@?$AAO?$AAS?$AA?5?$AAp?$AAa?$AAr?$AAt?$AAi?$AAt?$AAi?$AAo?$AAn?$AA?5?$AAd?$AAo?$AAe?$AAs?$AA?5?$AAn?$AAo?$AAt?$AA?5?$AAe?$AAx?$AAi?$AAs?$AAt?$AA?$CB?$AA?$CB?$AA?$AN?$AA?6?$AA?$AA@ 00004970     flash.obj
 0001:000039b0       ??_C@_1II@PGPDCKHA@?$AAB?$AAL?$AAC?$AAo?$AAn?$AAf?$AAi?$AAg?$AAu?$AAr?$AAe?$AAF?$AAl?$AAa?$AAs?$AAh?$AAP?$AAa?$AAr?$AAt?$AAi?$AAt?$AAi?$AAo?$AAn?$AAs?$AA?3?$AA?5?$AAE?$AAr?$AAr?$AAo@ 000049b0     flash.obj
 0001:00003a38       ??_C@_1CE@KBCKFLJM@?$AAN?$AAK?$AA?5?$AAI?$AAm?$AAa?$AAg?$AAe?$AA?5?$AAL?$AAo?$AAa?$AAd?$AAe?$AAd?$AA?$AN?$AA?6?$AA?$AA@ 00004a38     flash.obj
 0001:00003a60       ??_C@_1FK@HODAKHKA@?$AAE?$AAR?$AAR?$AAO?$AAR?$AA?3?$AA?5?$AAN?$AAK?$AA?5?$AAi?$AAm?$AAa?$AAg?$AAe?$AA?5?$AAd?$AAo?$AAe?$AAs?$AAn?$AA?8?$AAt?$AA?5?$AAh?$AAa?$AAv?$AAe?$AA?5?$AAR?$AAO?$AAM@ 00004a60     flash.obj
 0001:00003ac0       ??_C@_1EE@FFBJDIJA@?$AAE?$AAR?$AAR?$AAO?$AAR?$AA?3?$AA?5?$AAB?$AAP?$AA_?$AAR?$AAe?$AAa?$AAd?$AAD?$AAa?$AAt?$AAa?$AA?5?$AAc?$AAa?$AAl?$AAl?$AA?5?$AAf?$AAa?$AAi?$AAl?$AAe?$AAd?$AA?$CB?$AA?$AN@ 00004ac0     flash.obj
 0001:00003b08       ??_C@_1EG@FNGCHJDC@?$AAE?$AAR?$AAR?$AAO?$AAR?$AA?3?$AA?5?$AAI?$AAm?$AAa?$AAg?$AAe?$AA?5?$AAs?$AAi?$AAg?$AAn?$AAa?$AAt?$AAu?$AAr?$AAe?$AA?5?$AAn?$AAo?$AAt?$AA?5?$AAf?$AAo?$AAu?$AAn?$AAd@ 00004b08     flash.obj
 0001:00003b50       ??_C@_1EK@JACEGLCB@?$AAE?$AAR?$AAR?$AAO?$AAR?$AA?3?$AA?5?$AAE?$AAr?$AAr?$AAo?$AAr?$AA?5?$AAr?$AAe?$AAa?$AAd?$AAi?$AAn?$AAg?$AA?5?$AAO?$AAS?$AA?5?$AAp?$AAa?$AAr?$AAt?$AAi?$AAt?$AAi?$AAo@ 00004b50     flash.obj
 0001:00003ba0       ??_C@_1EC@KEKCJKLC@?$AAE?$AAR?$AAR?$AAO?$AAR?$AA?3?$AA?5?$AAO?$AAS?$AA?5?$AAp?$AAa?$AAr?$AAt?$AAi?$AAt?$AAi?$AAo?$AAn?$AA?5?$AAn?$AAo?$AAt?$AA?5?$AAf?$AAo?$AAu?$AAn?$AAd?$AA?$CB?$AA?$AN?$AA?6@ 00004ba0     flash.obj
 0001:00003be8       ??_C@_1GK@CPEKEJEK@?$AAR?$AAe?$AAa?$AAd?$AAF?$AAl?$AAa?$AAs?$AAh?$AAN?$AAK?$AA?3?$AA?5?$AAE?$AAr?$AAr?$AAo?$AAr?$AA?5?$AAi?$AAn?$AAi?$AAt?$AAi?$AAa?$AAl?$AAi?$AAz?$AAi?$AAn?$AAg?$AA?5@ 00004be8     flash.obj
 0001:00003c58       ??_C@_1EE@NJGMLICC@?$AAL?$AAo?$AAa?$AAd?$AA?5?$AAN?$AAK?$AA?5?$AAi?$AAm?$AAa?$AAg?$AAe?$AA?5?$AAf?$AAr?$AAo?$AAm?$AA?5?$AAf?$AAl?$AAa?$AAs?$AAh?$AA?5?$AAm?$AAe?$AAm?$AAo?$AAr?$AAy?$AA?$AN@ 00004c58     flash.obj
 0001:00003ca0       ??_C@_1JC@FCHNHAAL@?$AAE?$AAR?$AAR?$AAO?$AAR?$AA?3?$AA?5?$AAO?$AAE?$AAM?$AAW?$AAr?$AAi?$AAt?$AAe?$AAF?$AAl?$AAa?$AAs?$AAh?$AA?3?$AA?5?$AAX?$AAL?$AAD?$AAR?$AA?5?$AAi?$AAm?$AAa?$AAg?$AAe@ 00004ca0     flash.obj
 0001:00003d34       ??_C@_1CK@NJEDFGLK@?$AAX?$AAL?$AAD?$AAR?$AA?5?$AAi?$AAm?$AAa?$AAg?$AAe?$AA?5?$AAw?$AAr?$AAi?$AAt?$AAt?$AAe?$AAn?$AA?$AN?$AA?6?$AA?$AA@ 00004d34     flash.obj
 0001:00003d60       ??_C@_1KM@GAMGNNOD@?$AAE?$AAR?$AAR?$AAO?$AAR?$AA?3?$AA?5?$AAO?$AAE?$AAM?$AAW?$AAr?$AAi?$AAt?$AAe?$AAF?$AAl?$AAa?$AAs?$AAh?$AA?3?$AA?5?$AAX?$AAL?$AAD?$AAR?$AA?5?$AAi?$AAm?$AAa?$AAg?$AAe@ 00004d60     flash.obj
 0001:00003e10       ??_C@_1JG@PEMOLGHN@?$AAE?$AAR?$AAR?$AAO?$AAR?$AA?3?$AA?5?$AAO?$AAE?$AAM?$AAW?$AAr?$AAi?$AAt?$AAe?$AAF?$AAl?$AAa?$AAs?$AAh?$AA?3?$AA?5?$AAX?$AAL?$AAD?$AAR?$AA?5?$AAi?$AAm?$AAa?$AAg?$AAe@ 00004e10     flash.obj
 0001:00003ea8       ??_C@_1GO@LKIJELAC@?$AAE?$AAR?$AAR?$AAO?$AAR?$AA?3?$AA?5?$AAO?$AAE?$AAM?$AAW?$AAr?$AAi?$AAt?$AAe?$AAF?$AAl?$AAa?$AAs?$AAh?$AA?3?$AA?5?$AAX?$AAL?$AAD?$AAR?$AA?5?$AAi?$AAm?$AAa?$AAg?$AAe@ 00004ea8     flash.obj
 0001:00003f18       ??_C@_1EO@MFAPGNDN@?$AA?$AN?$AA?6?$AAW?$AAr?$AAi?$AAt?$AAi?$AAn?$AAg?$AA?5?$AAX?$AAL?$AAD?$AAR?$AA?5?$AAi?$AAm?$AAa?$AAg?$AAe?$AA?5?$AAt?$AAo?$AA?5?$AAf?$AAl?$AAa?$AAs?$AAh?$AA?5?$AAm?$AAe@ 00004f18     flash.obj
 0001:00003f68       ??_C@_1CM@CMHKBBHI@?$AAE?$AAB?$AAO?$AAO?$AAT?$AA?5?$AAi?$AAm?$AAa?$AAg?$AAe?$AA?5?$AAw?$AAr?$AAi?$AAt?$AAt?$AAe?$AAn?$AA?$AN?$AA?6?$AA?$AA@ 00004f68     flash.obj
 0001:00003f98       ??_C@_1HA@OPDOICMP@?$AAE?$AAR?$AAR?$AAO?$AAR?$AA?3?$AA?5?$AAO?$AAE?$AAM?$AAW?$AAr?$AAi?$AAt?$AAe?$AAF?$AAl?$AAa?$AAs?$AAh?$AA?3?$AA?5?$AAE?$AAB?$AAO?$AAO?$AAT?$AA?5?$AAi?$AAm?$AAa?$AAg@ 00004f98     flash.obj
 0001:00004008       ??_C@_1JO@HOPMBDBI@?$AAE?$AAR?$AAR?$AAO?$AAR?$AA?3?$AA?5?$AAO?$AAE?$AAM?$AAW?$AAr?$AAi?$AAt?$AAe?$AAF?$AAl?$AAa?$AAs?$AAh?$AA?3?$AA?5?$AAE?$AAB?$AAO?$AAO?$AAT?$AA?5?$AAi?$AAm?$AAa?$AAg@ 00005008     flash.obj
 0001:000040a8       ??_C@_1FA@LGNLEKHJ@?$AA?$AN?$AA?6?$AAW?$AAr?$AAi?$AAt?$AAi?$AAn?$AAg?$AA?5?$AAE?$AAB?$AAO?$AAO?$AAT?$AA?5?$AAi?$AAm?$AAa?$AAg?$AAe?$AA?5?$AAt?$AAo?$AA?5?$AAf?$AAl?$AAa?$AAs?$AAh?$AA?5?$AAm@ 000050a8     flash.obj
 0001:000040f8       ??_C@_1FC@DLJHBOIG@?$AAE?$AAR?$AAR?$AAO?$AAR?$AA?3?$AA?5?$AAF?$AAa?$AAi?$AAl?$AAe?$AAd?$AA?5?$AAw?$AAr?$AAi?$AAt?$AAi?$AAn?$AAg?$AA?5?$AAt?$AAo?$AA?5?$AAO?$AAS?$AA?5?$AAp?$AAa?$AAr?$AAt@ 000050f8     flash.obj
 0001:00004150       ??_C@_1FM@NBKLFBCM@?$AAE?$AAR?$AAR?$AAO?$AAR?$AA?3?$AA?5?$AAO?$AAS?$AA?5?$AAp?$AAa?$AAr?$AAt?$AAi?$AAt?$AAi?$AAo?$AAn?$AA?5?$AAt?$AAo?$AAo?$AA?5?$AAs?$AAm?$AAa?$AAl?$AAl?$AA?$CB?$AA?5?$AA?5@ 00005150     flash.obj
 0001:000041ac       ??_C@_1CI@BAKEFGCP@?$AAh?$AAP?$AAa?$AAr?$AAt?$AAi?$AAt?$AAi?$AAo?$AAn?$AA?5?$AA?$DN?$AA?5?$AA0?$AAx?$AA?$CF?$AAX?$AA?$AN?$AA?6?$AA?$AA@ 000051ac     flash.obj
 0001:000041d8       ??_C@_1GM@NHAICGBK@?$AAW?$AAr?$AAi?$AAt?$AAe?$AAF?$AAl?$AAa?$AAs?$AAh?$AAN?$AAK?$AA?3?$AA?5?$AAE?$AAr?$AAr?$AAo?$AAr?$AA?5?$AAi?$AAn?$AAi?$AAt?$AAi?$AAa?$AAl?$AAi?$AAz?$AAi?$AAn?$AAg@ 000051d8     flash.obj
 0001:00004248       ??_C@_1GK@ILFHOAHO@?$AAE?$AAR?$AAR?$AAO?$AAR?$AA?3?$AA?5?$AAO?$AAE?$AAM?$AAW?$AAr?$AAi?$AAt?$AAe?$AAF?$AAl?$AAa?$AAs?$AAh?$AA?3?$AA?5?$AAN?$AAK?$AA?5?$AAi?$AAm?$AAa?$AAg?$AAe?$AA?5?$AAs@ 00005248     flash.obj
 0001:000042b8       ??_C@_1HC@KEGBBDA@?$AA?$AN?$AA?6?$AAW?$AAr?$AAi?$AAt?$AAi?$AAn?$AAg?$AA?5?$AAN?$AAK?$AA?5?$AAi?$AAm?$AAa?$AAg?$AAe?$AA?5?$AAt?$AAo?$AA?5?$AAO?$AAS?$AA?5?$AAp?$AAa?$AAr?$AAt?$AAi?$AAt?$AAi@ 000052b8     flash.obj
 0001:0000432c       ??_C@_1CI@LMAOBMJH@?$AAB?$AAL?$AAF?$AAl?$AAa?$AAs?$AAh?$AAD?$AAo?$AAw?$AAn?$AAl?$AAo?$AAa?$AAd?$AA?$CI?$AA?$CJ?$AA?$AN?$AA?6?$AA?$AA@ 0000532c     flash.obj
 0001:000043e8       ??_C@_1HE@BDJAOKHO@?$AAE?$AAR?$AAR?$AAO?$AAR?$AA?3?$AA?5?$AAE?$AAB?$AAO?$AAO?$AAT?$AA?$CB?$AAB?$AAL?$AAR?$AAe?$AAa?$AAd?$AAB?$AAo?$AAo?$AAt?$AAC?$AAf?$AAg?$AA?3?$AA?5?$AAF?$AAl?$AAa?$AAs@ 000053e8     cfg.obj
 0001:0000445c       ??_C@_1DK@HPMHIIMH@?$AAB?$AAL?$AAR?$AAe?$AAa?$AAd?$AAB?$AAo?$AAo?$AAt?$AAC?$AAf?$AAg?$AA?3?$AA?5?$AAs?$AAe?$AAc?$AAt?$AAo?$AAr?$AA?5?$AA?$DN?$AA?5?$AA?$CF?$AAd?$AA?$AN?$AA?6?$AA?$AA@ 0000545c     cfg.obj
 0001:00004498       ??_C@_1IG@EBGBGDAI@?$AAE?$AAR?$AAR?$AAO?$AAR?$AA?3?$AA?5?$AAF?$AAl?$AAa?$AAs?$AAh?$AA?5?$AAs?$AAe?$AAc?$AAt?$AAo?$AAr?$AA?5?$AAs?$AAi?$AAz?$AAe?$AA?5?$AA?$CF?$AAd?$AA?5?$AAb?$AAy?$AAt?$AAe@ 00005498     cfg.obj
 0001:00004520       ??_C@_1EE@MHCJNGAF@?$AAE?$AAR?$AAR?$AAO?$AAR?$AA?3?$AA?5?$AAF?$AAM?$AAD?$AA_?$AAG?$AAe?$AAt?$AAI?$AAn?$AAf?$AAo?$AA?5?$AAc?$AAa?$AAl?$AAl?$AA?5?$AAf?$AAa?$AAi?$AAl?$AAe?$AAd?$AA?$CB?$AA?$AN@ 00005520     cfg.obj
 0001:00004564       ??_C@_1DO@FFNONGBO@?$AAE?$AAR?$AAR?$AAO?$AAR?$AA?3?$AA?5?$AAF?$AAM?$AAD?$AA_?$AAI?$AAn?$AAi?$AAt?$AA?5?$AAc?$AAa?$AAl?$AAl?$AA?5?$AAf?$AAa?$AAi?$AAl?$AAe?$AAd?$AA?$CB?$AA?$AN?$AA?6?$AA?$AA@ 00005564     cfg.obj
 0001:000045a8       ??_C@_1HI@NMGONLPH@?$AAE?$AAR?$AAR?$AAO?$AAR?$AA?3?$AA?5?$AAE?$AAB?$AAO?$AAO?$AAT?$AA?$CB?$AAB?$AAL?$AAW?$AAr?$AAi?$AAt?$AAe?$AAB?$AAo?$AAo?$AAt?$AAC?$AAf?$AAg?$AA?3?$AA?5?$AAF?$AAl?$AAa@ 000055a8     cfg.obj
 0001:00004620       ??_C@_1HG@CNPKAHCG@?$AAE?$AAR?$AAR?$AAO?$AAR?$AA?3?$AA?5?$AAE?$AAB?$AAO?$AAO?$AAT?$AA?$CB?$AAB?$AAL?$AAW?$AAr?$AAi?$AAt?$AAe?$AAB?$AAo?$AAo?$AAt?$AAC?$AAf?$AAg?$AA?3?$AA?5?$AAF?$AAl?$AAa@ 00005620     cfg.obj
 0001:00004698       ??_C@_1IE@IPHMEIA@?$AA?$AN?$AA?6?$AAE?$AAR?$AAR?$AAO?$AAR?$AA?3?$AA?5?$AAE?$AAB?$AAO?$AAO?$AAT?$AA?$CB?$AAB?$AAL?$AAW?$AAr?$AAi?$AAt?$AAe?$AAB?$AAo?$AAo?$AAt?$AAC?$AAf?$AAg?$AA?3?$AA?5?$AAF@ 00005698     cfg.obj
 0001:00004720       ??_C@_1IG@GHABCEAA@?$AAE?$AAR?$AAR?$AAO?$AAR?$AA?3?$AA?5?$AAF?$AAl?$AAa?$AAs?$AAh?$AA?5?$AAs?$AAe?$AAc?$AAt?$AAo?$AAr?$AA?5?$AAs?$AAi?$AAz?$AAe?$AA?5?$AA?$CF?$AAd?$AA?5?$AAb?$AAy?$AAt?$AAe@ 00005720     cfg.obj
 0001:000047a8       ??_C@_1CG@CLBPJHOF@?$AAB?$AAL?$AAS?$AAh?$AAo?$AAw?$AAL?$AAo?$AAg?$AAo?$AA?3?$AA?5?$AA0?$AAx?$AA?$CF?$AAx?$AA?$AN?$AA?6?$AA?$AA@ 000057a8     cfg.obj
 0001:00004860       ??_C@_0CJ@MPHJDLPH@?9OALKitlDeviceName?$CIname?5?$DN?50x?$CF08x@ 00005860     oal_kitl_boot:device.obj
 0001:0000488c       ??_C@_0CJ@OKPKABKG@?$CLOALKitlDeviceName?$CI?$CFd?1?$CFd?1?$CF08x?0?50@ 0000588c     oal_kitl_boot:device.obj
 0001:000049d8       ??_C@_17HBLJBP@?$AA?$AN?$AA?6?$AA?5?$AA?$AA@ 000059d8     oal_blmenu:menu.obj
 0001:000049e0       ??_C@_13IMODFHAA@?$AA?9?$AA?$AA@ 000059e0     oal_blmenu:menu.obj
 0001:000049e4       ??_C@_1BO@MKGCCJBG@?$AA?$AN?$AA?6?$AA?5?$AAS?$AAe?$AAl?$AAe?$AAc?$AAt?$AAi?$AAo?$AAn?$AA?3?$AA?5?$AA?$AA@ 000059e4     oal_blmenu:menu.obj
 0001:00004a04       ??_C@_1BG@EBHIGBFG@?$AA?5?$AA?$FL?$AA?$CF?$AAc?$AA?$FN?$AA?5?$AA?$CF?$AAs?$AA?$AN?$AA?6?$AA?$AA@ 00005a04     oal_blmenu:menu.obj
 0001:00004a1c       ??_C@_15GANGMFKL@?$AA?$CF?$AAs?$AA?$AA@ 00005a1c     oal_blmenu:menu.obj
 0001:00004a24       ??_C@_17ILCABGPK@?$AA?$AI?$AA?5?$AA?$AI?$AA?$AA@ 00005a24     oal_blmenu:menu.obj
 0001:00004b50       ??_C@_1O@INIEDEDF@?$AA?$CI?$AAN?$AAU?$AAL?$AAL?$AA?$CJ?$AA?$AA@ 00005b50     oal_blnk:format.obj
 0001:00004b60       ??_C@_06LHGEHABH@?$CINULL?$CJ?$AA@ 00005b60     oal_blnk:format.obj
 0001:00004bf8       pTOC                       00005bf8     oal_blcommon:blcommon.obj
 0001:00004c00       NKSignon                   00005c00     oal_blcommon:blcommon.obj
 0001:00004c5c       ??_C@_0DJ@LFHEGALA@ERROR?3?5Checksum?5failure?5?$CIexpecte@ 00005c5c     oal_blcommon:blcommon.obj
 0001:00004c98       ??_C@_0BM@DKIOIAMD@?$AN?6BL_IMAGE_TYPE_UNKNOWN?$AN?6?$AN?6?$AA@ 00005c98     oal_blcommon:blcommon.obj
 0001:00004cb4       ??_C@_0BP@KNNCEABF@?$AN?6BL_IMAGE_TYPE_SIGNED_NB0?$AN?6?$AN?6?$AA@ 00005cb4     oal_blcommon:blcommon.obj
 0001:00004cd4       ??_C@_07LAGBNAEN@R000FF?6?$AA@ 00005cd4     oal_blcommon:blcommon.obj
 0001:00004cdc       ??_C@_0BP@MJFCGNBB@?$AN?6BL_IMAGE_TYPE_SIGNED_BIN?$AN?6?$AN?6?$AA@ 00005cdc     oal_blcommon:blcommon.obj
 0001:00004cfc       ??_C@_07HMMLNAND@S000FF?6?$AA@ 00005cfc     oal_blcommon:blcommon.obj
 0001:00004d04       ??_C@_0BI@HBMHAEFD@?$AN?6BL_IMAGE_TYPE_BIN?$AN?6?$AN?6?$AA@ 00005d04     oal_blcommon:blcommon.obj
 0001:00004d1c       ??_C@_07MMNKOBGG@B000FF?6?$AA@ 00005d1c     oal_blcommon:blcommon.obj
 0001:00004d24       ??_C@_0BN@IHLEHBEK@?$AN?6BL_IMAGE_TYPE_MULTIXIP?$AN?6?$AN?6?$AA@ 00005d24     oal_blcommon:blcommon.obj
 0001:00004d44       ??_C@_07CBKBMMIF@X000FF?6?$AA@ 00005d44     oal_blcommon:blcommon.obj
 0001:00004d4c       ??_C@_0BN@GCKOHOON@?$AN?6BL_IMAGE_TYPE_MANIFEST?$AN?6?$AN?6?$AA@ 00005d4c     oal_blcommon:blcommon.obj
 0001:00004d6c       ??_C@_07JLHFPECJ@N000FF?6?$AA@ 00005d6c     oal_blcommon:blcommon.obj
 0001:00004d74       ??_C@_0CL@OKMIEAHJ@?$AN?6ERROR?3?5Unable?5to?5read?5image?5si@ 00005d74     oal_blcommon:blcommon.obj
 0001:00004da0       ??_C@_0DJ@PIPLIHFI@?$AN?6ERROR?3?5Unable?5to?5read?5download@ 00005da0     oal_blcommon:blcommon.obj
 0001:00004de0       ??_C@_0EC@LAKEOKID@?$AN?6ERROR?3?5Download?5manifest?5packe@ 00005de0     oal_blcommon:blcommon.obj
 0001:00004e24       ??_C@_0DG@DBBGHEAG@?$AN?6ERROR?3?5Unable?5to?5read?5download@ 00005e24     oal_blcommon:blcommon.obj
 0001:00004e5c       ??_C@_0DL@DCHMDHHD@ImageStart?5?$DN?50x?$CFx?0?5ImageLength?5?$DN@ 00005e5c     oal_blcommon:blcommon.obj
 0001:00004e98       ??_C@_0CO@PFLGIDFG@ERROR?3?5failed?5when?5reading?5raw?5b@ 00005e98     oal_blcommon:blcommon.obj
 0001:00004ec8       ??_C@_0BP@EOFEMPOO@Invalid?5flash?5address?1length?$AN?6?$AA@ 00005ec8     oal_blcommon:blcommon.obj
 0001:00004ee8       ??_C@_0CC@DNECAMLM@?$CBOEMVERIFYMEMORY?3?5Invalid?5image?$AN@ 00005ee8     oal_blcommon:blcommon.obj
 0001:00004f0c       ??_C@_0DH@GJCJAHAP@?$FL?$CFd?$FN?3?5Address?$DN0x?$CFx?5?5Length?$DN0x?$CFx?5@ 00005f0c     oal_blcommon:blcommon.obj
 0001:00004f44       ??_C@_03ILDADBHF@RAM?$AA@  00005f44     oal_blcommon:blcommon.obj
 0001:00004f48       ??_C@_05HPMNGINJ@FLASH?$AA@ 00005f48     oal_blcommon:blcommon.obj
 0001:00004f50       ??_C@_0BH@FIOKDOBJ@?$AN?6Completed?5file?$CIs?$CJ?3?$AN?6?$AA@ 00005f50     oal_blcommon:blcommon.obj
 0001:00004f68       ??_C@_0FC@PGPOMBFM@?9?9?9?9?9?9?9?9?9?9?9?9?9?9?9?9?9?9?9?9?9?9?9?9?9?9?9?9?9?9?9?9@ 00005f68     oal_blcommon:blcommon.obj
 0001:00004fbc       ??_C@_06OLEINIPO@nk?4exe?$AA@ 00005fbc     oal_blcommon:blcommon.obj
 0001:00004fc4       ??_C@_0CE@NKAMCDHO@Unable?5to?5read?5image?5start?1lengt@ 00005fc4     oal_blcommon:blcommon.obj
 0001:00004fe8       ??_C@_0DI@FDIIHFBA@?$CK?$CK?$CK?$CK?$CK?$CK?5Checksum?5failure?5on?5recor@ 00005fe8     oal_blcommon:blcommon.obj
 0001:00005020       ??_C@_0DD@KHJBCIED@?$CK?$CK?$CK?$CK?$CK?$CK?5Data?5record?5?$CFd?5corrupted?0@ 00006020     oal_blcommon:blcommon.obj
 0001:00005054       ??_C@_0BD@PHLGNLDI@rom_offset?$DN0x?$CFx?4?$AN?6?$AA@ 00006054     oal_blcommon:blcommon.obj
 0001:00005068       ??_C@_0EC@NABDPCJO@?$CK?$CK?5ERROR?3?5This?5boot?5loader?5does?5@ 00006068     oal_blcommon:blcommon.obj
 0001:000050b0       ??_C@_0EC@MIGFFFAC@?$CK?$CK?5ERROR?3?5This?5boot?5loader?5does?5@ 000060b0     oal_blcommon:blcommon.obj
 0001:000050f4       ??_C@_06BEBGGBAB@?$AN?6?$CK?$CK?$AN?6?$AA@ 000060f4     oal_blcommon:blcommon.obj
 0001:00005100       ??_C@_0GI@NIAHKKOO@?$CK?$CK?5ERROR?3?5The?5X000FF?5packet?5is?5a@ 00006100     oal_blcommon:blcommon.obj
 0001:00005168       ??_C@_0FO@KDFAPMNM@?$CK?$CK?5Please?5update?5your?5Platform?5B@ 00006168     oal_blcommon:blcommon.obj
 0001:000051c8       ??_C@_04IPBEALME@?$CK?$CK?$AN?6?$AA@ 000061c8     oal_blcommon:blcommon.obj
 0001:000051d0       ??_C@_0BI@OCFAEGPK@ROMHDR?5at?5Address?5?$CFXh?$AN?6?$AA@ 000061d0     oal_blcommon:blcommon.obj
 0001:000051e8       ??_C@_0CL@NOFKHKJC@System?5ready?$CB?$AN?6Preparing?5for?5dow@ 000061e8     oal_blcommon:blcommon.obj
 0001:00005214       ??_C@_0M@CDHNGIPM@?$CFu?4?$CFu?4?$CFu?4?$CFu?$AA@ 00006214     oal_blcommon:format.obj
 0001:000052b0       ??_C@_1EE@DLLAKNKJ@?$AA?9?$AAO?$AAA?$AAL?$AAF?$AAl?$AAa?$AAs?$AAh?$AAS?$AAt?$AAo?$AAr?$AAe?$AAO?$AAp?$AAe?$AAn?$AA?$CI?$AAr?$AAc?$AA?5?$AA?$DN?$AA?5?$AA0?$AAx?$AA?$CF?$AA0?$AA8?$AAx?$AA?$CJ?$AA?$AN@ 000062b0     common_ti_oal_flashstore:flashstore.obj
 0001:000052f8       ??_C@_1GC@LGNOEKEA@?$AAO?$AAA?$AAL?$AAF?$AAl?$AAa?$AAs?$AAh?$AAS?$AAt?$AAo?$AAr?$AAe?$AAO?$AAp?$AAe?$AAn?$AA?3?$AA?5?$AA?$CF?$AAd?$AA?5?$AAb?$AAl?$AAo?$AAc?$AAk?$AAs?$AA?0?$AA?5?$AA?$CF?$AAd@ 000062f8     common_ti_oal_flashstore:flashstore.obj
 0001:00005360       ??_C@_1HC@FKJBCKDO@?$AAO?$AAA?$AAL?$AAF?$AAl?$AAa?$AAs?$AAh?$AAS?$AAt?$AAo?$AAr?$AAe?$AAO?$AAp?$AAe?$AAn?$AA?3?$AA?5?$AA?$CF?$AAd?$AA?5?$AAb?$AAy?$AAt?$AAe?$AAs?$AA?1?$AAs?$AAe?$AAc?$AAt@ 00006360     common_ti_oal_flashstore:flashstore.obj
 0001:000053d8       ??_C@_1GK@DBMLJPHK@?$AAE?$AAR?$AAR?$AAO?$AAR?$AA?3?$AA?5?$AAO?$AAA?$AAL?$AAF?$AAl?$AAa?$AAs?$AAh?$AAS?$AAt?$AAo?$AAr?$AAe?$AAO?$AAp?$AAe?$AAn?$AA?3?$AA?5?$AAF?$AAM?$AAD?$AA_?$AAG?$AAe@ 000063d8     common_ti_oal_flashstore:flashstore.obj
 0001:00005448       ??_C@_1GE@JPMDHDDC@?$AAE?$AAR?$AAR?$AAO?$AAR?$AA?3?$AA?5?$AAO?$AAA?$AAL?$AAF?$AAl?$AAa?$AAs?$AAh?$AAS?$AAt?$AAo?$AAr?$AAe?$AAO?$AAp?$AAe?$AAn?$AA?3?$AA?5?$AAF?$AAM?$AAD?$AA_?$AAI?$AAn@ 00006448     common_ti_oal_flashstore:flashstore.obj
 0001:000054ac       ??_C@_1DK@MODMACFL@?$AA?$CL?$AAO?$AAA?$AAL?$AAF?$AAl?$AAa?$AAs?$AAh?$AAS?$AAt?$AAo?$AAr?$AAe?$AAO?$AAp?$AAe?$AAn?$AA?$CI?$AA0?$AAx?$AA?$CF?$AA0?$AA8?$AAx?$AA?$CJ?$AA?$AN?$AA?6?$AA?$AA@ 000064ac     common_ti_oal_flashstore:flashstore.obj
 0001:000054e8       ??_C@_1DE@JONHLDDF@?$AAW?$AAA?$AAR?$AAN?$AA?3?$AA?5?$AAS?$AAk?$AAi?$AAp?$AA?5?$AAb?$AAa?$AAd?$AA?5?$AAb?$AAl?$AAo?$AAc?$AAk?$AA?5?$AA?$CF?$AAd?$AA?$AN?$AA?6?$AA?$AA@ 000064e8     common_ti_oal_flashstore:flashstore.obj
 0001:0000551c       ??_C@_1DO@DHDNAGME@?$AA?9?$AAO?$AAA?$AAL?$AAF?$AAl?$AAa?$AAs?$AAh?$AAS?$AAt?$AAo?$AAr?$AAe?$AAW?$AAr?$AAi?$AAt?$AAe?$AA?$CI?$AAr?$AAc?$AA?5?$AA?$DN?$AA?5?$AA?$CF?$AAd?$AA?$CJ?$AA?$AN?$AA?6?$AA?$AA@ 0000651c     common_ti_oal_flashstore:flashstore.obj
 0001:00005560       ??_C@_1KE@CHNFEMEO@?$AAE?$AAR?$AAR?$AAO?$AAR?$AA?3?$AA?5?$AAO?$AAA?$AAL?$AAF?$AAl?$AAa?$AAs?$AAh?$AAS?$AAt?$AAo?$AAr?$AAe?$AAW?$AAr?$AAi?$AAt?$AAe?$AA?3?$AA?5?$AAC?$AAo?$AAr?$AAr?$AAu@ 00006560     common_ti_oal_flashstore:flashstore.obj
 0001:00005608       ??_C@_1HO@CIDFMKMH@?$AAE?$AAR?$AAR?$AAO?$AAR?$AA?3?$AA?5?$AAO?$AAA?$AAL?$AAF?$AAl?$AAa?$AAs?$AAh?$AAS?$AAt?$AAo?$AAr?$AAe?$AAW?$AAr?$AAi?$AAt?$AAe?$AA?3?$AA?5?$AAF?$AAa?$AAi?$AAl?$AAe@ 00006608     common_ti_oal_flashstore:flashstore.obj
 0001:00005688       ??_C@_1HO@FLMJGLLL@?$AAE?$AAR?$AAR?$AAO?$AAR?$AA?3?$AA?5?$AAO?$AAA?$AAL?$AAF?$AAl?$AAa?$AAs?$AAh?$AAS?$AAt?$AAo?$AAr?$AAe?$AAW?$AAr?$AAi?$AAt?$AAe?$AA?3?$AA?5?$AAR?$AAu?$AAn?$AA?5?$AAo@ 00006688     common_ti_oal_flashstore:flashstore.obj
 0001:00005708       ??_C@_1JG@BJDMMIFN@?$AAW?$AAA?$AAR?$AAN?$AA?3?$AA?5?$AAO?$AAA?$AAL?$AAF?$AAl?$AAa?$AAs?$AAh?$AAS?$AAt?$AAo?$AAr?$AAe?$AAW?$AAr?$AAi?$AAt?$AAe?$AA?3?$AA?5?$AAF?$AAa?$AAi?$AAl?$AAe?$AAd@ 00006708     common_ti_oal_flashstore:flashstore.obj
 0001:000057a0       ??_C@_1IE@BDHDNOD@?$AAW?$AAA?$AAR?$AAN?$AA?3?$AA?5?$AAO?$AAA?$AAL?$AAF?$AAl?$AAa?$AAs?$AAh?$AAS?$AAt?$AAo?$AAr?$AAe?$AAW?$AAr?$AAi?$AAt?$AAe?$AA?3?$AA?5?$AAF?$AAa?$AAi?$AAl?$AAe?$AAd@ 000067a0     common_ti_oal_flashstore:flashstore.obj
 0001:00005828       ??_C@_1KK@LPEKIKDN@?$AAE?$AAR?$AAR?$AAO?$AAR?$AA?3?$AA?5?$AAO?$AAA?$AAL?$AAF?$AAl?$AAa?$AAs?$AAh?$AAS?$AAt?$AAo?$AAr?$AAe?$AAW?$AAr?$AAi?$AAt?$AAe?$AA?3?$AA?5?$AAF?$AAa?$AAi?$AAl?$AAe@ 00006828     common_ti_oal_flashstore:flashstore.obj
 0001:000058d8       ??_C@_1LA@OCBPILJB@?$AAE?$AAR?$AAR?$AAO?$AAR?$AA?3?$AA?5?$AAO?$AAA?$AAL?$AAF?$AAl?$AAa?$AAs?$AAh?$AAS?$AAt?$AAo?$AAr?$AAe?$AAR?$AAe?$AAa?$AAd?$AA?3?$AA?5?$AAF?$AAl?$AAa?$AAs?$AAh?$AA?5@ 000068d8     common_ti_oal_flashstore:flashstore.obj
 0001:00005988       ??_C@_1KG@OCIIDMHN@?$AAE?$AAR?$AAR?$AAO?$AAR?$AA?3?$AA?5?$AAO?$AAA?$AAL?$AAF?$AAl?$AAa?$AAs?$AAh?$AAS?$AAt?$AAo?$AAr?$AAe?$AAW?$AAr?$AAi?$AAt?$AAe?$AA?3?$AA?5?$AAF?$AAl?$AAa?$AAs?$AAh@ 00006988     common_ti_oal_flashstore:flashstore.obj
 0001:00005a30       ??_C@_1HM@NGCJEILF@?$AA?$CL?$AAO?$AAA?$AAL?$AAF?$AAl?$AAa?$AAs?$AAh?$AAS?$AAt?$AAo?$AAr?$AAe?$AAW?$AAr?$AAi?$AAt?$AAe?$AA?$CI?$AA0?$AAx?$AA?$CF?$AA0?$AA8?$AAx?$AA?0?$AA?5?$AA0?$AAx?$AA?$CF?$AA0@ 00006a30     common_ti_oal_flashstore:flashstore.obj
 0001:00005aac       ??_C@_1DM@KJHIDCKC@?$AA?9?$AAO?$AAA?$AAL?$AAF?$AAl?$AAa?$AAs?$AAh?$AAS?$AAt?$AAo?$AAr?$AAe?$AAR?$AAe?$AAa?$AAd?$AA?$CI?$AAr?$AAc?$AA?5?$AA?$DN?$AA?5?$AA?$CF?$AAd?$AA?$CJ?$AA?$AN?$AA?6?$AA?$AA@ 00006aac     common_ti_oal_flashstore:flashstore.obj
 0001:00005ae8       ??_C@_1JE@BGBADADK@?$AAE?$AAR?$AAR?$AAO?$AAR?$AA?3?$AA?5?$AAO?$AAA?$AAL?$AAF?$AAl?$AAa?$AAs?$AAh?$AAS?$AAt?$AAo?$AAr?$AAe?$AAR?$AAe?$AAa?$AAd?$AA?3?$AA?5?$AAF?$AAa?$AAi?$AAl?$AAe?$AAd@ 00006ae8     common_ti_oal_flashstore:flashstore.obj
 0001:00005b80       ??_C@_1HM@LNEGDDBN@?$AAE?$AAR?$AAR?$AAO?$AAR?$AA?3?$AA?5?$AAO?$AAA?$AAL?$AAF?$AAl?$AAa?$AAs?$AAh?$AAS?$AAt?$AAo?$AAr?$AAe?$AAR?$AAe?$AAa?$AAd?$AA?3?$AA?5?$AAR?$AAu?$AAn?$AA?5?$AAo?$AAu@ 00006b80     common_ti_oal_flashstore:flashstore.obj
 0001:00005c00       ??_C@_1KI@BBPBIBEF@?$AAE?$AAR?$AAR?$AAO?$AAR?$AA?3?$AA?5?$AAO?$AAA?$AAL?$AAF?$AAl?$AAa?$AAs?$AAh?$AAS?$AAt?$AAo?$AAr?$AAe?$AAR?$AAe?$AAa?$AAd?$AA?3?$AA?5?$AAF?$AAa?$AAi?$AAl?$AAe?$AAd@ 00006c00     common_ti_oal_flashstore:flashstore.obj
 0001:00005ca8       ??_C@_1KC@GLMKKJJO@?$AAE?$AAR?$AAR?$AAO?$AAR?$AA?3?$AA?5?$AAO?$AAA?$AAL?$AAF?$AAl?$AAa?$AAs?$AAh?$AAS?$AAt?$AAo?$AAr?$AAe?$AAR?$AAe?$AAa?$AAd?$AA?3?$AA?5?$AAF?$AAl?$AAa?$AAs?$AAh?$AA?5@ 00006ca8     common_ti_oal_flashstore:flashstore.obj
 0001:00005d50       ??_C@_1HK@HAFKLFGC@?$AA?$CL?$AAO?$AAA?$AAL?$AAF?$AAl?$AAa?$AAs?$AAh?$AAS?$AAt?$AAo?$AAr?$AAe?$AAR?$AAe?$AAa?$AAd?$AA?$CI?$AA0?$AAx?$AA?$CF?$AA0?$AA8?$AAx?$AA?0?$AA?5?$AA0?$AAx?$AA?$CF?$AA0?$AA8@ 00006d50     common_ti_oal_flashstore:flashstore.obj
 0001:00005dd0       ??_C@_1EM@DFFPJPPN@?$AA?9?$AAO?$AAA?$AAL?$AAF?$AAl?$AAa?$AAs?$AAh?$AAS?$AAt?$AAo?$AAr?$AAe?$AAB?$AAu?$AAf?$AAf?$AAe?$AAr?$AAe?$AAd?$AAR?$AAe?$AAa?$AAd?$AA?$CI?$AAr?$AAc?$AA?5?$AA?$DN?$AA?5@ 00006dd0     common_ti_oal_flashstore:flashstore.obj
 0001:00005e20       ??_C@_1HC@PIJOJJGP@?$AA?$CL?$AAO?$AAA?$AAL?$AAF?$AAl?$AAa?$AAs?$AAh?$AAS?$AAt?$AAo?$AAr?$AAe?$AAB?$AAu?$AAf?$AAf?$AAe?$AAr?$AAe?$AAd?$AAR?$AAe?$AAa?$AAd?$AA?$CI?$AA0?$AAx?$AA?$CF?$AA0?$AA8@ 00006e20     common_ti_oal_flashstore:flashstore.obj
 0001:00005f28       ??_C@_1EA@CJMKJJJH@?$AAO?$AAA?$AAL?$AAL?$AAo?$AAc?$AAa?$AAl?$AAA?$AAl?$AAl?$AAo?$AAc?$AA?5?$AAr?$AAe?$AAt?$AAu?$AAr?$AAn?$AAe?$AAd?$AA?5?$AAN?$AAU?$AAL?$AAL?$AA?5?$AA?$CB?$AA?$AN?$AA?6?$AA?$AA@ 00006f28     common_ti_oal_alloc:alloc.obj
 0001:00005ff8       ??_C@_1KI@MDFCMHMG@?$AAC?$AA?3?$AA?2?$AAW?$AAI?$AAN?$AAC?$AAE?$AA6?$AA0?$AA0?$AA?2?$AAP?$AAL?$AAA?$AAT?$AAF?$AAO?$AAR?$AAM?$AA?2?$AAC?$AAO?$AAM?$AAM?$AAO?$AAN?$AA?2?$AAS?$AAR?$AAC?$AA?2@ 00006ff8     common_ti_fmd_nand_boot:fmd.obj
 0001:000060a0       ??_C@_1CI@OHCJFJPM@?$AAE?$AAR?$AAR?$AAO?$AAR?$AA?3?$AA?5?$AA?$CF?$AAs?$AA?5?$AAl?$AAi?$AAn?$AAe?$AA?5?$AA?$CF?$AAd?$AA?3?$AA?5?$AA?$AA@ 000070a0     common_ti_fmd_nand_boot:fmd.obj
 0001:000060c8       ??_C@_1HG@DCOIKHPB@?$AAF?$AAM?$AAD?$AA?5?$AAd?$AAr?$AAi?$AAv?$AAe?$AAr?$AA?5?$AAs?$AAu?$AAp?$AAp?$AAo?$AAr?$AAt?$AAs?$AA?5?$AAo?$AAn?$AAl?$AAy?$AA?5?$AA1?$AA6?$AAb?$AAi?$AAt?$AAs?$AA?5@ 000070c8     common_ti_fmd_nand_boot:fmd.obj
 0001:00006140       ??_C@_1DK@CAAJGKFH@?$AAI?$AAn?$AAc?$AAo?$AAr?$AAr?$AAe?$AAc?$AAt?$AA?5?$AAE?$AAC?$AAC?$AA?5?$AAt?$AAy?$AAp?$AAe?$AA?5?$AAs?$AAe?$AAt?$AAt?$AAi?$AAn?$AAg?$AA?$AN?$AA?6?$AA?$AA@ 00007140     common_ti_fmd_nand_boot:fmd.obj
 0001:00006210       ??_C@_1EA@JNFKONCC@?$AAE?$AAr?$AAr?$AAo?$AAr?$AA?3?$AA?5?$AAU?$AAn?$AAr?$AAe?$AAc?$AAo?$AAg?$AAn?$AAi?$AAz?$AAe?$AAd?$AA?5?$AAM?$AAo?$AAd?$AAe?$AA?$FL?$AA?$CF?$AAd?$AA?$FN?$AA?$CB?$AA?$AN?$AA?6?$AA?$AA@ 00007210     common_ti_fmd_nand_boot:gpmc_ecc.obj
 0001:00006250       ??_C@_1EI@LMGHLBK@?$AAE?$AAC?$AAC?$AA_?$AAI?$AAn?$AAi?$AAt?$AA?3?$AA?5?$AAu?$AAn?$AAs?$AAu?$AAp?$AAp?$AAo?$AAr?$AAt?$AAe?$AAd?$AA?5?$AAe?$AAc?$AAc?$AA?5?$AAm?$AAo?$AAd?$AAe?$AA?3?$AA?$CF@ 00007250     common_ti_fmd_nand_boot:gpmc_ecc.obj
 0001:000063c0       ??_C@_1KM@EEHAFCCJ@?$AAC?$AA?3?$AA?2?$AAW?$AAI?$AAN?$AAC?$AAE?$AA6?$AA0?$AA0?$AA?2?$AAP?$AAL?$AAA?$AAT?$AAF?$AAO?$AAR?$AAM?$AA?2?$AAC?$AAO?$AAM?$AAM?$AAO?$AAN?$AA?2?$AAS?$AAR?$AAC?$AA?2@ 000073c0     common_ti_oali2c:oali2c.obj
 0001:0000646c       ??_C@_1CC@EHKJMBJI@?$AAD?$AAe?$AAv?$AAi?$AAc?$AAe?$AA?5?$AAn?$AAo?$AAt?$AA?5?$AAf?$AAo?$AAu?$AAn?$AAd?$AA?$AA@ 0000746c     common_ti_oali2c:oali2c.obj
 0001:00006490       ??_C@_1KA@GOKKFLEJ@?$AAW?$AAA?$AAR?$AAN?$AA?3?$AA?5?$AAI?$AA2?$AAC?$AA?3?$AA?3?$AAI?$AA2?$AAC?$AAP?$AAo?$AAl?$AAl?$AAS?$AAt?$AAa?$AAt?$AAu?$AAs?$AA?5?$AA?9?$AA?5?$AAc?$AAh?$AAe?$AAc?$AAk@ 00007490     common_ti_oali2c:oali2c.obj
 0001:00006530       ??_C@_1GK@FLELOHLG@?$AAW?$AAA?$AAR?$AAN?$AA?3?$AA?5?$AAI?$AA2?$AAC?$AA?3?$AA?3?$AAI?$AA2?$AAC?$AAR?$AAe?$AAs?$AAe?$AAt?$AAD?$AAe?$AAv?$AAi?$AAc?$AAe?$AA?5?$AA?9?$AA?5?$AAf?$AAa?$AAi?$AAl@ 00007530     common_ti_oali2c:oali2c.obj
 0001:000065a0       ??_C@_1GO@NCGHHJFM@?$AAW?$AAA?$AAR?$AAN?$AA?3?$AA?5?$AAI?$AA2?$AAC?$AA?3?$AA?5?$AAW?$AAr?$AAi?$AAt?$AAe?$AA?5?$AAf?$AAa?$AAi?$AAl?$AAe?$AAd?$AA?5?$AA?$CI?$AAS?$AAA?$AA?$DN?$AA0?$AAx?$AA?$CF?$AA0@ 000075a0     common_ti_oali2c:oali2c.obj
 0001:00006610       ??_C@_1CO@EBLPIMOB@?$AAW?$AAr?$AAi?$AAt?$AAe?$AA?3?$AA?5?$AAA?$AAt?$AAt?$AAe?$AAm?$AAp?$AAt?$AAs?$AA?5?$AA?$DN?$AA?5?$AA?$CF?$AAd?$AA?$AN?$AA?6?$AA?$AA@ 00007610     common_ti_oali2c:oali2c.obj
 0001:00006640       ??_C@_1HM@LEOLDKCA@?$AAW?$AAA?$AAR?$AAN?$AA?3?$AA?5?$AAI?$AA2?$AAC?$AA?3?$AA?5?$AAR?$AAe?$AAa?$AAd?$AA?5?$AAf?$AAa?$AAi?$AAl?$AAe?$AAd?$AA?5?$AA?$CI?$AAs?$AAl?$AAa?$AAv?$AAe?$AA?5?$AAa?$AAd@ 00007640     common_ti_oali2c:oali2c.obj
 0001:000066bc       ??_C@_1CM@HPEFBBEG@?$AAR?$AAe?$AAa?$AAd?$AA?3?$AA?5?$AAA?$AAt?$AAt?$AAe?$AAm?$AAp?$AAt?$AAs?$AA?5?$AA?$DN?$AA?5?$AA?$CF?$AAd?$AA?$AN?$AA?6?$AA?$AA@ 000076bc     common_ti_oali2c:oali2c.obj
 0001:000066e8       ??_C@_1CO@IKDMELMO@?$AAI?$AA2?$AAC?$AA?3?$AA?5?$AAR?$AAE?$AAS?$AAE?$AAT?$AA?5?$AAd?$AAe?$AAv?$AAi?$AAc?$AAe?$AA?5?$AA?$CF?$AAd?$AA?$AN?$AA?6?$AA?$AA@ 000076e8     common_ti_oali2c:oali2c.obj
 0001:000068c8       ??_C@_1HK@FIHOCGBD@?$AAE?$AAR?$AAR?$AAO?$AAR?$AA?3?$AA?5?$AAG?$AAI?$AAO?$AA_?$AAI?$AAn?$AAi?$AAt?$AA?3?$AA?5?$AAF?$AAa?$AAi?$AAl?$AAe?$AAd?$AA?5?$AAt?$AAo?$AA?5?$AAi?$AAn?$AAi?$AAt?$AAi@ 000078c8     common_ti_oal_gpiodispatch:gpio_dispatch.obj
 0001:00006944       ??_C@_19NNFDHLJH@?$AAb?$AAo?$AAo?$AAt?$AA?$AA@ 00007944     common_ti_oal_gpiodispatch:gpio_dispatch.obj
 0001:00006950       DEVICE_IFC_TWL_GUID        00007950     TPS659xx_oal_gpio:tps659xx_gpio.obj
 0001:00006a80       ??_C@_15BMCNAON@?$AAR?$AAX?$AA?$AA@ 00007a80     OMAP3530_soccfg:devicemap.obj
 0001:00006a88       ??_C@_15NHJLDDPA@?$AAT?$AAX?$AA?$AA@ 00007a88     OMAP3530_soccfg:devicemap.obj
 0001:00006a90       ??_C@_17GHFABBII@?$AAM?$AAM?$AAU?$AA?$AA@ 00007a90     OMAP3530_soccfg:devicemap.obj
 0001:00006a98       ??_C@_19EMJFMDEF@?$AAI?$AAR?$AAQ?$AA3?$AA?$AA@ 00007a98     OMAP3530_soccfg:devicemap.obj
 0001:00006aa4       ??_C@_19PECJKECA@?$AAI?$AAR?$AAQ?$AA2?$AA?$AA@ 00007aa4     OMAP3530_soccfg:devicemap.obj
 0001:00006ab0       ??_C@_19OGJMALMO@?$AAI?$AAR?$AAQ?$AA1?$AA?$AA@ 00007ab0     OMAP3530_soccfg:devicemap.obj
 0001:00006abc       ??_C@_19FOCAGMKL@?$AAI?$AAR?$AAQ?$AA0?$AA?$AA@ 00007abc     OMAP3530_soccfg:devicemap.obj
 0001:00006ac8       ??_C@_1BC@JBFPJMDB@?$AAo?$AAv?$AAe?$AAr?$AAf?$AAl?$AAo?$AAw?$AA?$AA@ 00007ac8     OMAP3530_soccfg:devicemap.obj
 0001:00006b70       s_DeviceAddressMap         00007b70     OMAP3530_soccfg:devicemap.obj
 0001:00006d70       s_DeviceIrqMap             00007d70     OMAP3530_soccfg:devicemap.obj
 0001:000072a8       ??_C@_1FK@KLGDBING@?$AAS?$AAD?$AAC?$AAA?$AAR?$AAD?$AA?3?$AA?5?$AAr?$AAe?$AAq?$AAe?$AAs?$AAt?$AAe?$AAd?$AA?5?$AAs?$AAp?$AAe?$AAe?$AAd?$AA?5?$AA?$CF?$AAd?$AA?0?$AA?5?$AAa?$AAc?$AAt?$AAu?$AAa@ 000082a8     common_ti_boot_sdmemory:sdcard.obj
 0001:00007308       ??_C@_1GE@IHFMNDC@?$AAM?$AAM?$AAC?$AA?3?$AA?3?$AAM?$AAM?$AAC?$AAC?$AAo?$AAm?$AAm?$AAa?$AAn?$AAd?$AAR?$AAe?$AAs?$AAp?$AAo?$AAn?$AAs?$AAe?$AA?3?$AA?5?$AAC?$AAo?$AAm?$AAm?$AAa?$AAn?$AAd@ 00008308     common_ti_boot_sdmemory:sdcard.obj
 0001:00007370       ??_C@_1IM@IDDFJJFI@?$AAM?$AAM?$AAC?$AA?3?$AA?3?$AAM?$AAM?$AAC?$AAC?$AAo?$AAm?$AAm?$AAa?$AAn?$AAd?$AAR?$AAe?$AAs?$AAp?$AAo?$AAn?$AAs?$AAe?$AA?3?$AA?5?$AAC?$AAo?$AAm?$AAm?$AAa?$AAn?$AAd@ 00008370     common_ti_boot_sdmemory:sdcard.obj
 0001:00007400       ??_C@_1HM@GLHKNEKG@?$AAM?$AAM?$AAC?$AA?3?$AA?3?$AAM?$AAM?$AAC?$AAC?$AAo?$AAm?$AAm?$AAa?$AAn?$AAd?$AAR?$AAe?$AAs?$AAp?$AAo?$AAn?$AAs?$AAe?$AA?3?$AA?5?$AAM?$AAM?$AAC?$AAS?$AAe?$AAn?$AAd@ 00008400     common_ti_boot_sdmemory:sdcard.obj
 0001:00007480       ??_C@_1FE@BCNJBLJK@?$AAS?$AAD?$AAM?$AAe?$AAm?$AA?3?$AA?5?$AAc?$AAa?$AAr?$AAd?$AA?5?$AAr?$AAd?$AAy?$AA?5?$AAb?$AAT?$AAi?$AAm?$AAe?$AAo?$AAu?$AAt?$AA?0?$AA?5?$AAs?$AAt?$AAa?$AAt?$AAu?$AAs@ 00008480     common_ti_boot_sdmemory:sdcard.obj
 0001:000074d4       ??_C@_1DG@LHNGMEJK@?$AAr?$AAe?$AAa?$AAd?$AA?5?$AAm?$AAu?$AAl?$AAt?$AAi?$AA?5?$AAs?$AAe?$AAc?$AAt?$AAo?$AAr?$AAs?$AA?5?$AAe?$AAr?$AAr?$AAo?$AAr?$AA?$AN?$AA?6?$AA?$AA@ 000084d4     common_ti_boot_sdmemory:sdcard.obj
 0001:00007510       ??_C@_1IM@NDHBECDO@?$AAM?$AAM?$AAC?$AAR?$AAe?$AAa?$AAd?$AAM?$AAu?$AAl?$AAt?$AAi?$AAS?$AAe?$AAc?$AAt?$AAo?$AAr?$AAs?$AA?3?$AA?5?$AAM?$AAM?$AAC?$AAC?$AAo?$AAm?$AAm?$AAa?$AAn?$AAd?$AAR@ 00008510     common_ti_boot_sdmemory:sdcard.obj
 0001:000075a0       ??_C@_1JA@ILPGFCNI@?$AAM?$AAM?$AAC?$AAR?$AAe?$AAa?$AAd?$AAM?$AAu?$AAl?$AAt?$AAi?$AAS?$AAe?$AAc?$AAt?$AAo?$AAr?$AAs?$AA?3?$AA?5?$AAM?$AAM?$AAC?$AAC?$AAo?$AAm?$AAm?$AAa?$AAn?$AAd?$AAR@ 000085a0     common_ti_boot_sdmemory:sdcard.obj
 0001:00007630       ??_C@_1FK@HAPCNFMM@?$AAM?$AAM?$AAC?$AAR?$AAe?$AAa?$AAd?$AAM?$AAu?$AAl?$AAt?$AAi?$AAS?$AAe?$AAc?$AAt?$AAo?$AAr?$AAs?$AA?3?$AA?5?$AAM?$AAM?$AAC?$AAW?$AAa?$AAi?$AAt?$AAF?$AAo?$AAr?$AAR@ 00008630     common_ti_boot_sdmemory:sdcard.obj
 0001:0000768c       ??_C@_1BK@GAKJANPH@?$AAr?$AAe?$AAa?$AAd?$AA?5?$AAe?$AAr?$AAr?$AAo?$AAr?$AA?$AN?$AA?6?$AA?$AA@ 0000868c     common_ti_boot_sdmemory:sdcard.obj
 0001:000076a8       ??_C@_1HE@HOGFNIBK@?$AAM?$AAM?$AAC?$AAR?$AAe?$AAa?$AAd?$AA?3?$AA?5?$AAM?$AAM?$AAC?$AAC?$AAo?$AAm?$AAm?$AAa?$AAn?$AAd?$AAR?$AAe?$AAs?$AAp?$AAo?$AAn?$AAs?$AAe?$AA?5?$AAe?$AAr?$AAr?$AAo@ 000086a8     common_ti_boot_sdmemory:sdcard.obj
 0001:00007720       ??_C@_1KA@GCFNELEL@?$AAM?$AAM?$AAC?$AAS?$AAe?$AAl?$AAe?$AAc?$AAt?$AAC?$AAa?$AAr?$AAd?$AA?3?$AA?5?$AAt?$AAi?$AAm?$AAe?$AAo?$AAu?$AAt?$AA?5?$AAw?$AAa?$AAi?$AAt?$AAi?$AAn?$AAg?$AA?5?$AAf@ 00008720     common_ti_boot_sdmemory:sdcard.obj
 0001:000077c0       ??_C@_1GK@CDAMFDEK@?$AAM?$AAM?$AAC?$AA?3?$AA?5?$AAu?$AAn?$AAa?$AAb?$AAl?$AAe?$AA?5?$AAt?$AAo?$AA?5?$AAs?$AAe?$AAt?$AA?5?$AAw?$AAi?$AAd?$AAe?$AA?5?$AAb?$AAu?$AAs?$AA?5?$AAm?$AAo?$AAd?$AAe@ 000087c0     common_ti_boot_sdmemory:sdcard.obj
 0001:0000782c       ??_C@_1CC@BECOMKMK@?$AAA?$AAP?$AAP?$AA_?$AAC?$AAM?$AAD?$AA?5?$AAf?$AAa?$AAi?$AAl?$AAe?$AAd?$AA?$AN?$AA?6?$AA?$AA@ 0000882c     common_ti_boot_sdmemory:sdcard.obj
 0001:00007850       ??_C@_1EK@FDKGIIKM@?$AAS?$AAD?$AAC?$AAa?$AAr?$AAd?$AAI?$AAn?$AAi?$AAt?$AA?3?$AA?5?$AAM?$AAM?$AAC?$AAS?$AAe?$AAt?$AAB?$AAl?$AAo?$AAc?$AAk?$AAL?$AAe?$AAn?$AA?5?$AAf?$AAa?$AAi?$AAl?$AAe@ 00008850     common_ti_boot_sdmemory:sdcard.obj
 0001:000078a0       ??_C@_1GE@FEOFGONO@?$AAM?$AAM?$AAC?$AAS?$AAe?$AAl?$AAe?$AAc?$AAt?$AAC?$AAa?$AAr?$AAd?$AA?3?$AA?5?$AAp?$AAo?$AAl?$AAl?$AA?5?$AAs?$AAt?$AAa?$AAt?$AAu?$AAs?$AA?5?$AAe?$AAr?$AAr?$AAo?$AAr@ 000088a0     common_ti_boot_sdmemory:sdcard.obj
 0001:00007908       ??_C@_1JO@JCBKFGLI@?$AAM?$AAM?$AAC?$AAI?$AAs?$AAs?$AAu?$AAe?$AAI?$AAd?$AAe?$AAn?$AAt?$AAi?$AAf?$AAy?$AA?3?$AA?5?$AAb?$AAu?$AAs?$AAy?$AA?5?$AAb?$AAi?$AAt?$AA?5?$AAn?$AAe?$AAv?$AAe?$AAr@ 00008908     common_ti_boot_sdmemory:sdcard.obj
 0001:000079a8       ??_C@_1KE@BIOPJCPI@?$AAM?$AAM?$AAC?$AAI?$AAs?$AAs?$AAu?$AAe?$AAI?$AAd?$AAe?$AAn?$AAt?$AAi?$AAf?$AAy?$AA?3?$AA?5?$AAb?$AAu?$AAs?$AAy?$AA?5?$AAb?$AAi?$AAt?$AA?5?$AAn?$AAe?$AAv?$AAe?$AAr@ 000089a8     common_ti_boot_sdmemory:sdcard.obj
 0001:00007a50       ??_C@_1FK@HAIGBMKL@?$AAM?$AAM?$AAC?$AAI?$AAs?$AAs?$AAu?$AAe?$AAI?$AAd?$AAe?$AAn?$AAt?$AAi?$AAf?$AAy?$AA?3?$AA?5?$AAM?$AAM?$AAC?$AAC?$AAo?$AAm?$AAm?$AAa?$AAn?$AAd?$AAR?$AAe?$AAs?$AAp@ 00008a50     common_ti_boot_sdmemory:sdcard.obj
 0001:00007ab0       ??_C@_1EI@DCCPDMOI@?$AAS?$AAD?$AAC?$AAa?$AAr?$AAd?$AAI?$AAn?$AAi?$AAt?$AA?3?$AA?5?$AAM?$AAM?$AAC?$AAS?$AAe?$AAl?$AAe?$AAc?$AAt?$AAC?$AAa?$AAr?$AAd?$AA?5?$AAf?$AAa?$AAi?$AAl?$AAe?$AAd@ 00008ab0     common_ti_boot_sdmemory:sdcard.obj
 0001:00007af8       ??_C@_1EM@FDPFBDGI@?$AAS?$AAD?$AAC?$AAa?$AAr?$AAd?$AAI?$AAn?$AAi?$AAt?$AA?3?$AA?5?$AAM?$AAM?$AAC?$AAW?$AAa?$AAi?$AAt?$AAF?$AAo?$AAr?$AAR?$AAe?$AAa?$AAd?$AAy?$AA?5?$AAf?$AAa?$AAi?$AAl@ 00008af8     common_ti_boot_sdmemory:sdcard.obj
 0001:00007b44       ??_C@_1DM@BFOJJFFG@?$AAS?$AAD?$AAC?$AAa?$AAr?$AAd?$AAI?$AAn?$AAi?$AAt?$AA?3?$AA?5?$AAN?$AAo?$AA?5?$AAm?$AAe?$AAd?$AAi?$AAa?$AA?5?$AAf?$AAo?$AAu?$AAn?$AAd?$AA?$CB?$AA?$AN?$AA?6?$AA?$AA@ 00008b44     common_ti_boot_sdmemory:sdcard.obj
 0001:00007b80       ??_C@_1EE@PJJAIGOH@?$AAS?$AAD?$AAC?$AAa?$AAr?$AAd?$AAI?$AAn?$AAi?$AAt?$AA?3?$AA?5?$AAM?$AAM?$AAC?$AAI?$AAn?$AAi?$AAt?$AAD?$AAi?$AAs?$AAk?$AA?5?$AAf?$AAa?$AAi?$AAl?$AAe?$AAd?$AA?$CB?$AA?$AN@ 00008b80     common_ti_boot_sdmemory:sdcard.obj
 0001:00007bc8       ??_C@_1GI@CBFICDBE@?$AAS?$AAD?$AAC?$AAa?$AAr?$AAd?$AAR?$AAe?$AAa?$AAd?$AAS?$AAe?$AAc?$AAt?$AAo?$AAr?$AA?3?$AA?5?$AAE?$AAr?$AAr?$AAo?$AAr?$AA?5?$AAr?$AAe?$AAa?$AAd?$AAi?$AAn?$AAg?$AA?5@ 00008bc8     common_ti_boot_sdmemory:sdcard.obj
 0001:00007c30       ??_C@_1HE@MOOOFOKP@?$AAS?$AAD?$AAC?$AAa?$AAr?$AAd?$AAR?$AAe?$AAa?$AAd?$AAS?$AAe?$AAc?$AAt?$AAo?$AAr?$AA?3?$AA?5?$AAE?$AAr?$AAr?$AAo?$AAr?$AA?5?$AAr?$AAe?$AAa?$AAd?$AAi?$AAn?$AAg?$AA?5@ 00008c30     common_ti_boot_sdmemory:sdcard.obj
 0001:00007ca8       ??_C@_1IM@HCIKFOHM@?$AAS?$AAD?$AAC?$AAa?$AAr?$AAd?$AAR?$AAe?$AAa?$AAd?$AAM?$AAu?$AAl?$AAt?$AAi?$AAS?$AAe?$AAc?$AAt?$AAo?$AAr?$AAs?$AA?3?$AA?5?$AAE?$AAr?$AAr?$AAo?$AAr?$AA?5?$AAr?$AAe@ 00008ca8     common_ti_boot_sdmemory:sdcard.obj
 0001:00007d38       ??_C@_1IA@BMANGLND@?$AAS?$AAD?$AAC?$AAa?$AAr?$AAd?$AAR?$AAe?$AAa?$AAd?$AAM?$AAu?$AAl?$AAt?$AAi?$AAS?$AAe?$AAc?$AAt?$AAo?$AAr?$AAs?$AA?3?$AA?5?$AAE?$AAr?$AAr?$AAo?$AAr?$AA?5?$AAr?$AAe@ 00008d38     common_ti_boot_sdmemory:sdcard.obj
 0001:00007db8       ??_C@_1EM@KMLGLOML@?$AAB?$AAL?$AAS?$AAD?$AAC?$AAa?$AAr?$AAd?$AAD?$AAo?$AAw?$AAn?$AAl?$AAo?$AAa?$AAd?$AA?3?$AA?5?$AA?5?$AAc?$AAa?$AAn?$AAn?$AAo?$AAt?$AA?5?$AAo?$AAp?$AAe?$AAn?$AA?5?$AAf@ 00008db8     common_ti_boot_sdmemory:sdcard.obj
 0001:00007e08       ??_C@_1FA@PHKOKPHG@?$AAB?$AAL?$AAS?$AAD?$AAC?$AAa?$AAr?$AAd?$AAD?$AAo?$AAw?$AAn?$AAl?$AAo?$AAa?$AAd?$AA?3?$AA?5?$AA?5?$AAf?$AAi?$AAl?$AAe?$AAi?$AAo?$AA?5?$AAi?$AAn?$AAi?$AAt?$AA?5?$AAf@ 00008e08     common_ti_boot_sdmemory:sdcard.obj
 0001:00007ee8       gwaCMD                     00008ee8     common_ti_boot_sdhc:sdhc.obj
 0001:000080e8       ??_C@_1DA@PKLOKBNI@?$AAI?$AAn?$AAi?$AAt?$AAi?$AAa?$AAl?$AAi?$AAz?$AAe?$AAH?$AAW?$AA?3?$AA?5?$AAT?$AAI?$AAM?$AAE?$AAO?$AAU?$AAT?$AA?$AN?$AA?6?$AA?$AA@ 000090e8     common_ti_boot_sdhc:sdhc.obj
 0001:00008118       ??_C@_1DO@PKNJPAKP@?$AAI?$AAn?$AAi?$AAt?$AA?5?$AAS?$AAD?$AAH?$AAC?$AA?5?$AAH?$AAW?$AA?3?$AA?5?$AAc?$AAo?$AAn?$AAt?$AAr?$AAo?$AAl?$AAl?$AAe?$AAr?$AA?5?$AAR?$AAS?$AAT?$AA?$AN?$AA?6?$AA?$AA@ 00009118     common_ti_boot_sdhc:sdhc.obj
 0001:00008158       ??_C@_1CI@EBIAGFPN@?$AAM?$AAM?$AAC?$AA?5?$AAR?$AAe?$AAs?$AAe?$AAt?$AA?5?$AAt?$AAi?$AAm?$AAe?$AAo?$AAu?$AAt?$AA?$AN?$AA?6?$AA?$AA@ 00009158     common_ti_boot_sdhc:sdhc.obj
 0001:00008180       ??_C@_1CI@DLLABNKH@?$AAS?$AAD?$AAH?$AAC?$AA?5?$AAb?$AAa?$AAd?$AA?5?$AAs?$AAl?$AAo?$AAt?$AA?5?$AAn?$AAu?$AAm?$AA?$AN?$AA?6?$AA?$AA@ 00009180     common_ti_boot_sdhc:sdhc.obj
 0001:000081a8       ??_C@_1GK@EBPKPBPE@?$AAG?$AAe?$AAt?$AAC?$AAo?$AAm?$AAm?$AAa?$AAn?$AAd?$AAR?$AAe?$AAs?$AAp?$AAo?$AAn?$AAs?$AAe?$AA?$CI?$AA?$CJ?$AA?5?$AA?9?$AA?5?$AAU?$AAn?$AAr?$AAe?$AAc?$AAo?$AAg?$AAn?$AAi@ 000091a8     common_ti_boot_sdhc:sdhc.obj
 0001:00008214       ??_C@_1DM@FAHGNIG@?$AAS?$AAD?$AAI?$AAP?$AAo?$AAl?$AAl?$AAi?$AAn?$AAg?$AAR?$AAe?$AAc?$AAe?$AAi?$AAv?$AAe?$AA?3?$AA?5?$AAT?$AAI?$AAM?$AAE?$AAO?$AAU?$AAT?$AA3?$AA?$AN?$AA?6?$AA?$AA@ 00009214     common_ti_boot_sdhc:sdhc.obj
 0001:00008250       ??_C@_1DM@ILIIGKGF@?$AAS?$AAD?$AAI?$AAP?$AAo?$AAl?$AAl?$AAi?$AAn?$AAg?$AAR?$AAe?$AAc?$AAe?$AAi?$AAv?$AAe?$AA?3?$AA?5?$AAT?$AAI?$AAM?$AAE?$AAO?$AAU?$AAT?$AA0?$AA?$AN?$AA?6?$AA?$AA@ 00009250     common_ti_boot_sdhc:sdhc.obj
 0001:0000828c       ??_C@_1DM@EHCCGKPL@?$AAS?$AAD?$AAI?$AAP?$AAo?$AAl?$AAl?$AAi?$AAn?$AAg?$AAR?$AAe?$AAc?$AAe?$AAi?$AAv?$AAe?$AA?3?$AA?5?$AAT?$AAI?$AAM?$AAE?$AAO?$AAU?$AAT?$AA1?$AA?$AN?$AA?6?$AA?$AA@ 0000928c     common_ti_boot_sdhc:sdhc.obj
 0001:000082c8       ??_C@_1EG@HOIABLIC@?$AAS?$AAD?$AAH?$AAC?$AA?3?$AA?5?$AAS?$AAD?$AAI?$AAP?$AAo?$AAl?$AAl?$AAi?$AAn?$AAg?$AAR?$AAe?$AAc?$AAe?$AAi?$AAv?$AAe?$AA?$CI?$AA?$CJ?$AA?5?$AAf?$AAa?$AAi?$AAl?$AAe?$AAd@ 000092c8     common_ti_boot_sdhc:sdhc.obj
 0001:00008310       ??_C@_1GA@HNKHACLA@?$AAS?$AAD?$AAH?$AAC?$AA?3?$AA?5?$AAE?$AAr?$AAr?$AAo?$AAr?$AA?5?$AAg?$AAe?$AAt?$AAt?$AAi?$AAn?$AAg?$AA?5?$AAr?$AAe?$AAs?$AAp?$AAo?$AAn?$AAs?$AAe?$AA?5?$AAf?$AAo?$AAr@ 00009310     common_ti_boot_sdhc:sdhc.obj
 0001:00008370       ??_C@_1EM@JOOFMKFB@?$AAS?$AAD?$AAH?$AAC?$AA?3?$AA?5?$AAc?$AAo?$AAm?$AAm?$AAa?$AAn?$AAd?$AA?5?$AAr?$AAe?$AAs?$AAp?$AAo?$AAn?$AAs?$AAe?$AA?5?$AAt?$AAi?$AAm?$AAe?$AAo?$AAu?$AAt?$AA?5?$AAC@ 00009370     common_ti_boot_sdhc:sdhc.obj
 0001:000083c0       ??_C@_1EO@LNFDCIBN@?$AAS?$AAD?$AAH?$AAC?$AA?3?$AA?5?$AAc?$AAo?$AAm?$AAm?$AAa?$AAn?$AAd?$AA?5?$AAr?$AAe?$AAs?$AAp?$AAo?$AAn?$AAs?$AAe?$AA?5?$AAt?$AAi?$AAm?$AAe?$AAo?$AAu?$AAt?$AA?5?$AAD@ 000093c0     common_ti_boot_sdhc:sdhc.obj
 0001:00008410       ??_C@_1EM@PLCIGAJB@?$AAS?$AAD?$AAH?$AAC?$AA?3?$AA?5?$AAc?$AAo?$AAm?$AAm?$AAa?$AAn?$AAd?$AA?5?$AAr?$AAe?$AAs?$AAp?$AAo?$AAn?$AAs?$AAe?$AA?5?$AAt?$AAi?$AAm?$AAe?$AAo?$AAu?$AAt?$AA?5?$AAD@ 00009410     common_ti_boot_sdhc:sdhc.obj
 0001:0000845c       ??_C@_1DG@OHDKIEBD@?$AAS?$AAD?$AAH?$AAC?$AA?3?$AA?5?$AAc?$AAo?$AAm?$AAm?$AAa?$AAn?$AAd?$AA?5?$AAC?$AAR?$AAC?$AA?5?$AAe?$AAr?$AAr?$AAo?$AAr?$AA?$CB?$AA?$AN?$AA?6?$AA?$AA@ 0000945c     common_ti_boot_sdhc:sdhc.obj
 0001:00008494       ??_C@_1DG@MBAMAGDP@?$AAS?$AAD?$AAH?$AAC?$AA?3?$AA?5?$AAC?$AAa?$AAr?$AAd?$AA?5?$AAB?$AAU?$AAS?$AAY?$AA?5?$AAt?$AAi?$AAm?$AAe?$AAo?$AAu?$AAt?$AA?$CB?$AA?$AN?$AA?6?$AA?$AA@ 00009494     common_ti_boot_sdhc:sdhc.obj
 0001:000084cc       ??_C@_1CM@GCMKJBGI@?$AAS?$AAD?$AAH?$AAC?$AA?3?$AA?5?$AAC?$AAa?$AAr?$AAd?$AA?5?$AAr?$AAe?$AAm?$AAo?$AAv?$AAe?$AAd?$AA?$CB?$AA?$AN?$AA?6?$AA?$AA@ 000094cc     common_ti_boot_sdhc:sdhc.obj
 0001:00008588       ??_C@_1EG@GCJBAFHN@?$AAE?$AAr?$AAr?$AAo?$AAr?$AA?5?$AAt?$AAr?$AAa?$AAn?$AAs?$AAm?$AAi?$AAt?$AAt?$AAi?$AAn?$AAg?$AA?5?$AAb?$AAu?$AAf?$AAf?$AAe?$AAr?$AA?$CB?$AA?5?$AA?5?$AA0?$AAx?$AA?$CF?$AAx@ 00009588     common_ti_ethdrv_lan911x:lan911x.obj
 0001:000085d0       ??_C@_1DM@CALKBHOJ@?$AAN?$AAo?$AAt?$AA?5?$AAe?$AAn?$AAo?$AAu?$AAg?$AAh?$AA?5?$AAr?$AAo?$AAo?$AAm?$AA?5?$AAi?$AAn?$AA?5?$AAT?$AAX?$AA?5?$AAF?$AAI?$AAF?$AAO?$AA?$CB?$AA?$AN?$AA?6?$AA?$AA@ 000095d0     common_ti_ethdrv_lan911x:lan911x.obj
 0001:00008610       ??_C@_1EC@CDIADGHO@?$AAR?$AAX?$AA?5?$AAb?$AAu?$AAf?$AAf?$AAe?$AAr?$AA?5?$AAn?$AAo?$AAt?$AA?5?$AAD?$AAW?$AAO?$AAR?$AAD?$AA?5?$AAa?$AAl?$AAi?$AAg?$AAn?$AAe?$AAd?$AA?4?$AA?4?$AA?4?$AA?$AN?$AA?6@ 00009610     common_ti_ethdrv_lan911x:lan911x.obj
 0001:00008654       ??_C@_1DE@NFIEPIMK@?$AAI?$AAn?$AAp?$AAu?$AAt?$AA?5?$AAb?$AAu?$AAf?$AAf?$AAe?$AAr?$AA?5?$AAt?$AAo?$AAo?$AA?5?$AAs?$AAm?$AAa?$AAl?$AAl?$AA?$CB?$AA?$AN?$AA?6?$AA?$AA@ 00009654     common_ti_ethdrv_lan911x:lan911x.obj
 0001:00008688       ??_C@_1EE@DJPMDJBC@?$AAE?$AAr?$AAr?$AAo?$AAr?$AA?5?$AAi?$AAn?$AA?5?$AAr?$AAe?$AAc?$AAe?$AAi?$AAv?$AAe?$AAd?$AA?5?$AAp?$AAa?$AAc?$AAk?$AAe?$AAt?$AA?$CB?$AA?5?$AA?5?$AA0?$AAx?$AA?$CF?$AAx?$AA?$AN@ 00009688     common_ti_ethdrv_lan911x:lan911x.obj
 0001:000086d0       ??_C@_1KI@DMEFCEJ@?$AAC?$AA?3?$AA?2?$AAW?$AAI?$AAN?$AAC?$AAE?$AA6?$AA0?$AA0?$AA?2?$AAP?$AAL?$AAA?$AAT?$AAF?$AAO?$AAR?$AAM?$AA?2?$AAC?$AAO?$AAM?$AAM?$AAO?$AAN?$AA?2?$AAS?$AAR?$AAC?$AA?2@ 000096d0     common_ti_ethdrv_lan911x:lan911x.obj
 0001:00008778       ??_C@_1EG@KGEACGLH@?$AAI?$AAn?$AAv?$AAa?$AAl?$AAi?$AAd?$AA?5?$AAE?$AAt?$AAh?$AAe?$AAr?$AAn?$AAe?$AAt?$AA?5?$AAc?$AAh?$AAi?$AAp?$AA?5?$AAI?$AAD?$AA?5?$AA?$CI?$AA0?$AAx?$AA?$CF?$AAx?$AA?$CJ?$AA?$CB@ 00009778     common_ti_ethdrv_lan911x:lan911x.obj
 0001:000087c0       ??_C@_1IE@KFEKGLKJ@?$AA?9?$AAL?$AAA?$AAN?$AA9?$AA1?$AA1?$AAX?$AAI?$AAn?$AAi?$AAt?$AA?$CI?$AAm?$AAa?$AAc?$AA?5?$AA?$DN?$AA?5?$AA?$CF?$AA0?$AA2?$AAx?$AA?3?$AA?$CF?$AA0?$AA2?$AAx?$AA?3?$AA?$CF?$AA0?$AA2@ 000097c0     common_ti_ethdrv_lan911x:lan911x.obj
 0001:00008844       ??_C@_1CM@JIECDPON@?$AA1?$AA0?$AAM?$AAb?$AAp?$AAs?$AA?0?$AA?5?$AAH?$AAa?$AAl?$AAf?$AA?5?$AAD?$AAu?$AAp?$AAl?$AAe?$AAx?$AA?$AN?$AA?6?$AA?$AA@ 00009844     common_ti_ethdrv_lan911x:lan911x.obj
 0001:00008870       ??_C@_1CO@CFGPBEPG@?$AA1?$AA0?$AA0?$AAM?$AAb?$AAp?$AAs?$AA?0?$AA?5?$AAH?$AAa?$AAl?$AAf?$AA?5?$AAD?$AAu?$AAp?$AAl?$AAe?$AAx?$AA?$AN?$AA?6?$AA?$AA@ 00009870     common_ti_ethdrv_lan911x:lan911x.obj
 0001:000088a0       ??_C@_1CM@IHIEPLGN@?$AA1?$AA0?$AAM?$AAb?$AAp?$AAs?$AA?0?$AA?5?$AAF?$AAu?$AAl?$AAl?$AA?5?$AAD?$AAu?$AAp?$AAl?$AAe?$AAx?$AA?$AN?$AA?6?$AA?$AA@ 000098a0     common_ti_ethdrv_lan911x:lan911x.obj
 0001:000088cc       ??_C@_1CO@DKKJNAHG@?$AA1?$AA0?$AA0?$AAM?$AAb?$AAp?$AAs?$AA?0?$AA?5?$AAF?$AAu?$AAl?$AAl?$AA?5?$AAD?$AAu?$AAp?$AAl?$AAe?$AAx?$AA?$AN?$AA?6?$AA?$AA@ 000098cc     common_ti_ethdrv_lan911x:lan911x.obj
 0001:000088fc       ??_C@_1DC@ECEBOIGE@?$AAI?$AAn?$AAv?$AAa?$AAl?$AAi?$AAd?$AA?5?$AAm?$AAo?$AAd?$AAe?$AA?5?$AAs?$AAe?$AAt?$AAt?$AAi?$AAn?$AAg?$AA?$CB?$AA?$CB?$AA?$AN?$AA?6?$AA?$AA@ 000098fc     common_ti_ethdrv_lan911x:lan911x.obj
 0001:00008930       ??_C@_1CG@EEDCFFGI@?$AAL?$AAi?$AAn?$AAk?$AA?5?$AAE?$AAs?$AAt?$AAa?$AAb?$AAl?$AAi?$AAs?$AAh?$AAe?$AAd?$AA?3?$AA?5?$AA?$AA@ 00009930     common_ti_ethdrv_lan911x:lan911x.obj
 0001:00008958       ??_C@_1EA@FBJAOFLG@?$AAL?$AAi?$AAn?$AAk?$AA?5?$AAn?$AAo?$AAt?$AA?5?$AAd?$AAe?$AAt?$AAe?$AAc?$AAt?$AAe?$AAd?$AA?$CB?$AA?$CB?$AA?5?$AA?5?$AAA?$AAb?$AAo?$AAr?$AAt?$AAi?$AAn?$AAg?$AA?$AN?$AA?6?$AA?$AA@ 00009958     common_ti_ethdrv_lan911x:lan911x.obj
 0001:00008998       ??_C@_1JK@NKCKLILE@?$AAM?$AAA?$AAC?$AA?5?$AAa?$AAd?$AAd?$AAr?$AAe?$AAs?$AAs?$AA?5?$AAn?$AAo?$AAt?$AA?5?$AAf?$AAo?$AAu?$AAn?$AAd?$AA?5?$AAi?$AAn?$AA?5?$AAE?$AAE?$AAP?$AAR?$AAO?$AAM?$AA?$CB@ 00009998     common_ti_ethdrv_lan911x:lan911x.obj
 0001:00008a38       ??_C@_1GG@FCBDMEID@?$AAS?$AAo?$AAf?$AAt?$AA?5?$AAr?$AAe?$AAs?$AAe?$AAt?$AA?5?$AAt?$AAi?$AAm?$AAe?$AAo?$AAu?$AAt?$AA?$CB?$AA?$CB?$AA?5?$AA?$CI?$AAH?$AAW?$AA_?$AAC?$AAF?$AAG?$AA?5?$AA?$DN?$AA?5?$AA0@ 00009a38     common_ti_ethdrv_lan911x:lan911x.obj
 0001:00008aa0       ??_C@_1EO@ELGKCHGO@?$AA?$CL?$AAL?$AAA?$AAN?$AA9?$AA1?$AA1?$AAX?$AAI?$AAn?$AAi?$AAt?$AA?$CI?$AA0?$AAx?$AA?$CF?$AA0?$AA8?$AAx?$AA?0?$AA?5?$AA0?$AAx?$AA?$CF?$AA0?$AA8?$AAx?$AA?0?$AA?5?$AA0?$AAx?$AA?$CF@ 00009aa0     common_ti_ethdrv_lan911x:lan911x.obj
 0001:00008c10       ??_C@_0BK@FGOBGFEM@RNDISMINI?5?9?9?9?5RESET?5?9?9?9?$AN?6?$AA@ 00009c10     rne_mdd:rndis.obj
 0001:00008c2c       ??_C@_0CK@HCFNMAPL@RNdis?3?3?5Too?5much?5outgoing?0?5baili@ 00009c2c     rne_mdd:rndis.obj
 0001:00008c58       ??_C@_0DK@LOJODLJL@ASSERT?$CB?5Rndis?3?3MddSendRndisMessa@ 00009c58     rne_mdd:rndis.obj
 0001:00008c94       ??_C@_0DI@ELIDGGNF@ASSERT?5Fail?5at?5uiMessageSize?$CI?$CFd?$CJ@ 00009c94     rne_mdd:rndis.obj
 0001:00008ccc       ??_C@_0CK@BEACHKGH@RNdis?3?3?5No?5mem?5for?5INITIALIZE_CO@ 00009ccc     rne_mdd:rndis.obj
 0001:00008cf8       ??_C@_0BN@MJFOLLBM@RNdis?3?3?5Should?5not?5happen?$CB?$AN?6?$AA@ 00009cf8     rne_mdd:rndis.obj
 0001:00008d18       ??_C@_0CO@JHJMPDCG@RNDISMINI?5Err?$CB?$CB?5unsupported?5RNDI@ 00009d18     rne_mdd:rndis.obj
 0001:00008d48       ??_C@_0CP@HEPIJLKK@RndisMdd?3?3?5PDD?8s?5max?5RX?5buffer?5?$DN@ 00009d48     rne_mdd:rndis.obj
 0001:00008d78       ??_C@_0CK@JCOPOCLM@ERROR?$CB?5RndisInitialize?5msg?5recei@ 00009d78     rne_mdd:rndis.obj
 0001:00008da4       ??_C@_0DB@NGCDHJGD@RndisMini?5recv?5REMOTE_NDIS_HALT_@ 00009da4     rne_mdd:rndis.obj
 0001:00008dd8       ??_C@_09JBPNJICM@rndis?4cpp?$AA@ 00009dd8     rne_mdd:rndis.obj
 0001:00008de4       ??_C@_0BP@HHOMIKAO@ASSERT?5at?5File?$CI?$CFs?$CJ?5line?5?$CI?$CFd?$CJ?$AN?6?$AA@ 00009de4     rne_mdd:rndis.obj
 0001:00008e04       ??_C@_0DB@PAFHLFPB@RndisMini?5rcv?5REMOTE_NDIS_RESET_@ 00009e04     rne_mdd:rndis.obj
 0001:00008e38       ??_C@_0DA@CMCBBBCA@RNdis?3?3?5Unknown?5RNDIS?5msg?0?5buff?$FL@ 00009e38     rne_mdd:rndis.obj
 0001:00008e68       ??_C@_0P@BDJJIKDL@Overrun?$DN0x?$CFx?6?$AN?$AA@ 00009e68     rne_mdd:rndis.obj
 0001:00008e78       ??_C@_0BJ@IJMDONAK@Buffer?5is?5too?5big?50x?$CFx?6?$AN?$AA@ 00009e78     rne_mdd:rndis.obj
 0001:00008e94       ??_C@_0CK@LKMHPIGI@Wrong?5Data?5DataLength?5Msg?$DN0x?$CFx?0P@ 00009e94     rne_mdd:rndis.obj
 0001:00008ec0       ??_C@_0CN@OHNGADLJ@RNdis?3?3?5Invalid?5RndisPacket?5l?$FL?$CFd@ 00009ec0     rne_mdd:rndis.obj
 0001:00008ef0       ??_C@_0BH@HBKBIINO@Wrong?5Data?5Type?50x?$CFx?$AN?6?$AA@ 00009ef0     rne_mdd:rndis.obj
 0001:00008f08       ??_C@_0CA@IBGOHNCO@Rndis?3?3?5initialization?3?5Fail?$CB?$AN?6?$AA@ 00009f08     rne_mdd:rndis.obj
 0001:00008f28       ??_C@_0CC@EELLDCCI@Rndis?3?3?5initialization?3?5Success?$AN@ 00009f28     rne_mdd:rndis.obj
 0001:00008f4c       ??_C@_0CD@EOFHIDOL@Rndis?3?3?5Get?5MAC?5address?5?$CFx?0?$CFx?0?$CFx@ 00009f4c     rne_mdd:rndis.obj
 0001:00008f70       ??_C@_0CM@KLOLOCDD@Rndis?3?3?5Err?5no?5MAC?5address?5read?5@ 00009f70     rne_mdd:rndis.obj
 0001:00008f9c       ??_C@_0BL@EINAHMEI@Rndis?3?3?5PDDInit?5Success?$CB?$AN?6?$AA@ 00009f9c     rne_mdd:rndis.obj
 0001:00008fb8       ??_C@_0BK@BFGGBGMH@Rndis?3?3?5initialization?$CB?$AN?6?$AA@ 00009fb8     rne_mdd:rndis.obj
 0001:00008fd4       ??_C@_0CI@PFDJABBD@Rndis?3?3?5Address?5static?5map?5to?5ad@ 00009fd4     rne_mdd:rndis.obj
 0001:00008ffc       ??_C@_0CH@LBCKJEJO@Rndis?3?3?5initialization?3?5with?5add@ 00009ffc     rne_mdd:rndis.obj
 0001:000090b8       ??_C@_0BP@JDIDIKNB@OID?$FL?$CFx?$FN?5not?5yet?5implemented?$CB?$AN?6?$AA@ 0000a0b8     rne_mdd:hostmini.obj
 0001:000090d8       ??_C@_0CP@MKNOHPIM@HostMini?3?3?5New?5filter?5set?3?5?$FL0x?$CFx@ 0000a0d8     rne_mdd:hostmini.obj
 0001:00009108       ??_C@_0BE@LPGPNKBH@HostMiniInit?3?3?5?$CB?$CB?$AN?6?$AA@ 0000a108     rne_mdd:hostmini.obj
 0001:000091b0       ??_C@_1O@NJEHEHHO@?$AAu?$AAt?$AAi?$AAl?$AA?4?$AAc?$AA?$AA@ 0000a1b0     rne_mdd:util.obj
 0001:000091c0       ??_C@_1FM@MENJGMMA@?$AAI?$AAs?$AAV?$AAa?$AAl?$AAi?$AAd?$AAM?$AAB?$AAR?$AA?3?$AA?5?$AAM?$AAB?$AAR?$AA?5?$AAs?$AAe?$AAc?$AAt?$AAo?$AAr?$AA?5?$AA?$DN?$AA?5?$AA0?$AAx?$AA?$CF?$AAx?$AA?5?$AA?$CI?$AAi@ 0000a1c0     bootpart:bootpart.obj
 0001:00009220       ??_C@_1FI@NHBLDNDE@?$AAI?$AAs?$AAV?$AAa?$AAl?$AAi?$AAd?$AAM?$AAB?$AAR?$AA?3?$AA?5?$AAM?$AAB?$AAR?$AA?5?$AAs?$AAe?$AAc?$AAt?$AAo?$AAr?$AA?5?$AA?$DN?$AA?5?$AA0?$AAx?$AA?$CF?$AAx?$AA?5?$AA?$CI?$AAv@ 0000a220     bootpart:bootpart.obj
 0001:00009278       ??_C@_1FG@HIEDLMJK@?$AAL?$AAa?$AAs?$AAt?$AAL?$AAo?$AAg?$AAS?$AAe?$AAc?$AAt?$AAo?$AAr?$AA?3?$AA?5?$AAL?$AAa?$AAs?$AAt?$AA?5?$AAl?$AAo?$AAg?$AA?5?$AAs?$AAe?$AAc?$AAt?$AAo?$AAr?$AA?5?$AAi@ 0000a278     bootpart:bootpart.obj
 0001:000092d0       ??_C@_1FE@BIDPBHNE@?$AAL?$AAo?$AAg?$AA2?$AAP?$AAh?$AAy?$AAs?$AA?3?$AA?5?$AAL?$AAo?$AAg?$AAi?$AAc?$AAa?$AAl?$AA?5?$AA0?$AAx?$AA?$CF?$AAx?$AA?5?$AA?9?$AA?$DO?$AA?5?$AAP?$AAh?$AAy?$AAs?$AAi?$AAc@ 0000a2d0     bootpart:bootpart.obj
 0001:00009328       ??_C@_1FE@KKDNCOE@?$AAL?$AAo?$AAg?$AA2?$AAP?$AAh?$AAy?$AAs?$AA?3?$AA?5?$AAM?$AAB?$AAR?$AA?5?$AAs?$AAe?$AAc?$AAt?$AAo?$AAr?$AA?5?$AAn?$AAu?$AAm?$AAb?$AAe?$AAr?$AA?5?$AAi?$AAs?$AA?5?$AAi@ 0000a328     bootpart:bootpart.obj
 0001:00009380       ??_C@_1IE@OINMAGAB@?$AAF?$AAi?$AAn?$AAd?$AAF?$AAr?$AAe?$AAe?$AAS?$AAe?$AAc?$AAt?$AAo?$AAr?$AA?3?$AA?5?$AAF?$AAr?$AAe?$AAe?$AAS?$AAe?$AAc?$AAt?$AAo?$AAr?$AA?5?$AAi?$AAs?$AA?3?$AA?5?$AA0@ 0000a380     bootpart:bootpart.obj
 0001:00009408       ??_C@_1GA@DCOIOOLE@?$AAR?$AAe?$AAa?$AAd?$AAD?$AAa?$AAt?$AAa?$AA?3?$AA?5?$AAc?$AAo?$AAr?$AAr?$AAu?$AAp?$AAt?$AA?5?$AAp?$AAa?$AAr?$AAt?$AAi?$AAt?$AAi?$AAo?$AAn?$AA?4?$AA?5?$AA?5?$AAR?$AAe@ 0000a408     bootpart:bootpart.obj
 0001:00009468       ??_C@_1FE@BLILJBI@?$AAR?$AAe?$AAa?$AAd?$AAD?$AAa?$AAt?$AAa?$AA?3?$AA?5?$AAf?$AAa?$AAi?$AAl?$AAe?$AAd?$AA?5?$AAt?$AAo?$AA?5?$AAr?$AAe?$AAa?$AAd?$AA?5?$AAs?$AAe?$AAc?$AAt?$AAo?$AAr?$AA?5@ 0000a468     bootpart:bootpart.obj
 0001:000094c0       ??_C@_1GE@PDINMOFA@?$AAR?$AAe?$AAa?$AAd?$AAD?$AAa?$AAt?$AAa?$AA?3?$AA?5?$AAt?$AAr?$AAy?$AAi?$AAn?$AAg?$AA?5?$AAt?$AAo?$AA?5?$AAr?$AAe?$AAa?$AAd?$AA?5?$AAp?$AAa?$AAs?$AAt?$AA?5?$AAe?$AAn@ 0000a4c0     bootpart:bootpart.obj
 0001:00009528       ??_C@_1FC@GDKKCNDB@?$AAR?$AAe?$AAa?$AAd?$AAD?$AAa?$AAt?$AAa?$AA?3?$AA?5?$AAS?$AAt?$AAa?$AAr?$AAt?$AA?5?$AA?$DN?$AA?5?$AA0?$AAx?$AA?$CF?$AAx?$AA?0?$AA?5?$AAL?$AAe?$AAn?$AAg?$AAt?$AAh?$AA?5?$AA?$DN@ 0000a528     bootpart:bootpart.obj
 0001:00009580       ??_C@_1JE@FOLOFLFD@?$AAB?$AAP?$AA_?$AAW?$AAr?$AAi?$AAt?$AAe?$AAD?$AAa?$AAt?$AAa?$AA?5?$AAF?$AAa?$AAi?$AAl?$AAs?$AA?4?$AA?5?$AA?5?$AAp?$AAb?$AAB?$AAu?$AAf?$AAf?$AAe?$AAr?$AA?5?$AA?$DN?$AA?5@ 0000a580     bootpart:bootpart.obj
 0001:00009618       ??_C@_1GC@COJGGABB@?$AAW?$AAr?$AAi?$AAt?$AAe?$AAD?$AAa?$AAt?$AAa?$AA?3?$AA?5?$AAc?$AAo?$AAr?$AAr?$AAu?$AAp?$AAt?$AA?5?$AAp?$AAa?$AAr?$AAt?$AAi?$AAt?$AAi?$AAo?$AAn?$AA?4?$AA?5?$AA?5?$AAR@ 0000a618     bootpart:bootpart.obj
 0001:00009680       ??_C@_1FG@NHKDFGIM@?$AAW?$AAr?$AAi?$AAt?$AAe?$AAD?$AAa?$AAt?$AAa?$AA?3?$AA?5?$AAf?$AAa?$AAi?$AAl?$AAe?$AAd?$AA?5?$AAt?$AAo?$AA?5?$AAw?$AAr?$AAi?$AAt?$AAe?$AA?5?$AAb?$AAl?$AAo?$AAc?$AAk@ 0000a680     bootpart:bootpart.obj
 0001:000096d8       ??_C@_1FG@CAMINGHI@?$AAW?$AAr?$AAi?$AAt?$AAe?$AAD?$AAa?$AAt?$AAa?$AA?3?$AA?5?$AAf?$AAa?$AAi?$AAl?$AAe?$AAd?$AA?5?$AAt?$AAo?$AA?5?$AAe?$AAr?$AAa?$AAs?$AAe?$AA?5?$AAb?$AAl?$AAo?$AAc?$AAk@ 0000a6d8     bootpart:bootpart.obj
 0001:00009730       ??_C@_1FE@NBAAJHD@?$AAW?$AAr?$AAi?$AAt?$AAe?$AAD?$AAa?$AAt?$AAa?$AA?3?$AA?5?$AAf?$AAa?$AAi?$AAl?$AAe?$AAd?$AA?5?$AAt?$AAo?$AA?5?$AAr?$AAe?$AAa?$AAd?$AA?5?$AAb?$AAl?$AAo?$AAc?$AAk?$AA?5@ 0000a730     bootpart:bootpart.obj
 0001:00009788       ??_C@_1GI@PABNOBIB@?$AAW?$AAr?$AAi?$AAt?$AAe?$AAD?$AAa?$AAt?$AAa?$AA?3?$AA?5?$AAt?$AAr?$AAy?$AAi?$AAn?$AAg?$AA?5?$AAt?$AAo?$AA?5?$AAw?$AAr?$AAi?$AAt?$AAe?$AA?5?$AAp?$AAa?$AAs?$AAt?$AA?5@ 0000a788     bootpart:bootpart.obj
 0001:000097f0       ??_C@_1FE@GECJMGHN@?$AAW?$AAr?$AAi?$AAt?$AAe?$AAD?$AAa?$AAt?$AAa?$AA?3?$AA?5?$AAS?$AAt?$AAa?$AAr?$AAt?$AA?5?$AA?$DN?$AA?5?$AA0?$AAx?$AA?$CF?$AAx?$AA?0?$AA?5?$AAL?$AAe?$AAn?$AAg?$AAt?$AAh?$AA?5@ 0000a7f0     bootpart:bootpart.obj
 0001:00009844       ??_C@_1DI@CLPKBFBH@?$AAB?$AAP?$AA_?$AAS?$AAe?$AAt?$AAD?$AAa?$AAt?$AAa?$AAP?$AAo?$AAi?$AAn?$AAt?$AAe?$AAr?$AA?5?$AAa?$AAt?$AA?5?$AA0?$AAx?$AA?$CF?$AAx?$AA?$AN?$AA?6?$AA?$AA@ 0000a844     bootpart:bootpart.obj
 0001:00009880       ??_C@_1GI@JEFLONOC@?$AAB?$AAP?$AA_?$AAI?$AAn?$AAi?$AAt?$AA?5?$AAF?$AAa?$AAi?$AAl?$AAs?$AA?5?$AAb?$AAu?$AAf?$AAf?$AAe?$AAr?$AA?5?$AAs?$AAi?$AAz?$AAe?$AA?5?$AA?$DN?$AA?5?$AA?$CF?$AAx?$AA?5?$AA?$DM@ 0000a880     bootpart:bootpart.obj
 0001:000098e8       ??_C@_1EK@EPBADBPH@?$AAB?$AAP?$AA_?$AAI?$AAn?$AAi?$AAt?$AA?5?$AAF?$AAa?$AAi?$AAl?$AAs?$AA?5?$AAF?$AAM?$AAD?$AA_?$AAG?$AAe?$AAt?$AAI?$AAn?$AAf?$AAo?$AA?5?$AAf?$AAa?$AAi?$AAl?$AAs?$AA?$CB@ 0000a8e8     bootpart:bootpart.obj
 0001:00009938       ??_C@_1EG@DJFOPAAE@?$AAB?$AAP?$AA_?$AAI?$AAn?$AAi?$AAt?$AA?5?$AAF?$AAa?$AAi?$AAl?$AAs?$AA?5?$AAN?$AAo?$AA?5?$AAm?$AAe?$AAm?$AAo?$AAr?$AAy?$AA?5?$AAf?$AAa?$AAi?$AAl?$AAs?$AA?$CB?$AA?$CB?$AA?$CB@ 0000a938     bootpart:bootpart.obj
 0001:00009980       ??_C@_1GC@MDNPPGID@?$AAC?$AAr?$AAe?$AAa?$AAt?$AAe?$AAP?$AAa?$AAr?$AAt?$AAi?$AAt?$AAi?$AAo?$AAn?$AA?3?$AA?5?$AAc?$AAo?$AAu?$AAl?$AAd?$AA?5?$AAn?$AAo?$AAt?$AA?5?$AAw?$AAr?$AAi?$AAt?$AAe@ 0000a980     bootpart:bootpart.obj
 0001:000099e8       ??_C@_1FI@BIPOHIIN@?$AAC?$AAr?$AAe?$AAa?$AAt?$AAe?$AAP?$AAa?$AAr?$AAt?$AAi?$AAt?$AAi?$AAo?$AAn?$AA?3?$AA?5?$AAe?$AAr?$AAr?$AAo?$AAr?$AA?5?$AAe?$AAr?$AAa?$AAs?$AAi?$AAn?$AAg?$AA?5?$AAb@ 0000a9e8     bootpart:bootpart.obj
 0001:00009a40       ??_C@_1DM@DFAJNBPM@?$AAW?$AAr?$AAi?$AAt?$AAe?$AAM?$AAB?$AAR?$AA?3?$AA?5?$AAM?$AAB?$AAR?$AA?5?$AAb?$AAl?$AAo?$AAc?$AAk?$AA?5?$AA?$DN?$AA?5?$AA0?$AAx?$AA?$CF?$AAx?$AA?4?$AA?$AN?$AA?6?$AA?$AA@ 0000aa40     bootpart:bootpart.obj
 0001:00009a80       ??_C@_1FG@DBMGKLBK@?$AAC?$AAr?$AAe?$AAa?$AAt?$AAe?$AAP?$AAa?$AAr?$AAt?$AAi?$AAt?$AAi?$AAo?$AAn?$AA?3?$AA?5?$AAc?$AAa?$AAn?$AA?8?$AAt?$AA?5?$AAm?$AAa?$AAr?$AAk?$AA?5?$AAs?$AAe?$AAc?$AAt@ 0000aa80     bootpart:bootpart.obj
 0001:00009ad8       ??_C@_1FK@OCFELNLC@?$AAC?$AAr?$AAe?$AAa?$AAt?$AAe?$AAP?$AAa?$AAr?$AAt?$AAi?$AAt?$AAi?$AAo?$AAn?$AA?3?$AA?5?$AAS?$AAt?$AAa?$AAr?$AAt?$AA?5?$AA?$DN?$AA?5?$AA0?$AAx?$AA?$CF?$AAx?$AA?0?$AA?5?$AAN@ 0000aad8     bootpart:bootpart.obj
 0001:00009b38       ??_C@_1MC@GGEKNHBL@?$AAC?$AAr?$AAe?$AAa?$AAt?$AAe?$AAP?$AAa?$AAr?$AAt?$AAi?$AAt?$AAi?$AAo?$AAn?$AA?3?$AA?5?$AAs?$AAe?$AAc?$AAt?$AAo?$AAr?$AAs?$AA?5?$AA?$FL?$AA0?$AAx?$AA?$CF?$AAx?$AA?0?$AA?5@ 0000ab38     bootpart:bootpart.obj
 0001:00009c00       ??_C@_1JG@DAIKJDLL@?$AAC?$AAr?$AAe?$AAa?$AAt?$AAe?$AAP?$AAa?$AAr?$AAt?$AAi?$AAt?$AAi?$AAo?$AAn?$AA?3?$AA?5?$AAN?$AAu?$AAm?$AA?5?$AAs?$AAe?$AAc?$AAt?$AAo?$AAr?$AAs?$AA?5?$AAs?$AAe?$AAt@ 0000ac00     bootpart:bootpart.obj
 0001:00009c98       ??_C@_1FG@DOPHBIDL@?$AAC?$AAr?$AAe?$AAa?$AAt?$AAe?$AAP?$AAa?$AAr?$AAt?$AAi?$AAt?$AAi?$AAo?$AAn?$AA?3?$AA?5?$AAc?$AAa?$AAn?$AA?8?$AAt?$AA?5?$AAf?$AAi?$AAn?$AAd?$AA?5?$AAf?$AAr?$AAe?$AAe@ 0000ac98     bootpart:bootpart.obj
 0001:00009cf0       ??_C@_1GG@GEEDMMEO@?$AAC?$AAr?$AAe?$AAa?$AAt?$AAe?$AAP?$AAa?$AAr?$AAt?$AAi?$AAt?$AAi?$AAo?$AAn?$AA?3?$AA?5?$AAE?$AAn?$AAt?$AAe?$AAr?$AA?5?$AAC?$AAr?$AAe?$AAa?$AAt?$AAe?$AAP?$AAa?$AAr@ 0000acf0     bootpart:bootpart.obj
 0001:00009d58       ??_C@_1BE@MNCLLFEJ@?$AAD?$AAo?$AAn?$AAe?$AA?4?$AA?$AN?$AA?6?$AA?$AN?$AA?6?$AA?$AA@ 0000ad58     bootpart:bootpart.obj
 0001:00009d70       ??_C@_1EI@DAMFCGG@?$AAB?$AAP?$AA_?$AAL?$AAo?$AAw?$AAL?$AAe?$AAv?$AAe?$AAl?$AAF?$AAo?$AAr?$AAm?$AAa?$AAt?$AA?3?$AA?5?$AAn?$AAo?$AA?5?$AAg?$AAo?$AAo?$AAd?$AA?5?$AAb?$AAl?$AAo?$AAc?$AAk@ 0000ad70     bootpart:bootpart.obj
 0001:00009db8       ??_C@_1EK@EBNKGIND@?$AAE?$AAn?$AAt?$AAe?$AAr?$AA?5?$AAL?$AAo?$AAw?$AAL?$AAe?$AAv?$AAe?$AAl?$AAF?$AAo?$AAr?$AAm?$AAa?$AAt?$AA?5?$AA?$FL?$AA0?$AAx?$AA?$CF?$AAx?$AA?0?$AA?5?$AA0?$AAx?$AA?$CF?$AAx@ 0000adb8     bootpart:bootpart.obj
 0001:00009e08       ??_C@_1GM@JMAHBAAI@?$AAO?$AAp?$AAe?$AAn?$AAP?$AAa?$AAr?$AAt?$AAi?$AAt?$AAi?$AAo?$AAn?$AA?3?$AA?5?$AAP?$AAa?$AAr?$AAt?$AAi?$AAt?$AAi?$AAo?$AAn?$AA?5?$AAE?$AAx?$AAi?$AAs?$AAt?$AAs?$AA?$DN@ 0000ae08     bootpart:bootpart.obj
 0001:00009e78       ??_C@_1GC@PMFDHBOJ@?$AAO?$AAp?$AAe?$AAn?$AAP?$AAa?$AAr?$AAt?$AAi?$AAt?$AAi?$AAo?$AAn?$AA?3?$AA?5?$AAI?$AAn?$AAv?$AAa?$AAl?$AAi?$AAd?$AA?5?$AAM?$AAB?$AAR?$AA?4?$AA?5?$AA?5?$AAF?$AAo?$AAr@ 0000ae78     bootpart:bootpart.obj
 0001:00009ee0       ??_C@_1II@LNLPMCGG@?$AAO?$AAp?$AAe?$AAn?$AAP?$AAa?$AAr?$AAt?$AAi?$AAt?$AAi?$AAo?$AAn?$AA?3?$AA?5?$AAI?$AAn?$AAv?$AAa?$AAl?$AAi?$AAd?$AA?5?$AAM?$AAB?$AAR?$AA?4?$AA?5?$AA?5?$AAC?$AAa?$AAn@ 0000aee0     bootpart:bootpart.obj
 0001:00009f68       ??_C@_1HM@KINLPMGE@?$AAE?$AAr?$AAa?$AAs?$AAe?$AAB?$AAl?$AAo?$AAc?$AAk?$AAs?$AA?3?$AA?5?$AAb?$AAl?$AAo?$AAc?$AAk?$AA?5?$AAn?$AAu?$AAm?$AAb?$AAe?$AAr?$AA?5?$AAo?$AAu?$AAt?$AAs?$AAi?$AAd@ 0000af68     bootpart:util.obj
 0001:00009fe4       ??_C@_1BA@PKDAMGPE@?$AAD?$AAo?$AAn?$AAe?$AA?4?$AA?$AN?$AA?6?$AA?$AA@ 0000afe4     bootpart:util.obj
 0001:00009ff8       ??_C@_1HA@OGIJBPKL@?$AA?$AN?$AA?6?$AAE?$AAr?$AAa?$AAs?$AAe?$AAB?$AAl?$AAo?$AAc?$AAk?$AAs?$AA?3?$AA?5?$AAf?$AAo?$AAu?$AAn?$AAd?$AA?5?$AAa?$AA?5?$AAb?$AAa?$AAd?$AA?5?$AAb?$AAl?$AAo?$AAc?$AAk@ 0000aff8     bootpart:util.obj
 0001:0000a068       ??_C@_1JA@LOCHPPJA@?$AAE?$AAr?$AAa?$AAs?$AAe?$AAB?$AAl?$AAo?$AAc?$AAk?$AAs?$AA?3?$AA?5?$AAe?$AAr?$AAa?$AAs?$AAe?$AA?5?$AAd?$AAi?$AAd?$AAn?$AA?8?$AAt?$AA?5?$AAs?$AAe?$AAt?$AA?5?$AAa?$AAl@ 0000b068     bootpart:util.obj
 0001:0000a0f8       ??_C@_1IO@MGCFOPFC@?$AAE?$AAr?$AAa?$AAs?$AAe?$AAB?$AAl?$AAo?$AAc?$AAk?$AAs?$AA?3?$AA?5?$AAe?$AAr?$AAa?$AAs?$AAe?$AA?5?$AAd?$AAi?$AAd?$AAn?$AA?8?$AAt?$AA?5?$AAs?$AAe?$AAt?$AA?5?$AAa?$AAl@ 0000b0f8     bootpart:util.obj
 0001:0000a188       ??_C@_1II@KKMMMEDM@?$AAE?$AAr?$AAa?$AAs?$AAe?$AAB?$AAl?$AAo?$AAc?$AAk?$AAs?$AA?3?$AA?5?$AAw?$AAr?$AAi?$AAt?$AAe?$AA?5?$AAt?$AAe?$AAs?$AAt?$AA?5?$AAl?$AAo?$AAw?$AA?5?$AAd?$AAa?$AAt?$AAa@ 0000b188     bootpart:util.obj
 0001:0000a210       ??_C@_1HI@OHLABFIC@?$AAE?$AAr?$AAa?$AAs?$AAe?$AAB?$AAl?$AAo?$AAc?$AAk?$AAs?$AA?3?$AA?5?$AAu?$AAn?$AAa?$AAb?$AAl?$AAe?$AA?5?$AAt?$AAo?$AA?5?$AAe?$AAr?$AAa?$AAs?$AAe?$AA?5?$AAb?$AAl?$AAo@ 0000b210     bootpart:util.obj
 0001:0000a288       ??_C@_1GC@BEAEBCPI@?$AAE?$AAr?$AAa?$AAs?$AAe?$AAB?$AAl?$AAo?$AAc?$AAk?$AAs?$AA?3?$AA?5?$AAp?$AAr?$AAe?$AAs?$AAe?$AAr?$AAv?$AAi?$AAn?$AAg?$AA?5?$AAr?$AAe?$AAs?$AAe?$AAr?$AAv?$AAe?$AAd@ 0000b288     bootpart:util.obj
 0001:0000a2f0       ??_C@_1GM@FOPEGPNN@?$AAE?$AAr?$AAa?$AAs?$AAe?$AAB?$AAl?$AAo?$AAc?$AAk?$AAs?$AA?3?$AA?5?$AAf?$AAo?$AAu?$AAn?$AAd?$AA?5?$AAa?$AA?5?$AAb?$AAa?$AAd?$AA?5?$AAb?$AAl?$AAo?$AAc?$AAk?$AA?5?$AA?$CI@ 0000b2f0     bootpart:util.obj
 0001:0000a360       ??_C@_1GI@PCPOKHOO@?$AAE?$AAr?$AAa?$AAs?$AAi?$AAn?$AAg?$AA?5?$AAf?$AAl?$AAa?$AAs?$AAh?$AA?5?$AAb?$AAl?$AAo?$AAc?$AAk?$AA?$CI?$AAs?$AA?$CJ?$AA?5?$AA?$FL?$AA0?$AAx?$AA?$CF?$AAx?$AA?0?$AA?5?$AA0?$AAx@ 0000b360     bootpart:util.obj
 0001:0000a458       ??_C@_0CC@OIEKENJI@EbootSimpleTFTP?5not?5initialized?$AN@ 0000b458     eboot:ebsimp.obj
 0001:0000a510       ??_C@_0CO@ILGKAEEB@An?5OACK?5packet?5is?5the?5proper?5ack@ 0000b510     eboot:tftpd.obj
 0001:0000a540       ??_C@_07JPIGAOKK@blksize?$AA@ 0000b540     eboot:tftpd.obj
 0001:0000a548       ??_C@_0FD@OCECBKGJ@There?5must?5be?5an?5even?5number?0?5an@ 0000b548     eboot:tftpd.obj
 0001:0000a59c       ??_C@_0DB@LKOCKFPL@Illegal?5TFTP?5Operation?5?9?5Read?1Wr@ 0000b59c     eboot:tftpd.obj
 0001:0000a5d0       ??_C@_0CM@OBFBLHOG@There?5were?5no?5options?5detected?5i@ 0000b5d0     eboot:tftpd.obj
 0001:0000a600       ??_C@_0FJ@NDFKPFHG@Illegal?5TFTP?5Option?5?9?5An?5option?5@ 0000b600     eboot:tftpd.obj
 0001:0000a65c       ??_C@_05DMMIBICK@?5?$CFd?4?6?$AA@ 0000b65c     eboot:tftpd.obj
 0001:0000a664       ??_C@_0DO@FNNPCMEI@with?5a?5value?5that?5is?5out?5of?5rang@ 0000b664     eboot:tftpd.obj
 0001:0000a6a4       ??_C@_0DL@CJPGPHL@with?5a?5value?5that?5is?5in?5range?4?6B@ 0000b6a4     eboot:tftpd.obj
 0001:0000a6e0       ??_C@_0BK@PFHMOFCD@The?5option?8s?5value?5is?5?$CFs?6?$AA@ 0000b6e0     eboot:tftpd.obj
 0001:0000a6fc       ??_C@_0CH@HOPLKCLP@This?5TFTP?5packet?5contains?5?$CFd?5opt@ 0000b6fc     eboot:tftpd.obj
 0001:0000a728       ??_C@_0EC@OALIGNGC@We?5currently?5only?5look?5at?5the?5fi@ 0000b728     eboot:tftpd.obj
 0001:0000a76c       ??_C@_0CB@FLKGPIDN@The?5packet?8s?5option?5name?5is?5?$CFs?4?6@ 0000b76c     eboot:tftpd.obj
 0001:0000a790       ??_C@_0CG@JBBJIFDI@You?5must?5access?5files?5in?5binary?5@ 0000b790     eboot:tftpd.obj
 0001:0000a7b8       ??_C@_05IIBPGMLM@octet?$AA@ 0000b7b8     eboot:tftpd.obj
 0001:0000a7c0       ??_C@_0BG@GIKNIKEH@Locked?5Down?5Link?5?$CFd?$AN?6?$AA@ 0000b7c0     eboot:tftpd.obj
 0001:0000a7d8       ??_C@_0BF@JDGNCBEC@Src?5IP?5?$CFs?5Port?5?$CFH?5?5?5?$AA@ 0000b7d8     eboot:tftpd.obj
 0001:0000a7f0       ??_C@_0BF@MOPBEBEN@Dest?5IP?5?$CFs?5Port?5?$CFH?$AN?6?$AA@ 0000b7f0     eboot:tftpd.obj
 0001:0000a808       ??_C@_0CL@HCAEOMAE@Default?5TFTP?5block?5size?5set?5to?3?5@ 0000b808     eboot:tftpd.obj
 0001:0000a834       ??_C@_0DB@OCKCBBAL@No?5Server?5Process?5Associated?5Wit@ 0000b834     eboot:tftpd.obj
 0001:0000a868       ??_C@_0CM@GLFMKKGH@TFTP?5packet?5could?5have?5?$CFd?5name?1v@ 0000b868     eboot:tftpd.obj
 0001:0000a894       ??_C@_01EEMJAFIK@?6?$AA@   0000b894     eboot:tftpd.obj
 0001:0000a898       ??_C@_06CBLHAGFD@?$FLNULL?$FN?$AA@ 0000b898     eboot:tftpd.obj
 0001:0000a8a0       ??_C@_02HAOIJKIC@?$CFc?$AA@ 0000b8a0     eboot:tftpd.obj
 0001:0000a8a4       ??_C@_0CC@GNCPKJCA@Packet?5has?5the?5following?5data?3?6?5@ 0000b8a4     eboot:tftpd.obj
 0001:0000a958       ??_C@_0DJ@MEFFBBAC@TFTP?3?5Desktop?5losing?5ACK?0?5block?5@ 0000b958     eboot:tftp.obj
 0001:0000a994       ??_C@_0DC@MHCCPLAO@TFtpStateMachine?3?3TFTP_STATE_CLO@ 0000b994     eboot:tftp.obj
 0001:0000a9c8       ??_C@_0CH@DEDJGHKF@TFTP?5Error?5Received?5From?5Host?5?$CFX@ 0000b9c8     eboot:tftp.obj
 0001:0000a9f0       ??_C@_0CG@EEFEGPIL@TftpReceiver?0?5port?3?50x?$CFX?0?5wkp?3?50@ 0000b9f0     eboot:tftp.obj
 0001:0000aa18       ??_C@_0EA@EBMLKPMN@TFTP?5link?$FL?$CFu?$FN?3?5State?3?$CFu?0?5DestAdd@ 0000ba18     eboot:tftp.obj
 0001:0000aae8       ??_C@_0IL@GCFKAKKH@Duplicate?5IP?5Address?5Detected?3?6?9@ 0000bae8     eboot:udp.obj
 0001:0000ab74       ??_C@_0CI@JEPIEHIP@?$CBCheckUDP?3?5UDP?5header?5checksum?5f@ 0000bb74     eboot:udp.obj
 0001:0000ab9c       ??_C@_0CH@KMPJEONK@?$CBCheckUDP?3?5IP?5header?5checksum?5fa@ 0000bb9c     eboot:udp.obj
 0001:0000abc4       ??_C@_0CD@OCEEFKNK@?$CBCheckUDP?3?5Not?5UDP?5?$CIproto?5?$DN?50x?$CFX@ 0000bbc4     eboot:udp.obj
 0001:0000ac78       ??_C@_0O@DFHLFDCO@netmask?3?5?$CFs?$AN?6?$AA@ 0000bc78     eboot:dhcp.obj
 0001:0000ac88       ??_C@_0DK@EEIOPNMG@ProcessDHCP?$CI?$CJ?3?3DHCP_INIT?3?3SendDH@ 0000bc88     eboot:dhcp.obj
 0001:0000acc4       ??_C@_0BL@LBDFFECM@ProcessDHCP?$CI?$CJ?3?3DHCP_INIT?$AN?6?$AA@ 0000bcc4     eboot:dhcp.obj
 0001:0000ace0       ??_C@_0DC@EKKEKBDC@ProcessDHCP?$CI?$CJ?3?3DHCP_SELECTING?3?3S@ 0000bce0     eboot:dhcp.obj
 0001:0000ad18       ??_C@_0FK@JNLIFC@ProcessDHCP?$CI?$CJ?3?3DHCP_SELECTING?3?3D@ 0000bd18     eboot:dhcp.obj
 0001:0000ad78       ??_C@_0FI@KEBKGIEO@ProcessDHCP?$CI?$CJ?3?3DHCP_SELECTING?3?3D@ 0000bd78     eboot:dhcp.obj
 0001:0000add0       ??_C@_0DC@KHEOJACB@?$AN?6ProcessDHCP?$CI?$CJ?3?3DHCP?5IP?5Address@ 0000bdd0     eboot:dhcp.obj
 0001:0000ae04       ??_C@_0BJ@MEOPKMJJ@Lease?5time?3?5?$CFd?5seconds?$AN?6?$AA@ 0000be04     eboot:dhcp.obj
 0001:0000ae20       ??_C@_0FI@EHEELHEE@ProcessDHCP?$CI?$CJ?3?3DHCP_REQUESTING?3?3@ 0000be20     eboot:dhcp.obj
 0001:0000ae78       ??_C@_0DE@BHBNDGEJ@ProcessDHCP?$CI?$CJ?5Error?5?9?5No?5DHCP?5Me@ 0000be78     eboot:dhcp.obj
 0001:0000aeac       ??_C@_0DO@EHKMGFMI@InitDHCP?$CI?$CJ?5Error?5?9?5First?5DHCP?5Op@ 0000beac     eboot:dhcp.obj
 0001:0000aeec       ??_C@_0CF@NLOHFKBD@InitDHCP?$CI?$CJ?3?3?5Calling?5ProcessDHCP@ 0000beec     eboot:dhcp.obj
 0001:0000af14       ??_C@_0DB@JKAMMNCP@EbootDHCPRetransmit?$CI?$CJ?3?3Error?5On?5@ 0000bf14     eboot:dhcp.obj
 0001:0000af48       ??_C@_0CN@GEBEIIOD@SendDHCP?$CI?$CJ?3?3Error?5On?5DHCPRetrans@ 0000bf48     eboot:dhcp.obj
 0001:0000af78       ??_C@_0CG@GEIANEBC@SendDHCP?$CI?$CJ?3?3Error?5On?5SendUDP?$CI?$CJ?5C@ 0000bf78     eboot:dhcp.obj
 0001:0000b030       ??_C@_0BD@GIINPDL@Error?5in?5SendUDP?$AN?6?$AA@ 0000c030     eboot:edbg.obj
 0001:0000b044       ??_C@_0CC@IFLECHKJ@Got?5EDBG_CMD_CONFIG?0?5flags?30x?$CFX?$AN@ 0000c044     eboot:edbg.obj
 0001:0000b068       ??_C@_0BH@EBGODALL@Got?5EDBG_CMD_JUMPIMG?$AN?6?$AA@ 0000c068     eboot:edbg.obj
 0001:0000b080       ??_C@_0EE@BGOJJHDN@TFTP?5download?5started?5previously@ 0000c080     eboot:edbg.obj
 0001:0000b158       asciiFont                  0000c158     bsp_display:bsp_logo.obj
 0001:0000b768       ??_C@_1DA@HJDMHHHF@?$AAL?$AAC?$AAD?$AA?5?$AAs?$AAe?$AAn?$AAd?$AA?5?$AAI?$AAn?$AAi?$AAt?$AAi?$AAa?$AAl?$AA?5?$AAC?$AAo?$AAd?$AAe?$AA?$AN?$AA?6?$AA?$AA@ 0000c768     bsp_display:bsp_logo.obj
 0001:0000b798       ??_C@_1BK@ENFEEAKA@?$AAl?$AAc?$AAd?$AA_?$AAc?$AAo?$AAn?$AAf?$AAi?$AAg?$AA?$AN?$AA?6?$AA?$AA@ 0000c798     bsp_display:bsp_logo.obj
 0001:0000b858       I2CDefaultI2CTimeout       0000c858     bspcfg:bspcfg.obj
 0001:0000b860       g_BSP_icL1Level            0000c860     bspcfg:bspcfg.obj
 0001:0000b9e0       ??_C@_1HI@JDGLDLD@?$AAN?$AAA?$AAN?$AAD?$AA?5?$AAm?$AAa?$AAn?$AAu?$AAf?$AAa?$AAc?$AAt?$AAu?$AAr?$AAe?$AAr?$AA?5?$AA?$CF?$AAx?$AA?5?$AAd?$AAe?$AAv?$AAi?$AAc?$AAe?$AA?5?$AA?$CF?$AAx?$AA?5?$AA?3@ 0000c9e0     bspcfg:bspcfg.obj
 0001:0000ba58       ??_C@_1FM@KNJBBMEO@?$AAN?$AAA?$AAN?$AAD?$AA?5?$AAm?$AAa?$AAn?$AAu?$AAf?$AAa?$AAc?$AAt?$AAu?$AAr?$AAe?$AAr?$AA?5?$AAI?$AAD?$AA?3?$AA?5?$AA0?$AAx?$AA?$CF?$AAx?$AA?5?$AA?5?$AAd?$AAe?$AAv?$AAi@ 0000ca58     bspcfg:bspcfg.obj
 0001:0000bbd8       ??_C@_1DM@JHFBIJGB@?$AAe?$AAr?$AAr?$AAo?$AAr?$AA?5?$AAL?$AAC?$AAD?$AA_?$AAV?$AAB?$AAP?$AA?5?$AAo?$AAu?$AAt?$AA?5?$AAo?$AAf?$AA?5?$AAr?$AAa?$AAn?$AAg?$AAe?$AA?5?$AA?$AN?$AA?6?$AA?$AA@ 0000cbd8     bsp_display_init:lcd_qvga.obj
 0001:0000bc14       ??_C@_1DM@MMOBHECK@?$AAe?$AAr?$AAr?$AAo?$AAr?$AA?5?$AAL?$AAC?$AAD?$AA_?$AAV?$AAF?$AAP?$AA?5?$AAo?$AAu?$AAt?$AA?5?$AAo?$AAf?$AA?5?$AAr?$AAa?$AAn?$AAg?$AAe?$AA?5?$AA?$AN?$AA?6?$AA?$AA@ 0000cc14     bsp_display_init:lcd_qvga.obj
 0001:0000bc50       ??_C@_1DM@PDNLKEIH@?$AAe?$AAr?$AAr?$AAo?$AAr?$AA?5?$AAL?$AAC?$AAD?$AA_?$AAV?$AAS?$AAW?$AA?5?$AAo?$AAu?$AAt?$AA?5?$AAo?$AAf?$AA?5?$AAr?$AAa?$AAn?$AAg?$AAe?$AA?5?$AA?$AN?$AA?6?$AA?$AA@ 0000cc50     bsp_display_init:lcd_qvga.obj
 0001:0000bc8c       ??_C@_1DM@EMLMGKHA@?$AAe?$AAr?$AAr?$AAo?$AAr?$AA?5?$AAL?$AAC?$AAD?$AA_?$AAH?$AAB?$AAP?$AA?5?$AAo?$AAu?$AAt?$AA?5?$AAo?$AAf?$AA?5?$AAr?$AAa?$AAn?$AAg?$AAe?$AA?5?$AA?$AN?$AA?6?$AA?$AA@ 0000cc8c     bsp_display_init:lcd_qvga.obj
 0001:0000bcc8       ??_C@_1DM@BHAMJHDL@?$AAe?$AAr?$AAr?$AAo?$AAr?$AA?5?$AAL?$AAC?$AAD?$AA_?$AAH?$AAF?$AAP?$AA?5?$AAo?$AAu?$AAt?$AA?5?$AAo?$AAf?$AA?5?$AAr?$AAa?$AAn?$AAg?$AAe?$AA?5?$AA?$AN?$AA?6?$AA?$AA@ 0000ccc8     bsp_display_init:lcd_qvga.obj
 0001:0000bd04       ??_C@_1DM@CIDGEHJG@?$AAe?$AAr?$AAr?$AAo?$AAr?$AA?5?$AAL?$AAC?$AAD?$AA_?$AAH?$AAS?$AAW?$AA?5?$AAo?$AAu?$AAt?$AA?5?$AAo?$AAf?$AA?5?$AAr?$AAa?$AAn?$AAg?$AAe?$AA?5?$AA?$AN?$AA?6?$AA?$AA@ 0000cd04     bsp_display_init:lcd_qvga.obj
 0001:0000bd40       ??_C@_1EG@NOJLJGEG@?$AA?$CK?$AA?$CK?$AA?$CK?$AA?5?$AAL?$AAc?$AAd?$AAP?$AAd?$AAd?$AA_?$AAS?$AAe?$AAt?$AAP?$AAo?$AAw?$AAe?$AAr?$AAL?$AAe?$AAv?$AAe?$AAl?$AA?$CI?$AA?$CF?$AAd?$AA?$CJ?$AA?5?$AA?$CK?$AA?$CK?$AA?$CK@ 0000cd40     bsp_display_init:lcd_qvga.obj
 0001:0000bd88       ??_C@_1EE@POJFJFPA@?$AA?6?$AA?$AN?$AA?$CK?$AA?$CK?$AA?$CK?$AA?5?$AAL?$AAc?$AAd?$AAP?$AAd?$AAd?$AA_?$AAL?$AAC?$AAD?$AA_?$AAI?$AAn?$AAi?$AAt?$AAi?$AAa?$AAl?$AAi?$AAz?$AAe?$AA?5?$AA?$CK?$AA?$CK?$AA?$CK?$AA?6@ 0000cd88     bsp_display_init:lcd_qvga.obj
 0001:0000be60       ??_C@_1BM@CAGMDMLN@?$AAL?$AAc?$AAd?$AAI?$AAn?$AAi?$AAt?$AAG?$AAp?$AAi?$AAo?$AA?6?$AA?$AN?$AA?$AA@ 0000ce60     bsp_display_init:lcd_support.obj
 0001:0000c150       ??_C@_08GGFKNFHG@?5?5?5?5?5?5?5?5?$AA@ 0000d150     common_ti_boot_fatfs:fileio.obj
 0001:0000c1f4       DigitTable                 0000d1f4     common_ti_ethdrv_rndis:rndis.obj
 0001:0000c478       ??_C@_1DM@FCMMONGE@?$AA?$CK?$AA?$CK?$AA?$CK?$AA?5?$AAU?$AAn?$AAk?$AAn?$AAo?$AAw?$AAn?$AA?5?$AAS?$AAT?$AAR?$AAI?$AAN?$AAG?$AA?5?$AAi?$AAn?$AAd?$AAe?$AAx?$AA?5?$AA?$CF?$AAd?$AA?$AN?$AA?6?$AA?$AA@ 0000d478     common_ti_ethdrv_rndis:rndis.obj
 0001:0000c4b8       ??_C@_1FE@MMFBADFF@?$AA?$CK?$AA?$CK?$AA?$CK?$AA?5?$AAU?$AAn?$AAk?$AAn?$AAo?$AAw?$AAn?$AA?5?$AAG?$AAE?$AAT?$AA_?$AAD?$AAE?$AAS?$AAC?$AAR?$AAI?$AAP?$AAT?$AAO?$AAR?$AA?5?$AAr?$AAe?$AAq?$AAu?$AAe@ 0000d4b8     common_ti_ethdrv_rndis:rndis.obj
 0001:0000c50c       ??_C@_1CK@OLHEFDLK@?$AAN?$AAo?$AA?5?$AAm?$AAe?$AAm?$AA?5?$AAf?$AAo?$AAr?$AA?5?$AAR?$AAX?$AA?5?$AAd?$AAa?$AAt?$AAa?$AA?$AN?$AA?6?$AA?$AA@ 0000d50c     common_ti_ethdrv_rndis:rndis.obj
 0001:0000c538       ??_C@_1DI@FELDACDH@?$AAN?$AAo?$AA?5?$AAm?$AAe?$AAm?$AA?5?$AAf?$AAo?$AAr?$AA?5?$AAR?$AAX?$AA?5?$AAD?$AAa?$AAt?$AAa?$AAW?$AAr?$AAa?$AAp?$AAp?$AAe?$AAr?$AA?$AN?$AA?6?$AA?$AA@ 0000d538     common_ti_ethdrv_rndis:rndis.obj
 0001:0000c570       ??_C@_1CK@OFGGHINF@?$AA?9?$AAH?$AAa?$AAn?$AAd?$AAl?$AAe?$AAS?$AAe?$AAt?$AAu?$AAp?$AAP?$AAa?$AAc?$AAk?$AAe?$AAt?$AA?$AN?$AA?6?$AA?$AA@ 0000d570     common_ti_ethdrv_rndis:rndis.obj
 0001:0000c59c       ??_C@_1DG@HDGBABFG@?$AA?$CK?$AA?$CK?$AA?$CK?$AA?5?$AAU?$AAn?$AAk?$AAn?$AAo?$AAw?$AAn?$AA?5?$AAr?$AAe?$AAq?$AAu?$AAe?$AAs?$AAt?$AA?5?$AA0?$AAx?$AA?$CF?$AAx?$AA?$AN?$AA?6?$AA?$AA@ 0000d59c     common_ti_ethdrv_rndis:rndis.obj
 0001:0000c5d8       ??_C@_1FI@GLILKAEG@?$AA?$CK?$AA?$CK?$AA?$CK?$AA?5?$AAU?$AAn?$AAH?$AAa?$AAn?$AAd?$AAl?$AAe?$AAd?$AA?5?$AAG?$AAE?$AAT?$AA_?$AAD?$AAE?$AAS?$AAC?$AAR?$AAI?$AAP?$AAT?$AAO?$AAR?$AA?5?$AAr?$AAe?$AAq@ 0000d5d8     common_ti_ethdrv_rndis:rndis.obj
 0001:0000c630       ??_C@_1CO@NANJHOKH@?$AA?$CK?$AA?$CK?$AA?$CK?$AAR?$AAe?$AAq?$AAu?$AAe?$AAs?$AAt?$AAT?$AAy?$AAp?$AAe?$AA?$DN?$AA?$DN?$AA0?$AAx?$AA0?$AA2?$AA?$AN?$AA?6?$AA?$AA@ 0000d630     common_ti_ethdrv_rndis:rndis.obj
 0001:0000c660       ??_C@_1CO@MDAODOFD@?$AA?$CK?$AA?$CK?$AA?$CK?$AAR?$AAe?$AAq?$AAu?$AAe?$AAs?$AAt?$AAT?$AAy?$AAp?$AAe?$AA?$DN?$AA?$DN?$AA0?$AAx?$AA8?$AA2?$AA?$AN?$AA?6?$AA?$AA@ 0000d660     common_ti_ethdrv_rndis:rndis.obj
 0001:0000c690       ??_C@_1EM@PLFMLLKO@?$AA?$CK?$AA?$CK?$AA?$CK?$AA?$CK?$AA?5?$AAU?$AAn?$AAh?$AAa?$AAn?$AAd?$AAl?$AAe?$AAd?$AA?5?$AAv?$AAe?$AAr?$AAn?$AAd?$AAo?$AAr?$AA?5?$AAc?$AAo?$AAm?$AAm?$AAa?$AAn?$AAd?$AA?5?$AA0@ 0000d690     common_ti_ethdrv_rndis:rndis.obj
 0001:0000c6dc       ??_C@_1CK@JFBBGODD@?$AA?$CL?$AAH?$AAa?$AAn?$AAd?$AAl?$AAe?$AAS?$AAe?$AAt?$AAu?$AAp?$AAP?$AAa?$AAc?$AAk?$AAe?$AAt?$AA?$AN?$AA?6?$AA?$AA@ 0000d6dc     common_ti_ethdrv_rndis:rndis.obj
 0001:0000c708       ??_C@_1O@KIJBGEAN@?$AAD?$AAo?$AAn?$AAe?$AA?$AN?$AA?6?$AA?$AA@ 0000d708     common_ti_ethdrv_rndis:rndis.obj
 0001:0000c718       ??_C@_1FG@LFHLPLMG@?$AAS?$AAe?$AAn?$AAd?$AAP?$AAa?$AAc?$AAk?$AAe?$AAt?$AA?5?$AAr?$AAe?$AAq?$AAu?$AAe?$AAs?$AAt?$AA?5?$AAc?$AAo?$AAm?$AAp?$AAl?$AAe?$AAt?$AAe?$AAd?$AA?$CB?$AA?5?$AA?$FL?$AA?$CF@ 0000d718     common_ti_ethdrv_rndis:rndis.obj
 0001:0000c770       ??_C@_1CC@IOLIBBDB@?$AA?9?$AAN?$AAo?$AAt?$AAi?$AAf?$AAy?$AAH?$AAa?$AAn?$AAd?$AAl?$AAe?$AAr?$AA?$AN?$AA?6?$AA?$AA@ 0000d770     common_ti_ethdrv_rndis:rndis.obj
 0001:0000c798       ??_C@_1FM@FDJOONCJ@?$AAG?$AAo?$AAt?$AA?5?$AAS?$AAE?$AAT?$AAU?$AAP?$AA?5?$AA?$DM?$AAN?$AAO?$AA?5?$AAD?$AAA?$AAT?$AAA?$AA?3?$AA?5?$AA?$CF?$AAx?$AA?5?$AA?$CF?$AAx?$AA?5?$AA?$CF?$AAx?$AA?5?$AA?$CF?$AAx?$AA?5@ 0000d798     common_ti_ethdrv_rndis:rndis.obj
 0001:0000c7f4       ??_C@_1DA@MJLPENBD@?$AAG?$AAo?$AAt?$AA?5?$AAS?$AAE?$AAT?$AAU?$AAP?$AA?5?$AAO?$AAU?$AAT?$AA?5?$AAp?$AAa?$AAc?$AAk?$AAe?$AAt?$AA?4?$AA?$AN?$AA?6?$AA?$AA@ 0000d7f4     common_ti_ethdrv_rndis:rndis.obj
 0001:0000c824       ??_C@_1CM@NHNGDKFM@?$AAG?$AAo?$AAt?$AA?5?$AAS?$AAE?$AAT?$AAU?$AAP?$AA?5?$AAI?$AAN?$AA?5?$AAp?$AAa?$AAc?$AAk?$AAe?$AAt?$AA?$AN?$AA?6?$AA?$AA@ 0000d824     common_ti_ethdrv_rndis:rndis.obj
 0001:0000c850       ??_C@_1DK@CJOHLCDF@?$AAE?$AAR?$AAR?$AAO?$AAR?$AA?5?$AAP?$AAA?$AAR?$AAS?$AAI?$AAN?$AAG?$AA?5?$AAS?$AAE?$AAT?$AAU?$AAP?$AA?5?$AAP?$AAA?$AAC?$AAK?$AAE?$AAT?$AA?$AN?$AA?6?$AA?$AA@ 0000d850     common_ti_ethdrv_rndis:rndis.obj
 0001:0000c88c       ??_C@_1CI@KCINNAAK@?$AAI?$AAN?$AAV?$AAA?$AAL?$AAI?$AAD?$AA?5?$AAT?$AAR?$AAA?$AAN?$AAS?$AAF?$AAE?$AAR?$AA?$CB?$AA?$AN?$AA?6?$AA?$AA@ 0000d88c     common_ti_ethdrv_rndis:rndis.obj
 0001:0000c8b8       ??_C@_1EG@NBFJCBDP@?$AAE?$AAP?$AA3?$AA?5?$AAI?$AAn?$AAt?$AAe?$AAr?$AAr?$AAu?$AAp?$AAt?$AA?5?$AAs?$AAu?$AAc?$AAc?$AAe?$AAs?$AAs?$AAf?$AAu?$AAl?$AAl?$AAy?$AA?5?$AAs?$AAe?$AAn?$AAt?$AA?$CB@ 0000d8b8     common_ti_ethdrv_rndis:rndis.obj
 0001:0000c900       ??_C@_1DO@PFNPIHHC@?$AAU?$AAn?$AAe?$AAx?$AAp?$AAe?$AAc?$AAt?$AAe?$AAd?$AA?5?$AAE?$AAP?$AA2?$AA?5?$AAt?$AAr?$AAa?$AAn?$AAs?$AAf?$AAe?$AAr?$AA?5?$AAs?$AAt?$AAa?$AAt?$AAe?$AA?$CB?$AA?$AA@ 0000d900     common_ti_ethdrv_rndis:rndis.obj
 0001:0000c940       ??_C@_1EG@NEPEKMDB@?$AAS?$AAe?$AAn?$AAd?$AAP?$AAa?$AAc?$AAk?$AAe?$AAt?$AA?5?$AAN?$AAU?$AAL?$AAL?$AA?5?$AAt?$AAe?$AAr?$AAm?$AAi?$AAn?$AAa?$AAt?$AAo?$AAr?$AA?5?$AAs?$AAe?$AAn?$AAt?$AA?$CB@ 0000d940     common_ti_ethdrv_rndis:rndis.obj
 0001:0000c988       ??_C@_1FI@KOMJGPLF@?$AAS?$AAe?$AAn?$AAd?$AAi?$AAn?$AAg?$AA?5?$AAN?$AAU?$AAL?$AAL?$AA?5?$AAt?$AAe?$AAr?$AAm?$AAi?$AAn?$AAa?$AAt?$AAo?$AAr?$AA?5?$AAf?$AAo?$AAr?$AA?5?$AAt?$AAh?$AAe?$AA?5@ 0000d988     common_ti_ethdrv_rndis:rndis.obj
 0001:0000c9e0       ??_C@_1EA@ODINLGJJ@?$AAR?$AAe?$AAc?$AAe?$AAi?$AAv?$AAe?$AAd?$AA?5?$AAa?$AA?5?$AAp?$AAa?$AAc?$AAk?$AAe?$AAt?$AA?5?$AA?$FL?$AA?$CF?$AAd?$AA?5?$AAb?$AAy?$AAt?$AAe?$AAs?$AA?$FN?$AA?$CB?$AA?$AN?$AA?6?$AA?$AA@ 0000d9e0     common_ti_ethdrv_rndis:rndis.obj
 0001:0000ca20       ??_C@_1CM@FNJKEBIB@?$AAR?$AAe?$AAc?$AAe?$AAi?$AAv?$AAe?$AAd?$AA?5?$AAa?$AA?5?$AAm?$AAe?$AAs?$AAs?$AAa?$AAg?$AAe?$AA?$CB?$AA?$AN?$AA?6?$AA?$AA@ 0000da20     common_ti_ethdrv_rndis:rndis.obj
 0001:0000ca4c       ??_C@_1CO@MJKBFNNP@?$AAD?$AAo?$AAn?$AAe?$AA?5?$AAr?$AAe?$AAc?$AAe?$AAi?$AAv?$AAi?$AAn?$AAg?$AA?5?$AAd?$AAa?$AAt?$AAa?$AA?4?$AA?$AN?$AA?6?$AA?$AA@ 0000da4c     common_ti_ethdrv_rndis:rndis.obj
 0001:0000ca80       ??_C@_1EC@LJDGALBJ@?$AAS?$AAe?$AAn?$AAd?$AAM?$AAe?$AAs?$AAs?$AAa?$AAg?$AAe?$AA?5?$AAr?$AAe?$AAq?$AAu?$AAe?$AAs?$AAt?$AA?5?$AAc?$AAo?$AAm?$AAp?$AAl?$AAe?$AAt?$AAe?$AAd?$AA?$CB?$AA?$AN?$AA?6@ 0000da80     common_ti_ethdrv_rndis:rndis.obj
 0001:0000cac4       ??_C@_1CK@FEGGBLDE@?$AAD?$AAo?$AAn?$AAe?$AA?5?$AAs?$AAe?$AAn?$AAd?$AAi?$AAn?$AAg?$AA?5?$AAd?$AAa?$AAt?$AAa?$AA?4?$AA?$AN?$AA?6?$AA?$AA@ 0000dac4     common_ti_ethdrv_rndis:rndis.obj
 0001:0000caf0       ??_C@_1CC@FFLFPHIF@?$AA?$CL?$AAN?$AAo?$AAt?$AAi?$AAf?$AAy?$AAH?$AAa?$AAn?$AAd?$AAl?$AAe?$AAr?$AA?$AN?$AA?6?$AA?$AA@ 0000daf0     common_ti_ethdrv_rndis:rndis.obj
 0001:0000cb18       ??_C@_1EI@ONHOMNHJ@?$AA?9?$AAR?$AAN?$AAD?$AAI?$AAS?$AA_?$AAU?$AAS?$AAB?$AAF?$AAN?$AA_?$AAP?$AAD?$AAD?$AA_?$AAS?$AAe?$AAn?$AAd?$AAR?$AAn?$AAd?$AAi?$AAs?$AAM?$AAe?$AAs?$AAs?$AAa?$AAg@ 0000db18     common_ti_ethdrv_rndis:rndis.obj
 0001:0000cb60       ??_C@_1HE@PDJOEOPK@?$AA?$CL?$AAR?$AAN?$AAD?$AAI?$AAS?$AA_?$AAU?$AAS?$AAB?$AAF?$AAN?$AA_?$AAP?$AAD?$AAD?$AA_?$AAS?$AAe?$AAn?$AAd?$AAR?$AAn?$AAd?$AAi?$AAs?$AAM?$AAe?$AAs?$AAs?$AAa?$AAg@ 0000db60     common_ti_ethdrv_rndis:rndis.obj
 0001:0000cbd8       ??_C@_1GK@OCDDHLML@?$AA?$CL?$AAR?$AAN?$AAD?$AAI?$AAS?$AA_?$AAU?$AAS?$AAB?$AAF?$AAN?$AA_?$AAP?$AAD?$AAD?$AA_?$AAS?$AAe?$AAn?$AAd?$AAR?$AAn?$AAd?$AAi?$AAs?$AAM?$AAe?$AAs?$AAs?$AAa?$AAg@ 0000dbd8     common_ti_ethdrv_rndis:rndis.obj
 0001:0000cc48       ??_C@_1EI@LPKHCIID@?$AA?$CL?$AAR?$AAN?$AAD?$AAI?$AAS?$AA_?$AAU?$AAS?$AAB?$AAF?$AAN?$AA_?$AAP?$AAD?$AAD?$AA_?$AAS?$AAe?$AAn?$AAd?$AAR?$AAn?$AAd?$AAi?$AAs?$AAM?$AAe?$AAs?$AAs?$AAa?$AAg@ 0000dc48     common_ti_ethdrv_rndis:rndis.obj
 0001:0000cc90       ??_C@_1EG@FPFPIBJG@?$AA?9?$AAR?$AAN?$AAD?$AAI?$AAS?$AA_?$AAU?$AAS?$AAB?$AAF?$AAN?$AA_?$AAP?$AAD?$AAD?$AA_?$AAS?$AAe?$AAn?$AAd?$AAR?$AAn?$AAd?$AAi?$AAs?$AAP?$AAa?$AAc?$AAk?$AAe?$AAt@ 0000dc90     common_ti_ethdrv_rndis:rndis.obj
 0001:0000ccd8       ??_C@_1FG@MIKLDILD@?$AA?$CK?$AA?$CK?$AA?$CK?$AA?$CK?$AAM?$AAu?$AAl?$AAt?$AAi?$AAp?$AAl?$AAe?$AA?5?$AAp?$AAe?$AAn?$AAd?$AAi?$AAn?$AAg?$AA?5?$AAs?$AAe?$AAn?$AAd?$AA?5?$AAr?$AAn?$AAd?$AAi?$AAs?$AA?5@ 0000dcd8     common_ti_ethdrv_rndis:rndis.obj
 0001:0000cd30       ??_C@_1EI@PJCOBAOE@?$AAG?$AAo?$AAt?$AA?5?$AAS?$AAe?$AAn?$AAd?$AAP?$AAa?$AAc?$AAk?$AAe?$AAt?$AA?5?$AAR?$AAe?$AAq?$AAu?$AAe?$AAs?$AAt?$AA?5?$AA?$FL?$AA?$CF?$AAd?$AA?5?$AAb?$AAy?$AAt?$AAe?$AAs@ 0000dd30     common_ti_ethdrv_rndis:rndis.obj
 0001:0000cd78       ??_C@_1EG@FDHKBGKN@?$AA?$CL?$AAR?$AAN?$AAD?$AAI?$AAS?$AA_?$AAU?$AAS?$AAB?$AAF?$AAN?$AA_?$AAP?$AAD?$AAD?$AA_?$AAS?$AAe?$AAn?$AAd?$AAR?$AAn?$AAd?$AAi?$AAs?$AAP?$AAa?$AAc?$AAk?$AAe?$AAt@ 0000dd78     common_ti_ethdrv_rndis:rndis.obj
 0001:0000cdc0       ??_C@_1CO@MBMDAIGD@?$AA?9?$AAR?$AAN?$AAD?$AAI?$AAS?$AA_?$AAU?$AAS?$AAB?$AAF?$AAN?$AA_?$AAP?$AAD?$AAD?$AA_?$AAS?$AAe?$AAt?$AA?$AN?$AA?6?$AA?$AA@ 0000ddc0     common_ti_ethdrv_rndis:rndis.obj
 0001:0000cdf0       ??_C@_1DI@LPFOEPEC@?$AAP?$AAD?$AAD?$AA_?$AAS?$AAe?$AAt?$AA?3?$AAR?$AAE?$AAQ?$AA_?$AAI?$AAD?$AA_?$AAH?$AAA?$AAR?$AAD?$AA_?$AAR?$AAE?$AAS?$AAE?$AAT?$AA?$AN?$AA?6?$AA?$AA@ 0000ddf0     common_ti_ethdrv_rndis:rndis.obj
 0001:0000ce28       ??_C@_1DI@MFNCMIPE@?$AAP?$AAD?$AAD?$AA_?$AAS?$AAe?$AAt?$AA?3?$AAR?$AAE?$AAQ?$AA_?$AAI?$AAD?$AA_?$AAS?$AAO?$AAF?$AAT?$AA_?$AAR?$AAE?$AAS?$AAE?$AAT?$AA?$AN?$AA?6?$AA?$AA@ 0000de28     common_ti_ethdrv_rndis:rndis.obj
 0001:0000ce60       ??_C@_1DI@KFPGHMKG@?$AAP?$AAD?$AAD?$AA_?$AAS?$AAe?$AAt?$AA?3?$AAR?$AAE?$AAQ?$AA_?$AAI?$AAD?$AA_?$AAE?$AAN?$AAA?$AAB?$AAL?$AAE?$AA_?$AAI?$AAN?$AAT?$AA?$AN?$AA?6?$AA?$AA@ 0000de60     common_ti_ethdrv_rndis:rndis.obj
 0001:0000ce98       ??_C@_1DK@PGGKHLLK@?$AAP?$AAD?$AAD?$AA_?$AAS?$AAe?$AAt?$AA?3?$AAR?$AAE?$AAQ?$AA_?$AAI?$AAD?$AA_?$AAD?$AAI?$AAS?$AAA?$AAB?$AAL?$AAE?$AA_?$AAI?$AAN?$AAT?$AA?$AN?$AA?6?$AA?$AA@ 0000de98     common_ti_ethdrv_rndis:rndis.obj
 0001:0000ced4       ??_C@_1DO@PIKCPFME@?$AAP?$AAD?$AAD?$AA_?$AAS?$AAe?$AAt?$AA?3?$AAU?$AAn?$AAk?$AAn?$AAo?$AAw?$AAn?$AA?5?$AAr?$AAe?$AAq?$AAu?$AAe?$AAs?$AAt?$AA?3?$AA0?$AAx?$AA?$CF?$AAx?$AA?$AN?$AA?6?$AA?$AA@ 0000ded4     common_ti_ethdrv_rndis:rndis.obj
 0001:0000cf14       ??_C@_1CO@BKAHFHEI@?$AA?$CL?$AAR?$AAN?$AAD?$AAI?$AAS?$AA_?$AAU?$AAS?$AAB?$AAF?$AAN?$AA_?$AAP?$AAD?$AAD?$AA_?$AAS?$AAe?$AAt?$AA?$AN?$AA?6?$AA?$AA@ 0000df14     common_ti_ethdrv_rndis:rndis.obj
 0001:0000cf44       ??_C@_1CO@MONNNOOA@?$AA?9?$AAR?$AAN?$AAD?$AAI?$AAS?$AA_?$AAU?$AAS?$AAB?$AAF?$AAN?$AA_?$AAP?$AAD?$AAD?$AA_?$AAG?$AAe?$AAt?$AA?$AN?$AA?6?$AA?$AA@ 0000df44     common_ti_ethdrv_rndis:rndis.obj
 0001:0000cf78       ??_C@_1EC@FCCAEHJA@?$AA?9?$AAP?$AAD?$AAD?$AA_?$AAG?$AAe?$AAt?$AA?3?$AA?5?$AAu?$AAn?$AAk?$AAn?$AAo?$AAw?$AAn?$AA?5?$AAr?$AAe?$AAq?$AAu?$AAe?$AAs?$AAt?$AA?5?$AA0?$AAx?$AA?$CF?$AAx?$AA?$AN?$AA?6@ 0000df78     common_ti_ethdrv_rndis:rndis.obj
 0001:0000cfbc       ??_C@_1CO@BFBJIBML@?$AA?$CL?$AAR?$AAN?$AAD?$AAI?$AAS?$AA_?$AAU?$AAS?$AAB?$AAF?$AAN?$AA_?$AAP?$AAD?$AAD?$AA_?$AAG?$AAe?$AAt?$AA?$AN?$AA?6?$AA?$AA@ 0000dfbc     common_ti_ethdrv_rndis:rndis.obj
 0001:0000cff0       ??_C@_1FO@HIPGBBGN@?$AA?9?$AAR?$AAN?$AAD?$AAI?$AAS?$AA_?$AAU?$AAS?$AAB?$AAF?$AAN?$AA_?$AAP?$AAD?$AAD?$AA_?$AAI?$AAn?$AAd?$AAi?$AAc?$AAa?$AAt?$AAe?$AAR?$AAn?$AAd?$AAi?$AAs?$AAP?$AAa@ 0000dff0     common_ti_ethdrv_rndis:rndis.obj
 0001:0000d050       ??_C@_1FO@PLBKEBPA@?$AA?$CL?$AAR?$AAN?$AAD?$AAI?$AAS?$AA_?$AAU?$AAS?$AAB?$AAF?$AAN?$AA_?$AAP?$AAD?$AAD?$AA_?$AAI?$AAn?$AAd?$AAi?$AAc?$AAa?$AAt?$AAe?$AAR?$AAn?$AAd?$AAi?$AAs?$AAP?$AAa@ 0000e050     common_ti_ethdrv_rndis:rndis.obj
 0001:0000d0b0       ??_C@_1DG@LOIHLLKG@?$AAR?$AAN?$AAD?$AAI?$AAS?$AA?5?$AAS?$AAe?$AAr?$AAi?$AAa?$AAl?$AA?5?$AAN?$AAu?$AAm?$AAb?$AAe?$AAr?$AA?$DN?$AA?$FL?$AA?$CF?$AAs?$AA?$FN?$AA?$AN?$AA?6?$AA?$AA@ 0000e0b0     common_ti_ethdrv_rndis:rndis.obj
 0001:0000d0e8       ??_C@_1CO@MPAJKINN@?$AA?9?$AAR?$AAN?$AAD?$AAI?$AAS?$AA_?$AAU?$AAS?$AAB?$AAF?$AAN?$AA_?$AAP?$AAD?$AAD?$AAI?$AAn?$AAi?$AAt?$AA?$AN?$AA?6?$AA?$AA@ 0000e0e8     common_ti_ethdrv_rndis:rndis.obj
 0001:0000d118       ??_C@_1GC@COEDNCDC@?$AA?5?$AAR?$AAN?$AAD?$AAI?$AAS?$AA_?$AAU?$AAS?$AAB?$AAF?$AAN?$AA_?$AAP?$AAD?$AAD?$AAI?$AAn?$AAi?$AAt?$AA?3?$AA?5?$AAi?$AAn?$AAi?$AAt?$AAi?$AAa?$AAl?$AAi?$AAz?$AAa@ 0000e118     common_ti_ethdrv_rndis:rndis.obj
 0001:0000d17c       ??_C@_1CI@OLENNHLD@?$AAU?$AAf?$AAn?$AAP?$AAd?$AAd?$AA_?$AAI?$AAn?$AAi?$AAt?$AA?5?$AAf?$AAa?$AAi?$AAl?$AAe?$AAd?$AA?$CB?$AA?$AA@ 0000e17c     common_ti_ethdrv_rndis:rndis.obj
 0001:0000d1a4       ??_C@_1CO@BEMNPHPG@?$AA?$CL?$AAR?$AAN?$AAD?$AAI?$AAS?$AA_?$AAU?$AAS?$AAB?$AAF?$AAN?$AA_?$AAP?$AAD?$AAD?$AAI?$AAn?$AAi?$AAt?$AA?$AN?$AA?6?$AA?$AA@ 0000e1a4     common_ti_ethdrv_rndis:rndis.obj
 0001:0000d268       ??_C@_1EA@IINJFEEO@?$AA?9?$AAI?$AAn?$AAi?$AAt?$AAi?$AAa?$AAl?$AAi?$AAz?$AAe?$AAH?$AAa?$AAr?$AAd?$AAw?$AAa?$AAr?$AAe?$AA?5?$AA?9?$AA?5?$AAr?$AAc?$AA?5?$AA?$DN?$AA?5?$AA?$CF?$AAd?$AA?$AN?$AA?6?$AA?$AA@ 0000e268     bsp_boot_ethdrv_usbfn:trans.obj
 0001:0000d2a8       ??_C@_1CM@EAMJHAFB@?$AA?$CL?$AAI?$AAn?$AAi?$AAt?$AAi?$AAa?$AAl?$AAi?$AAz?$AAe?$AAH?$AAa?$AAr?$AAd?$AAw?$AAa?$AAr?$AAe?$AA?$AN?$AA?6?$AA?$AA@ 0000e2a8     bsp_boot_ethdrv_usbfn:trans.obj
 0001:0000d2d4       ??_C@_1CG@CHELIBAH@?$AA?9?$AAC?$AAo?$AAn?$AAn?$AAe?$AAc?$AAt?$AAH?$AAa?$AAr?$AAd?$AAw?$AAa?$AAr?$AAe?$AA?$AN?$AA?6?$AA?$AA@ 0000e2d4     bsp_boot_ethdrv_usbfn:trans.obj
 0001:0000d2fc       ??_C@_1CG@LMJLIBMJ@?$AA?$CL?$AAC?$AAo?$AAn?$AAn?$AAe?$AAc?$AAt?$AAH?$AAa?$AAr?$AAd?$AAw?$AAa?$AAr?$AAe?$AA?$AN?$AA?6?$AA?$AA@ 0000e2fc     bsp_boot_ethdrv_usbfn:trans.obj
 0001:0000d324       ??_C@_1CM@GNIMNOJD@?$AA?9?$AAD?$AAi?$AAs?$AAc?$AAo?$AAn?$AAn?$AAe?$AAc?$AAt?$AAH?$AAa?$AAr?$AAd?$AAw?$AAa?$AAr?$AAe?$AA?$AN?$AA?6?$AA?$AA@ 0000e324     bsp_boot_ethdrv_usbfn:trans.obj
 0001:0000d350       ??_C@_1CM@JBHMEPNP@?$AA?$CL?$AAD?$AAi?$AAs?$AAc?$AAo?$AAn?$AAn?$AAe?$AAc?$AAt?$AAH?$AAa?$AAr?$AAd?$AAw?$AAa?$AAr?$AAe?$AA?$AN?$AA?6?$AA?$AA@ 0000e350     bsp_boot_ethdrv_usbfn:trans.obj
 0001:0000d37c       ??_C@_1CG@LPMIPPDJ@?$AA?9?$AAE?$AAn?$AAa?$AAb?$AAl?$AAe?$AAU?$AAS?$AAB?$AAC?$AAl?$AAo?$AAc?$AAk?$AAs?$AA?$AN?$AA?6?$AA?$AA@ 0000e37c     bsp_boot_ethdrv_usbfn:trans.obj
 0001:0000d3a4       ??_C@_1CG@CEBIPPPH@?$AA?$CL?$AAE?$AAn?$AAa?$AAb?$AAl?$AAe?$AAU?$AAS?$AAB?$AAC?$AAl?$AAo?$AAc?$AAk?$AAs?$AA?$AN?$AA?6?$AA?$AA@ 0000e3a4     bsp_boot_ethdrv_usbfn:trans.obj
 0001:0000d460       ??_C@_1CK@CPIFLPMI@?$AAu?$AAn?$AAa?$AAl?$AAi?$AAg?$AAn?$AAe?$AAd?$AA?5?$AAr?$AAe?$AAa?$AAd?$AAf?$AAi?$AAf?$AAo?$AA?$AN?$AA?6?$AA?$AA@ 0000e460     common_ti_ethdrv_usbfn:pdd.obj
 0001:0000d48c       ??_C@_1BK@BIFEAHLP@?$AA?9?$AAW?$AAr?$AAi?$AAt?$AAe?$AAF?$AAI?$AAF?$AAO?$AA?$AN?$AA?6?$AA?$AA@ 0000e48c     common_ti_ethdrv_usbfn:pdd.obj
 0001:0000d4a8       ??_C@_1DC@GIDDBHNC@?$AA?$CL?$AAW?$AAr?$AAi?$AAt?$AAe?$AAF?$AAI?$AAF?$AAO?$AA?3?$AA?5?$AAs?$AAi?$AAz?$AAe?$AA?$CI?$AA0?$AAx?$AA?$CF?$AAx?$AA?$CJ?$AA?$AN?$AA?6?$AA?$AA@ 0000e4a8     common_ti_ethdrv_usbfn:pdd.obj
 0001:0000d4dc       ??_C@_1DO@OPAMNHLJ@?$AA?9?$AAU?$AAs?$AAb?$AAF?$AAn?$AAP?$AAd?$AAd?$AA?$CB?$AAC?$AAo?$AAn?$AAt?$AAi?$AAn?$AAu?$AAe?$AAT?$AAx?$AAT?$AAr?$AAa?$AAn?$AAs?$AAf?$AAe?$AAr?$AA?$AN?$AA?6?$AA?$AA@ 0000e4dc     common_ti_ethdrv_usbfn:pdd.obj
 0001:0000d520       ??_C@_1FM@OBLLBJJA@?$AAS?$AAe?$AAt?$AA?5?$AAO?$AAU?$AAT?$AA?5?$AAM?$AAs?$AAg?$AA?5?$AA?$DN?$AA?$DO?$AA?5?$AAe?$AAp?$AA0?$AAS?$AAt?$AAa?$AAt?$AAe?$AA?5?$AA?$DN?$AA?5?$AAE?$AAP?$AA0?$AA_?$AAS?$AAT@ 0000e520     common_ti_ethdrv_usbfn:pdd.obj
 0001:0000d57c       ??_C@_1BM@LMLHKPJF@?$AAD?$AAA?$AAT?$AAA?$AAE?$AAN?$AAD?$AA?5?$AAa?$AAd?$AAd?$AA?$AN?$AA?6?$AA?$AA@ 0000e57c     common_ti_ethdrv_usbfn:pdd.obj
 0001:0000d598       ??_C@_1CK@EOKGALAH@?$AAT?$AAx?$AA?5?$AAp?$AAa?$AAc?$AAk?$AAe?$AAt?$AA?5?$AAs?$AAi?$AAz?$AAe?$AA?3?$AA?5?$AA?$CF?$AAd?$AA?$AN?$AA?6?$AA?$AA@ 0000e598     common_ti_ethdrv_usbfn:pdd.obj
 0001:0000d5c8       ??_C@_1GE@JLPAIEOM@?$AAE?$AAP?$AA0?$AA_?$AAS?$AAT?$AA_?$AAD?$AAA?$AAT?$AAA?$AA_?$AAT?$AAX?$AA?5?$AAs?$AAp?$AAa?$AAc?$AAe?$AA_?$AAl?$AAe?$AAf?$AAt?$AA_?$AAt?$AAo?$AA_?$AAs?$AAe?$AAn@ 0000e5c8     common_ti_ethdrv_usbfn:pdd.obj
 0001:0000d62c       ??_C@_1CK@HGADPGKD@?$AAI?$AAn?$AAv?$AAa?$AAl?$AAi?$AAd?$AA?5?$AAS?$AAt?$AAa?$AAt?$AAe?$AA?5?$AA?$DN?$AA?5?$AA?$CF?$AAd?$AA?$AN?$AA?6?$AA?$AA@ 0000e62c     common_ti_ethdrv_usbfn:pdd.obj
 0001:0000d658       ??_C@_1DG@GAFCGMNC@?$AAW?$AAr?$AAi?$AAt?$AAe?$AAF?$AAI?$AAF?$AAO?$AA?5?$AAE?$AAP?$AA?5?$AA?$CF?$AAd?$AA?0?$AA?5?$AAS?$AAi?$AAz?$AAe?$AA?5?$AA?$CF?$AAd?$AA?$AN?$AA?6?$AA?$AA@ 0000e658     common_ti_ethdrv_usbfn:pdd.obj
 0001:0000d690       ??_C@_1DC@IJMAINHK@?$AAT?$AAX?$AAP?$AAK?$AAT?$AAR?$AAd?$AAy?$AA?5?$AAb?$AAi?$AAt?$AA?5?$AAi?$AAs?$AA?5?$AAs?$AAe?$AAt?$AA?5?$AA?4?$AA?4?$AA?$AN?$AA?6?$AA?$AA@ 0000e690     common_ti_ethdrv_usbfn:pdd.obj
 0001:0000d6c8       ??_C@_1FM@NNMILMFN@?$AAe?$AAn?$AAd?$AAp?$AAo?$AAi?$AAn?$AAt?$AA?$CI?$AA?$CF?$AAd?$AA?$CJ?$AA?5?$AAc?$AAb?$AAB?$AAu?$AAf?$AAf?$AAe?$AAr?$AA?$CI?$AA?$CF?$AAd?$AA?$CJ?$AA?5?$AAc?$AAb?$AAT?$AAr?$AAa?$AAn@ 0000e6c8     common_ti_ethdrv_usbfn:pdd.obj
 0001:0000d724       ??_C@_1DG@KJCFCKAI@?$AAE?$AAr?$AAr?$AAo?$AAr?$AA?$CB?$AA?5?$AAp?$AAT?$AAr?$AAa?$AAn?$AAs?$AAf?$AAe?$AAr?$AA?5?$AAi?$AAs?$AA?5?$AAN?$AAU?$AAL?$AAL?$AA?$AN?$AA?6?$AA?$AA@ 0000e724     common_ti_ethdrv_usbfn:pdd.obj
 0001:0000d760       ??_C@_1II@PBHEPHNB@?$AA?$CL?$AAU?$AAs?$AAb?$AAF?$AAn?$AAP?$AAd?$AAd?$AA?$CB?$AAC?$AAo?$AAn?$AAt?$AAi?$AAn?$AAu?$AAe?$AAT?$AAx?$AAT?$AAr?$AAa?$AAn?$AAs?$AAf?$AAe?$AAr?$AA?3?$AA?5?$AAE?$AAP@ 0000e760     common_ti_ethdrv_usbfn:pdd.obj
 0001:0000d7e8       ??_C@_1CG@BNGOCLAM@?$AA?9?$AAS?$AAt?$AAa?$AAr?$AAt?$AAR?$AAx?$AAT?$AAr?$AAa?$AAn?$AAs?$AAf?$AAe?$AAr?$AA?$AN?$AA?6?$AA?$AA@ 0000e7e8     common_ti_ethdrv_usbfn:pdd.obj
 0001:0000d810       ??_C@_1EM@HPHMIFBK@?$AAE?$AAP?$AA?5?$AA?$CF?$AAd?$AA?5?$AAI?$AAs?$AAs?$AAu?$AAe?$AAT?$AAr?$AAa?$AAn?$AAs?$AAf?$AAe?$AAr?$AA?$CI?$AAO?$AAU?$AAT?$AA?$CJ?$AA?5?$AAR?$AAx?$AAC?$AAS?$AAR?$AA?$DN?$AA0@ 0000e810     common_ti_ethdrv_usbfn:pdd.obj
 0001:0000d860       ??_C@_1EC@GEEDPLJM@?$AAA?$AAC?$AAK?$AA?3?$AA?5?$AAS?$AAt?$AAa?$AAr?$AAt?$AAR?$AAx?$AAT?$AAr?$AAa?$AAn?$AAs?$AAf?$AAe?$AAr?$AA?5?$AAf?$AAo?$AAr?$AA?5?$AAE?$AAP?$AA?5?$AA?$CF?$AAd?$AA?$AN?$AA?6@ 0000e860     common_ti_ethdrv_usbfn:pdd.obj
 0001:0000d8a4       ??_C@_1BI@PDCFGEL@?$AAR?$AAe?$AAc?$AAe?$AAi?$AAv?$AAe?$AAd?$AA?3?$AA?$AN?$AA?6?$AA?$AA@ 0000e8a4     common_ti_ethdrv_usbfn:pdd.obj
 0001:0000d8c0       ??_C@_1FI@DIOGIKJI@?$AAS?$AAt?$AAa?$AAr?$AAt?$AAR?$AAx?$AAT?$AAr?$AAa?$AAn?$AAs?$AAf?$AAe?$AAr?$AA?3?$AA?5?$AA?5?$AAe?$AAr?$AAr?$AAo?$AAr?$AA?5?$AAp?$AAT?$AAr?$AAa?$AAn?$AAs?$AAf?$AAe@ 0000e8c0     common_ti_ethdrv_usbfn:pdd.obj
 0001:0000d918       ??_C@_1IA@FHPKIPM@?$AAU?$AAs?$AAb?$AAF?$AAn?$AAP?$AAd?$AAd?$AA?$CB?$AAS?$AAt?$AAa?$AAr?$AAt?$AAR?$AAx?$AAT?$AAr?$AAa?$AAn?$AAs?$AAf?$AAe?$AAr?$AA?3?$AA?5?$AAE?$AAP?$AA?5?$AA?$CF?$AAd?$AA?5@ 0000e918     common_ti_ethdrv_usbfn:pdd.obj
 0001:0000d998       ??_C@_1FE@IACJAPMH@?$AAS?$AAt?$AAa?$AAr?$AAt?$AAU?$AAS?$AAB?$AAC?$AAl?$AAo?$AAc?$AAk?$AA?5?$AA?3?$AA?5?$AAF?$AAa?$AAi?$AAl?$AAe?$AAd?$AA?5?$AAt?$AAo?$AA?5?$AAe?$AAn?$AAa?$AAb?$AAl?$AAe@ 0000e998     common_ti_ethdrv_usbfn:pdd.obj
 0001:0000d9ec       ??_C@_1CA@CNHBOOBH@?$AAS?$AAt?$AAa?$AAr?$AAt?$AAU?$AAS?$AAB?$AAC?$AAl?$AAo?$AAc?$AAk?$AA?$AN?$AA?6?$AA?$AA@ 0000e9ec     common_ti_ethdrv_usbfn:pdd.obj
 0001:0000da0c       ??_C@_1DG@LHNIEBLN@?$AA?$CL?$AAU?$AAS?$AAB?$AAF?$AAN?$AA?3?$AA?3?$AAD?$AAe?$AAv?$AAi?$AAc?$AAe?$AA?5?$AAI?$AAD?$AA?5?$AA?$DN?$AA?5?$AA0?$AAx?$AA?$CF?$AAx?$AA?$AN?$AA?6?$AA?$AA@ 0000ea0c     common_ti_ethdrv_usbfn:pdd.obj
 0001:0000da44       ??_C@_1CI@LOFKLMPA@?$AAD?$AAe?$AAv?$AAi?$AAc?$AAe?$AA_?$AAD?$AAi?$AAs?$AAc?$AAo?$AAn?$AAn?$AAe?$AAc?$AAt?$AA?$AN?$AA?6?$AA?$AA@ 0000ea44     common_ti_ethdrv_usbfn:pdd.obj
 0001:0000da6c       ??_C@_1CG@NFOBHLAH@?$AA?9?$AAD?$AAe?$AAv?$AAi?$AAc?$AAe?$AA_?$AAR?$AAe?$AAs?$AAe?$AAt?$AAI?$AAR?$AAQ?$AA?$AN?$AA?6?$AA?$AA@ 0000ea6c     common_ti_ethdrv_usbfn:pdd.obj
 0001:0000da94       ??_C@_1CA@HBMBLNHB@?$AAB?$AAS?$AA_?$AAF?$AAU?$AAL?$AAL?$AA_?$AAS?$AAP?$AAE?$AAE?$AAD?$AA?$AN?$AA?6?$AA?$AA@ 0000ea94     common_ti_ethdrv_usbfn:pdd.obj
 0001:0000dab4       ??_C@_1CA@BBIAPALJ@?$AAB?$AAS?$AA_?$AAH?$AAI?$AAG?$AAH?$AA_?$AAS?$AAP?$AAE?$AAE?$AAD?$AA?$AN?$AA?6?$AA?$AA@ 0000eab4     common_ti_ethdrv_usbfn:pdd.obj
 0001:0000dad4       ??_C@_1CG@EODBHLMJ@?$AA?$CL?$AAD?$AAe?$AAv?$AAi?$AAc?$AAe?$AA_?$AAR?$AAe?$AAs?$AAe?$AAt?$AAI?$AAR?$AAQ?$AA?$AN?$AA?6?$AA?$AA@ 0000ead4     common_ti_ethdrv_usbfn:pdd.obj
 0001:0000dafc       ??_C@_1CK@PHELNBKD@?$AA?9?$AAD?$AAe?$AAv?$AAi?$AAc?$AAe?$AA_?$AAP?$AAr?$AAo?$AAc?$AAe?$AAs?$AAs?$AAE?$AAP?$AA0?$AA?$AN?$AA?6?$AA?$AA@ 0000eafc     common_ti_ethdrv_usbfn:pdd.obj
 0001:0000db28       ??_C@_1EE@LDJOACEP@?$AAE?$AAP?$AA0?$AA_?$AAS?$AAT?$AA_?$AAS?$AAE?$AAT?$AAU?$AAP?$AA?5?$AAr?$AAe?$AAc?$AAe?$AAi?$AAv?$AAe?$AAs?$AA?5?$AA0?$AAx?$AA?$CF?$AAx?$AA?5?$AA0?$AAx?$AA?$CF?$AAx?$AA?$AN@ 0000eb28     common_ti_ethdrv_usbfn:pdd.obj
 0001:0000db70       ??_C@_1EA@FFLGMHM@?$AAE?$AAP?$AA0?$AA_?$AAS?$AAT?$AA_?$AAS?$AAT?$AAA?$AAT?$AAU?$AAS?$AA_?$AAI?$AAN?$AA?5?$AA?$DN?$AA?$DO?$AA?5?$AAE?$AAP?$AA0?$AA?5?$AAS?$AAE?$AAT?$AAU?$AAP?$AA?$AN?$AA?6?$AA?$AA@ 0000eb70     common_ti_ethdrv_usbfn:pdd.obj
 0001:0000dbb0       ??_C@_1GE@CGEACPAE@?$AAD?$AAe?$AAv?$AAi?$AAc?$AAe?$AA_?$AAP?$AAr?$AAo?$AAc?$AAe?$AAs?$AAs?$AAE?$AAP?$AA0?$AA?3?$AA?5?$AAE?$AAP?$AA0?$AA_?$AAS?$AAT?$AA_?$AAD?$AAA?$AAT?$AAA?$AA_?$AAR@ 0000ebb0     common_ti_ethdrv_usbfn:pdd.obj
 0001:0000dc18       ??_C@_1HK@NCIOKFCA@?$AAD?$AAe?$AAv?$AAi?$AAc?$AAe?$AA_?$AAP?$AAr?$AAo?$AAc?$AAe?$AAs?$AAs?$AAE?$AAP?$AA0?$AA?3?$AA?5?$AA?5?$AAe?$AAr?$AAr?$AAo?$AAr?$AA?5?$AAE?$AAP?$AA0?$AA_?$AAS?$AAT@ 0000ec18     common_ti_ethdrv_usbfn:pdd.obj
 0001:0000dc98       ??_C@_1FA@LBDLDOFO@?$AA2?$AA?4?$AA?5?$AAD?$AAe?$AAv?$AAi?$AAc?$AAe?$AA_?$AAP?$AAr?$AAo?$AAc?$AAe?$AAs?$AAs?$AAE?$AAP?$AA0?$AA?5?$AAS?$AAe?$AAt?$AA?5?$AAT?$AAx?$AAP?$AAk?$AAt?$AAR?$AAd@ 0000ec98     common_ti_ethdrv_usbfn:pdd.obj
 0001:0000dce8       ??_C@_1HE@CCMNMCIH@?$AAD?$AAe?$AAv?$AAi?$AAc?$AAe?$AA_?$AAP?$AAr?$AAo?$AAc?$AAe?$AAs?$AAs?$AA0?$AA?3?$AA?5?$AAf?$AAi?$AAn?$AAa?$AAl?$AA?5?$AAc?$AAo?$AAp?$AAy?$AA?5?$AAN?$AAo?$AAt?$AAi@ 0000ece8     common_ti_ethdrv_usbfn:pdd.obj
 0001:0000dd60       ??_C@_1IK@IEONPHHN@?$AAD?$AAe?$AAv?$AAi?$AAc?$AAe?$AA_?$AAP?$AAr?$AAo?$AAc?$AAe?$AAs?$AAs?$AAE?$AAP?$AA0?$AA?3?$AA?5?$AAE?$AAP?$AA0?$AA_?$AAS?$AAT?$AA_?$AAD?$AAA?$AAT?$AAA?$AA_?$AAT@ 0000ed60     common_ti_ethdrv_usbfn:pdd.obj
 0001:0000ddf0       ??_C@_1HK@JEKPKAL@?$AAD?$AAe?$AAv?$AAi?$AAc?$AAe?$AA_?$AAP?$AAr?$AAo?$AAc?$AAe?$AAs?$AAs?$AAE?$AAP?$AA0?$AA?3?$AA?5?$AA?5?$AAe?$AAr?$AAr?$AAo?$AAr?$AA?5?$AAE?$AAP?$AA0?$AA_?$AAS?$AAT@ 0000edf0     common_ti_ethdrv_usbfn:pdd.obj
 0001:0000de6c       ??_C@_1BG@BNAGFJMA@?$AAS?$AAT?$AA_?$AAE?$AAR?$AAR?$AAO?$AAR?$AA?$AN?$AA?6?$AA?$AA@ 0000ee6c     common_ti_ethdrv_usbfn:pdd.obj
 0001:0000de84       ??_C@_1BM@CMOKIKNH@?$AAC?$AAS?$AAR?$AA0?$AA?5?$AA?$DN?$AA?5?$AA0?$AAx?$AA?$CF?$AAx?$AA?$AN?$AA?6?$AA?$AA@ 0000ee84     common_ti_ethdrv_usbfn:pdd.obj
 0001:0000dea0       ??_C@_1CA@HLDCJJFC@?$AAS?$AAe?$AAt?$AAA?$AAd?$AAd?$AAr?$AAe?$AAs?$AAs?$AA?$DN?$AA?$CF?$AAd?$AA?$AN?$AA?6?$AA?$AA@ 0000eea0     common_ti_ethdrv_usbfn:pdd.obj
 0001:0000dec0       ??_C@_1BG@GEGFJNAH@?$AAS?$AAe?$AAt?$AAu?$AAp?$AAE?$AAn?$AAd?$AA?$AN?$AA?6?$AA?$AA@ 0000eec0     common_ti_ethdrv_usbfn:pdd.obj
 0001:0000ded8       ??_C@_1BA@CNFNHGLF@?$AAS?$AAt?$AAa?$AAl?$AAl?$AA?$AN?$AA?6?$AA?$AA@ 0000eed8     common_ti_ethdrv_usbfn:pdd.obj
 0001:0000dee8       ??_C@_1GK@GDOLHGDC@?$AAI?$AAn?$AAt?$AAe?$AAr?$AAr?$AAu?$AAp?$AAt?$AA?5?$AAr?$AAe?$AAc?$AAe?$AAi?$AAv?$AAe?$AA?5?$AAw?$AAi?$AAt?$AAh?$AA?5?$AAC?$AAS?$AAR?$AA0?$AA?5?$AA?$DN?$AA?5?$AA0?$AAx@ 0000eee8     common_ti_ethdrv_usbfn:pdd.obj
 0001:0000df54       ??_C@_1CK@IHDMMHEF@?$AA?$CL?$AAD?$AAe?$AAv?$AAi?$AAc?$AAe?$AA_?$AAP?$AAr?$AAo?$AAc?$AAe?$AAs?$AAs?$AAE?$AAP?$AA0?$AA?$AN?$AA?6?$AA?$AA@ 0000ef54     common_ti_ethdrv_usbfn:pdd.obj
 0001:0000df80       ??_C@_1DA@IKAAHPOB@?$AA?9?$AAD?$AAe?$AAv?$AAi?$AAc?$AAe?$AA_?$AAP?$AAr?$AAo?$AAc?$AAe?$AAs?$AAs?$AAE?$AAP?$AAx?$AA_?$AAR?$AAX?$AA?$AN?$AA?6?$AA?$AA@ 0000ef80     common_ti_ethdrv_usbfn:pdd.obj
 0001:0000dfb0       ??_C@_1HE@CCBEIKEM@?$AAD?$AAe?$AAv?$AAi?$AAc?$AAe?$AA_?$AAP?$AAr?$AAo?$AAc?$AAe?$AAs?$AAs?$AAE?$AAP?$AAx?$AA_?$AAR?$AAX?$AA?3?$AA?5?$AAc?$AAa?$AAl?$AAl?$AA?5?$AAp?$AAf?$AAn?$AAN?$AAo@ 0000efb0     common_ti_ethdrv_usbfn:pdd.obj
 0001:0000e028       ??_C@_1FO@DJGBGNGE@?$AA?$CB?$AA?$CB?$AA?$CB?$AA?5?$AAD?$AAe?$AAv?$AAi?$AAc?$AAe?$AA_?$AAP?$AAr?$AAo?$AAc?$AAe?$AAs?$AAs?$AAE?$AAP?$AAx?$AA_?$AAR?$AAX?$AA?3?$AA?5?$AA?5?$AAp?$AAT?$AAr?$AAa?$AAn@ 0000f028     common_ti_ethdrv_usbfn:pdd.obj
 0001:0000e088       ??_C@_1BE@PIBDKLHF@?$AAO?$AAv?$AAe?$AAr?$AAr?$AAu?$AAn?$AA?$AN?$AA?6?$AA?$AA@ 0000f088     common_ti_ethdrv_usbfn:pdd.obj
 0001:0000e0a0       ??_C@_1EK@IMFCNEOO@?$AA?$CL?$AAD?$AAe?$AAv?$AAi?$AAc?$AAe?$AA_?$AAP?$AAr?$AAo?$AAc?$AAe?$AAs?$AAs?$AAE?$AAP?$AAx?$AA_?$AAR?$AAX?$AA?3?$AA?5?$AAe?$AAn?$AAd?$AAp?$AAo?$AAi?$AAn?$AAt?$AA?$DN@ 0000f0a0     common_ti_ethdrv_usbfn:pdd.obj
 0001:0000e0ec       ??_C@_1DA@IHBOAPKG@?$AA?9?$AAD?$AAe?$AAv?$AAi?$AAc?$AAe?$AA_?$AAP?$AAr?$AAo?$AAc?$AAe?$AAs?$AAs?$AAE?$AAP?$AAx?$AA_?$AAT?$AAX?$AA?$AN?$AA?6?$AA?$AA@ 0000f0ec     common_ti_ethdrv_usbfn:pdd.obj
 0001:0000e120       ??_C@_1HC@IGCMDKEF@?$AAD?$AAe?$AAv?$AAi?$AAc?$AAe?$AA_?$AAP?$AAr?$AAo?$AAc?$AAe?$AAs?$AAs?$AAE?$AAP?$AAx?$AA_?$AAT?$AAX?$AA?3?$AA?5?$AAb?$AAy?$AAt?$AAe?$AAs?$AA_?$AAl?$AAe?$AAf?$AAt@ 0000f120     common_ti_ethdrv_usbfn:pdd.obj
 0001:0000e198       ??_C@_1FG@FBIKOCJK@?$AAD?$AAe?$AAv?$AAi?$AAc?$AAe?$AA_?$AAP?$AAr?$AAo?$AAc?$AAe?$AAs?$AAs?$AAE?$AAP?$AAx?$AA_?$AAT?$AAX?$AA?3?$AA?5?$AA?5?$AAp?$AAT?$AAr?$AAa?$AAn?$AAs?$AAf?$AAe?$AAr@ 0000f198     common_ti_ethdrv_usbfn:pdd.obj
 0001:0000e1f0       ??_C@_1CG@GONGKHD@?$AAT?$AAX?$AAC?$AAS?$AAR?$AA_?$AAP?$AA_?$AAT?$AAX?$AAP?$AAK?$AAT?$AAR?$AAD?$AAY?$AA?$AN?$AA?6?$AA?$AA@ 0000f1f0     common_ti_ethdrv_usbfn:pdd.obj
 0001:0000e218       ??_C@_1BG@CDDDEDII@?$AAU?$AAn?$AAd?$AAe?$AAr?$AAr?$AAu?$AAn?$AA?$AN?$AA?6?$AA?$AA@ 0000f218     common_ti_ethdrv_usbfn:pdd.obj
 0001:0000e230       ??_C@_1EK@EFJCCDBC@?$AA?$CL?$AAD?$AAe?$AAv?$AAi?$AAc?$AAe?$AA_?$AAP?$AAr?$AAo?$AAc?$AAe?$AAs?$AAs?$AAE?$AAP?$AAx?$AA_?$AAT?$AAX?$AA?3?$AA?5?$AAe?$AAn?$AAd?$AAp?$AAo?$AAi?$AAn?$AAt?$AA?$DN@ 0000f230     common_ti_ethdrv_usbfn:pdd.obj
 0001:0000e280       ??_C@_1LE@ICJADCP@?$AAU?$AAs?$AAb?$AAF?$AAn?$AAP?$AAd?$AAd?$AA?$CB?$AAI?$AAn?$AAt?$AAe?$AAr?$AAr?$AAu?$AAp?$AAt?$AAT?$AAh?$AAr?$AAe?$AAa?$AAd?$AA?3?$AA?5?$AAI?$AAn?$AAt?$AAe?$AAr?$AAr@ 0000f280     common_ti_ethdrv_usbfn:pdd.obj
 0001:0000e334       ??_C@_1DA@NCOAFPN@?$AA?9?$AAU?$AAf?$AAn?$AAP?$AAd?$AAd?$AA_?$AAI?$AAs?$AAs?$AAu?$AAe?$AAT?$AAr?$AAa?$AAn?$AAs?$AAf?$AAe?$AAr?$AA?$AN?$AA?6?$AA?$AA@ 0000f334     common_ti_ethdrv_usbfn:pdd.obj
 0001:0000e368       ??_C@_1GC@NGNENNDF@?$AAU?$AAf?$AAn?$AAP?$AAd?$AAd?$AA_?$AAI?$AAs?$AAs?$AAu?$AAe?$AAT?$AAr?$AAa?$AAn?$AAs?$AAf?$AAe?$AAr?$AA?3?$AA?5?$AA?5?$AAe?$AAr?$AAr?$AAo?$AAr?$AA?5?$AAp?$AAT?$AAr@ 0000f368     common_ti_ethdrv_usbfn:pdd.obj
 0001:0000e3cc       ??_C@_1DA@IAIKGPDF@?$AA?$CL?$AAU?$AAf?$AAn?$AAP?$AAd?$AAd?$AA_?$AAI?$AAs?$AAs?$AAu?$AAe?$AAT?$AAr?$AAa?$AAn?$AAs?$AAf?$AAe?$AAr?$AA?$AN?$AA?6?$AA?$AA@ 0000f3cc     common_ti_ethdrv_usbfn:pdd.obj
 0001:0000e400       ??_C@_1EC@JLHOICLC@?$AAU?$AAf?$AAn?$AAP?$AAd?$AAd?$AA_?$AAA?$AAb?$AAo?$AAr?$AAt?$AAT?$AAr?$AAa?$AAn?$AAs?$AAf?$AAe?$AAr?$AA?5?$AAf?$AAo?$AAr?$AA?5?$AAE?$AAP?$AA?5?$AA?$CF?$AAd?$AA?$AN?$AA?6@ 0000f400     common_ti_ethdrv_usbfn:pdd.obj
 0001:0000e444       ??_C@_1DK@IJNOMNLM@?$AAU?$AAf?$AAn?$AAP?$AAd?$AAd?$AA_?$AAA?$AAb?$AAo?$AAr?$AAt?$AAT?$AAr?$AAa?$AAn?$AAs?$AAf?$AAe?$AAr?$AA?5?$AAe?$AAp?$AA?5?$AA?$CF?$AAd?$AA?$AN?$AA?6?$AA?$AA@ 0000f444     common_ti_ethdrv_usbfn:pdd.obj
 0001:0000e480       ??_C@_1CO@FFFEIOGH@?$AAU?$AAf?$AAn?$AAP?$AAd?$AAd?$AA_?$AAS?$AAt?$AAa?$AAl?$AAl?$AAE?$AAn?$AAd?$AAp?$AAo?$AAi?$AAn?$AAt?$AA?$AN?$AA?6?$AA?$AA@ 0000f480     common_ti_ethdrv_usbfn:pdd.obj
 0001:0000e4b0       ??_C@_1EM@DEDHGOEH@?$AAU?$AAf?$AAn?$AAP?$AAd?$AAd?$AA_?$AAC?$AAl?$AAe?$AAa?$AAr?$AAE?$AAn?$AAd?$AAp?$AAo?$AAi?$AAn?$AAt?$AAS?$AAt?$AAa?$AAl?$AAl?$AA?5?$AAf?$AAo?$AAr?$AA?5?$AAE?$AAP@ 0000f4b0     common_ti_ethdrv_usbfn:pdd.obj
 0001:0000e4fc       ??_C@_1DE@ECDCBICE@?$AAU?$AAf?$AAn?$AAP?$AAd?$AAd?$AA_?$AAI?$AAs?$AAE?$AAn?$AAd?$AAp?$AAo?$AAi?$AAn?$AAt?$AAH?$AAa?$AAl?$AAt?$AAe?$AAd?$AA?$AN?$AA?6?$AA?$AA@ 0000f4fc     common_ti_ethdrv_usbfn:pdd.obj
 0001:0000e530       ??_C@_1EK@FBCADDCM@?$AA?9?$AAU?$AAf?$AAn?$AAP?$AAd?$AAd?$AA_?$AAS?$AAe?$AAn?$AAd?$AAC?$AAo?$AAn?$AAt?$AAr?$AAo?$AAl?$AAS?$AAt?$AAa?$AAt?$AAu?$AAs?$AAH?$AAa?$AAn?$AAd?$AAs?$AAh?$AAa@ 0000f530     common_ti_ethdrv_usbfn:pdd.obj
 0001:0000e580       ??_C@_1IC@BLPLCJAE@?$AA?7?$AA?$CB?$AA?$CB?$AA?$CB?$AA?5?$AAU?$AAf?$AAn?$AAP?$AAd?$AAd?$AA_?$AAS?$AAe?$AAn?$AAd?$AAC?$AAo?$AAn?$AAt?$AAr?$AAo?$AAl?$AAS?$AAt?$AAa?$AAt?$AAu?$AAs?$AAH?$AAa?$AAn@ 0000f580     common_ti_ethdrv_usbfn:pdd.obj
 0001:0000e608       ??_C@_1EK@IJELKIMG@?$AA?7?$AAE?$AAP?$AA0?$AA_?$AAS?$AAT?$AA_?$AAS?$AAT?$AAA?$AAT?$AAU?$AAS?$AA_?$AAO?$AAU?$AAT?$AA?5?$AA?$DN?$AA?$DO?$AA?5?$AAE?$AAP?$AA0?$AA_?$AAS?$AAT?$AA_?$AAS?$AAE?$AAT@ 0000f608     common_ti_ethdrv_usbfn:pdd.obj
 0001:0000e658       ??_C@_1FM@CCEMDGJE@?$AA?7?$AAE?$AAP?$AA0?$AA_?$AAS?$AAT?$AA_?$AAS?$AAE?$AAT?$AAU?$AAP?$AA_?$AAP?$AAR?$AAO?$AAC?$AAE?$AAS?$AAS?$AAE?$AAD?$AA?5?$AA?$DN?$AA?$DO?$AA?5?$AAE?$AAP?$AA0?$AA_?$AAS@ 0000f658     common_ti_ethdrv_usbfn:pdd.obj
 0001:0000e6b8       ??_C@_1EK@GPBDHODF@?$AA?$CL?$AAU?$AAf?$AAn?$AAP?$AAd?$AAd?$AA_?$AAS?$AAe?$AAn?$AAd?$AAC?$AAo?$AAn?$AAt?$AAr?$AAo?$AAl?$AAS?$AAt?$AAa?$AAt?$AAu?$AAs?$AAH?$AAa?$AAn?$AAd?$AAs?$AAh?$AAa@ 0000f6b8     common_ti_ethdrv_usbfn:pdd.obj
 0001:0000e708       ??_C@_1EA@KNMJPPBI@?$AAU?$AAs?$AAb?$AAF?$AAn?$AAP?$AAd?$AAd?$AA_?$AAI?$AAn?$AAi?$AAt?$AAi?$AAa?$AAt?$AAe?$AAR?$AAe?$AAm?$AAo?$AAt?$AAe?$AAW?$AAa?$AAk?$AAe?$AAu?$AAp?$AA?$AN?$AA?6?$AA?$AA@ 0000f708     common_ti_ethdrv_usbfn:pdd.obj
 0001:0000e748       ??_C@_1FG@KMPMJHMD@?$AAS?$AAt?$AAa?$AAr?$AAt?$AAU?$AAS?$AAB?$AAC?$AAl?$AAo?$AAc?$AAk?$AA?5?$AA?3?$AA?5?$AAF?$AAa?$AAi?$AAl?$AAe?$AAd?$AA?5?$AAt?$AAo?$AA?5?$AAd?$AAi?$AAs?$AAa?$AAb?$AAl@ 0000f748     common_ti_ethdrv_usbfn:pdd.obj
 0001:0000e7a0       ??_C@_1BM@ELBPNMDN@?$AAU?$AAf?$AAn?$AAP?$AAd?$AAd?$AA_?$AAS?$AAt?$AAo?$AAp?$AA?$AN?$AA?6?$AA?$AA@ 0000f7a0     common_ti_ethdrv_usbfn:pdd.obj
 0001:0000e7bc       ??_C@_1DE@EDFIEPML@?$AAU?$AAf?$AAn?$AAP?$AAd?$AAd?$AA_?$AAS?$AAe?$AAt?$AAA?$AAd?$AAd?$AAr?$AAe?$AAs?$AAs?$AA?3?$AA?5?$AA?$CI?$AA?$CF?$AAd?$AA?$CJ?$AA?$AN?$AA?6?$AA?$AA@ 0000f7bc     common_ti_ethdrv_usbfn:pdd.obj
 0001:0000e7f0       ??_C@_1DA@KAOBCNKD@?$AA?$CL?$AAU?$AAS?$AAB?$AAF?$AAN?$AA?3?$AA?3?$AA?5?$AAU?$AAf?$AAn?$AAP?$AAd?$AAd?$AA_?$AAS?$AAt?$AAa?$AAr?$AAt?$AA?$AN?$AA?6?$AA?$AA@ 0000f7f0     common_ti_ethdrv_usbfn:pdd.obj
 0001:0000e820       ??_C@_1HI@CEIMIMOL@?$AAU?$AAf?$AAn?$AAP?$AAd?$AAd?$AA_?$AAR?$AAe?$AAg?$AAi?$AAs?$AAt?$AAe?$AAr?$AAD?$AAe?$AAv?$AAi?$AAc?$AAe?$AA?3?$AA?5?$AAU?$AAn?$AAs?$AAu?$AAp?$AAp?$AAo?$AAr?$AAt@ 0000f820     common_ti_ethdrv_usbfn:pdd.obj
 0001:0000e898       ??_C@_1DE@BDGEJFPP@?$AAU?$AAs?$AAb?$AAF?$AAn?$AAP?$AAd?$AAd?$AA_?$AAR?$AAe?$AAg?$AAi?$AAs?$AAt?$AAe?$AAr?$AAD?$AAe?$AAv?$AAi?$AAc?$AAe?$AA?$AN?$AA?6?$AA?$AA@ 0000f898     common_ti_ethdrv_usbfn:pdd.obj
 0001:0000e8d0       ??_C@_1EI@OOOAJGFK@?$AAU?$AAf?$AAn?$AAP?$AAd?$AAd?$AA_?$AAI?$AAs?$AAC?$AAo?$AAn?$AAf?$AAi?$AAg?$AAu?$AAr?$AAa?$AAt?$AAi?$AAo?$AAn?$AAS?$AAu?$AAp?$AAp?$AAo?$AAr?$AAt?$AAa?$AAb?$AAl@ 0000f8d0     common_ti_ethdrv_usbfn:pdd.obj
 0001:0000e918       ??_C@_1CI@PLGKOIKJ@?$AA?9?$AAU?$AAS?$AAB?$AAF?$AAN?$AA?3?$AA?3?$AA?5?$AAP?$AAD?$AAD?$AA?5?$AAI?$AAn?$AAi?$AAt?$AA?$AN?$AA?6?$AA?$AA@ 0000f918     common_ti_ethdrv_usbfn:pdd.obj
 0001:0000e940       ??_C@_1HE@JFIJHLAK@?$AAE?$AAR?$AAR?$AAO?$AAR?$AA?3?$AA?5?$AAU?$AAf?$AAn?$AAP?$AAd?$AAd?$AA_?$AAI?$AAn?$AAi?$AAt?$AA?3?$AA?5?$AAC?$AAo?$AAn?$AAt?$AAr?$AAo?$AAl?$AAl?$AAe?$AAr?$AA?5?$AAr@ 0000f940     common_ti_ethdrv_usbfn:pdd.obj
 0001:0000e9b4       ??_C@_1CI@KOBDIJLJ@?$AA?$CL?$AAU?$AAS?$AAB?$AAF?$AAN?$AA?3?$AA?3?$AA?5?$AAP?$AAD?$AAD?$AA?5?$AAI?$AAn?$AAi?$AAt?$AA?$AN?$AA?6?$AA?$AA@ 0000f9b4     common_ti_ethdrv_usbfn:pdd.obj
 0001:0000ea00       BSPGpioInit                0000fa00 f   main.obj
 0001:0000ea34       main                       0000fa34 f   main.obj
 0001:0000ea58       OEMPlatformInit            0000fa58 f   main.obj
 0001:0000ee90       OEMMultiBinNotify          0000fe90 f   main.obj
 0001:0000f0ec       OEMMapMemAddr              000100ec f   main.obj
 0001:0000f188       OEMIsFlashAddr             00010188 f   main.obj
 0001:0000f1c0       OEMReadData                000101c0 f   main.obj
 0001:0000f1ec       OEMShowProgress            000101ec f   main.obj
 0001:0000f204       OALGetTickCount            00010204 f   main.obj
 0001:0000f228       OEMKitlGetSecs             00010228 f   main.obj
 0001:0000f25c       GetDisplayResolutionFromBootArgs 0001025c f   main.obj
 0001:0000f270       ConvertCAtoPA              00010270 f   main.obj
 0001:0000f280       OEMPreDownload             00010280 f   main.obj
 0001:0000f65c       OEMLaunch                  0001065c f   main.obj
 0001:0000f870       HotKeyInit                 00010870 f   hotkey.obj
 0001:0000f8c8       HotKeyFunction             000108c8 f   hotkey.obj
 0001:0000fa08       HotKeyColdReset            00010a08 f   hotkey.obj
 0001:0000fa88       BLEthConfig                00010a88 f   eth.obj
 0001:0000fac4       OEMEthGetFrame             00010ac4 f   eth.obj
 0001:0000fafc       OEMEthSendFrame            00010afc f   eth.obj
 0001:0000fb34       BLEthReadData              00010b34 f   eth.obj
 0001:0000fb5c       BLMenu                     00010b5c f   menu.obj
 0001:0000fefc       OALStringToUINT32          00010efc f   menu.obj
 0001:0000ff3c       NKCreateStaticMapping      00010f3c f   stub.obj
 0001:00010bc4       OALPAtoVA                  00011bc4 f   mmu.obj
 0001:00010c70       OALVAtoPA                  00011c70 f   mmu.obj
 0001:00010d20       JumpTo                     00011d20 f   jumpto.obj
 0001:00010d88       OEMStartEraseFlash         00011d88 f   flash.obj
 0001:00010ddc       OEMContinueEraseFlash      00011ddc f   flash.obj
 0001:00010de0       OEMFinishEraseFlash        00011de0 f   flash.obj
 0001:00011258       BLConfigureFlashPartitions 00012258 f   flash.obj
 0001:00011a38       WriteFlashNK               00012a38 f   flash.obj
 0001:00011c38       BLFlashDownload            00012c38 f   flash.obj
 0001:00011c84       OEMWriteFlash              00012c84 f   flash.obj
 0001:00011cf4       BLReadBootCfg              00012cf4 f   cfg.obj
 0001:00011e98       BLWriteBootCfg             00012e98 f   cfg.obj
 0001:0001212c       BLShowLogo                 0001312c f   cfg.obj
 0001:00012160       OALKitlDeviceName          00013160 f   oal_kitl_boot:device.obj
 0001:00012214       OALBLMenuHeader            00013214 f   oal_blmenu:menu.obj
 0001:00012288       OALBLMenuReadKey           00013288 f   oal_blmenu:menu.obj
 0001:000122c4       OALBLMenuShow              000132c4 f   oal_blmenu:menu.obj
 0001:00012380       OALBLMenuReadLine          00013380 f   oal_blmenu:menu.obj
 0001:00012438       NKvDbgPrintfW              00013438 f   oal_blnk:wrappers.obj
 0001:00012464       NKDbgPrintfW               00013464 f   oal_blnk:wrappers.obj
 0001:00012524       NKwvsprintfW               00013524 f   oal_blnk:format.obj
 0001:00013a54       BootloaderMain             00014a54 f   oal_blcommon:blcommon.obj
 0001:00013da0       KITLOutputDebugString      00014da0 f   oal_blcommon:format.obj
 0001:00013f10       FormatString               00014f10 f   oal_blcommon:format.obj
 0001:000140a8       inet_ntoa                  000150a8 f   oal_blcommon:format.obj
 0001:000140f8       OALCleanDCache             000150f8 f   common_ti_cortexA8_cache:dcache.obj
 0001:00014194       OALCleanDCacheLines        00015194 f   common_ti_cortexA8_cache:dcache.obj
 0001:000141b8       OALFlushDCache             000151b8 f   common_ti_cortexA8_cache:dcache.obj
 0001:00014254       OALFlushDCacheLines        00015254 f   common_ti_cortexA8_cache:dcache.obj
 0001:00014278       OALInvalidateDCacheLines   00015278 f   common_ti_cortexA8_cache:dcache.obj
 0001:000142a8       OALFlashStoreOpen          000152a8 f   common_ti_oal_flashstore:flashstore.obj
 0001:0001441c       OALFlashStoreBlockSize     0001541c f   common_ti_oal_flashstore:flashstore.obj
 0001:0001442c       OALFlashStoreSectorSize    0001542c f   common_ti_oal_flashstore:flashstore.obj
 0001:00014434       OALFlashStoreClose         00015434 f   common_ti_oal_flashstore:flashstore.obj
 0001:00014500       OALFlashStoreWrite         00015500 f   common_ti_oal_flashstore:flashstore.obj
 0001:000148e4       OALFlashStoreRead          000158e4 f   common_ti_oal_flashstore:flashstore.obj
 0001:00014bb0       OALFlashStoreBufferedRead  00015bb0 f   common_ti_oal_flashstore:flashstore.obj
 0001:00014cc8       OALLocalAllocInit          00015cc8 f   common_ti_oal_alloc:alloc.obj
 0001:00014d30       OALLocalAlloc              00015d30 f   common_ti_oal_alloc:alloc.obj
 0001:00014e20       OALLocalFree               00015e20 f   common_ti_oal_alloc:alloc.obj
 0001:000150fc       NAND_CorrectEccData        000160fc f   common_ti_fmd_nand_boot:fmd.obj
 0001:00015168       FMD_Deinit                 00016168 f   common_ti_fmd_nand_boot:fmd.obj
 0001:000151ec       FMD_GetInfo                000161ec f   common_ti_fmd_nand_boot:fmd.obj
 0001:0001524c       FMD_ReadSectorOOB          0001624c f   common_ti_fmd_nand_boot:fmd.obj
 0001:00015370       FMD_ReadSector             00016370 f   common_ti_fmd_nand_boot:fmd.obj
 0001:00015768       FMD_WriteSector            00016768 f   common_ti_fmd_nand_boot:fmd.obj
 0001:00015ad4       FMD_GetBlockStatus         00016ad4 f   common_ti_fmd_nand_boot:fmd.obj
 0001:00015b58       FMD_SetBlockStatus         00016b58 f   common_ti_fmd_nand_boot:fmd.obj
 0001:00015e5c       FMD_Init                   00016e5c f   common_ti_fmd_nand_boot:fmd.obj
 0001:00015e88       FMD_EraseBlock             00016e88 f   common_ti_fmd_nand_boot:fmd.obj
 0001:000163f8       ECC_Init                   000173f8 f   common_ti_fmd_nand_boot:gpmc_ecc.obj
 0001:00016494       ECC_Result                 00017494 f   common_ti_fmd_nand_boot:gpmc_ecc.obj
 0001:000164bc       ECC_Reset                  000174bc f   common_ti_fmd_nand_boot:gpmc_ecc.obj
 0001:000164e4       ECC_CorrectData            000174e4 f   common_ti_fmd_nand_boot:gpmc_ecc.obj
 0001:00016dbc       decode_bch                 00017dbc f   common_ti_fmd_nand_boot:omap_bch_decoder.obj
 0001:00016e48       OEMInitDebugSerial         00017e48 f   common_ti_debugserial:debugserial.obj
 0001:00016edc       OEMDebugInit               00017edc f   common_ti_debugserial:debugserial.obj
 0001:00016ef0       OEMDeinitDebugSerial       00017ef0 f   common_ti_debugserial:debugserial.obj
 0001:00016f3c       OEMWriteDebugByte          00017f3c f   common_ti_debugserial:debugserial.obj
 0001:00016f84       OEMReadDebugByte           00017f84 f   common_ti_debugserial:debugserial.obj
 0001:00016fec       OEMWriteDebugString        00017fec f   common_ti_debugserial:debugserial.obj
 0001:00017018       I2CLock                    00018018 f   common_ti_oali2c:oali2c.obj
 0001:00017060       I2CUnlock                  00018060 f   common_ti_oali2c:oali2c.obj
 0001:000170a8       I2CPollStatus              000180a8 f i common_ti_oali2c:oali2c.obj
 0001:0001723c       OALI2CInit                 0001823c f   common_ti_oali2c:oali2c.obj
 0001:00017328       I2CSetSlaveAddress         00018328 f   common_ti_oali2c:oali2c.obj
 0001:00017334       I2COpen                    00018334 f   common_ti_oali2c:oali2c.obj
 0001:00017400       I2CClose                   00018400 f   common_ti_oali2c:oali2c.obj
 0001:00017898       I2CWrite                   00018898 f   common_ti_oali2c:oali2c.obj
 0001:00017a64       I2CRead                    00018a64 f   common_ti_oali2c:oali2c.obj
 0001:00017c64       Get_CPUVersion             00018c64 f   OMAP3530_oalcpuver:oalcpuver.obj
 0001:00017e14       GetAddressByDevice         00018e14 f   common_ti_devicesmap:devicemap.obj
 0001:00017eb0       GPIOInit                   00018eb0 f   common_ti_oal_gpiodispatch:gpio_dispatch.obj
 0001:00017f48       GPIOOpen                   00018f48 f   common_ti_oal_gpiodispatch:gpio_dispatch.obj
 0001:00017f58       GPIOClose                  00018f58 f   common_ti_oal_gpiodispatch:gpio_dispatch.obj
 0001:00017f5c       GPIOSetBit                 00018f5c f   common_ti_oal_gpiodispatch:gpio_dispatch.obj
 0001:00017fb4       GPIOClrBit                 00018fb4 f   common_ti_oal_gpiodispatch:gpio_dispatch.obj
 0001:0001800c       GPIOGetBit                 0001900c f   common_ti_oal_gpiodispatch:gpio_dispatch.obj
 0001:0001806c       GPIOSetMode                0001906c f   common_ti_oal_gpiodispatch:gpio_dispatch.obj
 0001:000180cc       GPIOPullup                 000190cc f   common_ti_oal_gpiodispatch:gpio_dispatch.obj
 0001:00018ddc       TWLOpen                    00019ddc f   triton_oal:twl_access.obj
 0001:00018e3c       TWLClose                   00019e3c f   triton_oal:twl_access.obj
 0001:00018e78       TWLReadRegs                00019e78 f   triton_oal:twl_access.obj
 0001:00018f04       TWLWriteRegs               00019f04 f   triton_oal:twl_access.obj
 0001:00018f90       SOCGetGPIODeviceByBank     00019f90 f   OMAP3530_soccfg:soccfg.obj
 0001:00018ff0       SOCGetSDHCDeviceBySlot     00019ff0 f   OMAP3530_soccfg:soccfg.obj
 0001:00019010       SOCGetGPMCAddress          0001a010 f   OMAP3530_soccfg:soccfg.obj
 0001:00019018       SOCGetUSBOTGAddress        0001a018 f   OMAP3530_soccfg:soccfg.obj
 0001:00019024       SOCGetIDCodeAddress        0001a024 f   OMAP3530_soccfg:soccfg.obj
 0001:00019030       SOCSetPadConfig            0001a030 f   OMAP3530_oal_padcfg:soc_padcfg.obj
 0001:000190ec       INTF_MMCSendCommand        0001a0ec f   common_ti_boot_sdmemory:sdcard.obj
 0001:0001926c       INTF_MMCReadResponse       0001a26c f   common_ti_boot_sdmemory:sdcard.obj
 0001:00019904       MMCSetTranSpeed            0001a904 f   common_ti_boot_sdmemory:sdcard.obj
 0001:00019958       UTIL_csd_get_devicesize    0001a958 f   common_ti_boot_sdmemory:sdcard.obj
 0001:00019a5c       UTIL_csd_get_tran_speed    0001aa5c f   common_ti_boot_sdmemory:sdcard.obj
 0001:00019b78       MMCCommandResponse         0001ab78 f   common_ti_boot_sdmemory:sdcard.obj
 0001:00019c24       MMCInitDisk                0001ac24 f   common_ti_boot_sdmemory:sdcard.obj
 0001:00019c6c       SDCardIdentify             0001ac6c f   common_ti_boot_sdmemory:sdcard.obj
 0001:00019c74       MMCSetBlockLen             0001ac74 f   common_ti_boot_sdmemory:sdcard.obj
 0001:00019cd0       MMCWaitForReady            0001acd0 f   common_ti_boot_sdmemory:sdcard.obj
 0001:00019dcc       MMCReadMultiSectors        0001adcc f   common_ti_boot_sdmemory:sdcard.obj
 0001:00019f28       MMCRead                    0001af28 f   common_ti_boot_sdmemory:sdcard.obj
 0001:0001a014       MMCSelectCard              0001b014 f   common_ti_boot_sdmemory:sdcard.obj
 0001:0001a298       MMCIssueIdentify           0001b298 f   common_ti_boot_sdmemory:sdcard.obj
 0001:0001a6b0       MMCCardDetect              0001b6b0 f   common_ti_boot_sdmemory:sdcard.obj
 0001:0001a6f8       SDCardInit                 0001b6f8 f   common_ti_boot_sdmemory:sdcard.obj
 0001:0001a7e8       SDCardReadSector           0001b7e8 f   common_ti_boot_sdmemory:sdcard.obj
 0001:0001a878       SDCardReadMultiSectors     0001b878 f   common_ti_boot_sdmemory:sdcard.obj
 0001:0001a914       BLSDCardDownload           0001b914 f   common_ti_boot_sdmemory:sdcard.obj
 0001:0001aa18       SdhcCardDetect             0001ba18 f   common_ti_boot_sdhc:sdhc.obj
 0001:0001ac58       SdhcSetClockRate           0001bc58 f   common_ti_boot_sdhc:sdhc.obj
 0001:0001af88       SdhcHandleInsertion        0001bf88 f   common_ti_boot_sdhc:sdhc.obj
 0001:0001b0e8       SdhcBusRequestHandler      0001c0e8 f   common_ti_boot_sdhc:sdhc.obj
 0001:0001b51c       SdhcSetInterface           0001c51c f   common_ti_boot_sdhc:sdhc.obj
 0001:0001b948       SdhcControllerIstThread    0001c948 f   common_ti_boot_sdhc:sdhc.obj
 0001:0001b988       SdhcInitialize             0001c988 f   common_ti_boot_sdhc:sdhc.obj
 0001:0001b9ac       OALGetSiliconIdCode        0001c9ac f   common_ti_boot_sdhc:getidcode.obj
 0001:0001ba74       LAN911XSendFrame           0001ca74 f   common_ti_ethdrv_lan911x:lan911x.obj
 0001:0001bb64       LAN911XGetFrame            0001cb64 f   common_ti_ethdrv_lan911x:lan911x.obj
 0001:0001bd38       LAN911XEnableInts          0001cd38 f   common_ti_ethdrv_lan911x:lan911x.obj
 0001:0001bd50       LAN911XDisableInts         0001cd50 f   common_ti_ethdrv_lan911x:lan911x.obj
 0001:0001bd68       LAN911XCurrentPacketFilter 0001cd68 f   common_ti_ethdrv_lan911x:lan911x.obj
 0001:0001bd6c       LAN911XMulticastList       0001cd6c f   common_ti_ethdrv_lan911x:lan911x.obj
 0001:0001bd74       LAN911XFindController      0001cd74 f   common_ti_ethdrv_lan911x:lan911x.obj
 0001:0001be3c       LAN911XGetMacAddress       0001ce3c f   common_ti_ethdrv_lan911x:lan911x.obj
 0001:0001bf88       LAN911XInit                0001cf88 f   common_ti_ethdrv_lan911x:lan911x.obj
 0001:0001c390       TWLReadIDCode              0001d390 f   TPS659xx_misc:misc.obj
 0001:0001c3c4       RndisRestart               0001d3c4 f   rne_mdd:rndis.obj
 0001:0001c42c       RndisPrepareRndisPacket    0001d42c f   rne_mdd:rndis.obj
 0001:0001c4d4       MddSendRndisPacketComplete 0001d4d4 f   rne_mdd:rndis.obj
 0001:0001c4e8       RndisEDbgSendFrame         0001d4e8 f   rne_mdd:rndis.obj
 0001:0001c630       MddSendRndisMessageComplete 0001d630 f   rne_mdd:rndis.obj
 0001:0001c65c       RndisSendRndisMessage      0001d65c f   rne_mdd:rndis.obj
 0001:0001c880       RndisProcessMessage        0001d880 f   rne_mdd:rndis.obj
 0001:0001cc1c       RndisEDbgGetFrame          0001dc1c f   rne_mdd:rndis.obj
 0001:0001cd6c       RndisProcessPacket         0001dd6c f   rne_mdd:rndis.obj
 0001:0001ceb8       RndisInit                  0001deb8 f   rne_mdd:rndis.obj
 0001:0001d0d0       RndisCurrentPacketFilter   0001e0d0 f   rne_mdd:rndis.obj
 0001:0001d0d4       RndisMulticastList         0001e0d4 f   rne_mdd:rndis.obj
 0001:0001d0dc       RndisEnableInts            0001e0dc f   rne_mdd:rndis.obj
 0001:0001d108       RndisDisableInts           0001e108 f   rne_mdd:rndis.obj
 0001:0001d134       HostMiniQueryInformation   0001e134 f   rne_mdd:hostmini.obj
 0001:0001d424       HostMiniSetInformation     0001e424 f   rne_mdd:hostmini.obj
 0001:0001d570       MddIndicateRndisMessage    0001e570 f   rne_mdd:hostmini.obj
 0001:0001d580       MddIndicateRndisPacket     0001e580 f   rne_mdd:hostmini.obj
 0001:0001d5a0       MDDAllocDataWrapper        0001e5a0 f   rne_mdd:hostmini.obj
 0001:0001d5c8       MDDAllocMem                0001e5c8 f   rne_mdd:hostmini.obj
 0001:0001d5d4       MDDFreeMem                 0001e5d4 f   rne_mdd:hostmini.obj
 0001:0001d5d8       MDDFreeDataWrapper         0001e5d8 f   rne_mdd:hostmini.obj
 0001:0001d5ec       HostMiniInit               0001e5ec f   rne_mdd:hostmini.obj
 0001:0001d630       InitBuffer                 0001e630 f   rne_mdd:util.obj
 0001:0001d6cc       AvaiableBufferSize         0001e6cc f   rne_mdd:util.obj
 0001:0001d708       AllocBuffer                0001e708 f   rne_mdd:util.obj
 0001:0001d7f8       FreeBuffer                 0001e7f8 f   rne_mdd:util.obj
 0001:0001d938       GetFirstUsedBuffer         0001e938 f   rne_mdd:util.obj
 0001:0001d9c4       __report_gsfailure         0001e9c4 f   gsnull:gsnull.obj
 0001:0001d9c8       __GSHandlerCheckCommon     0001e9c8 f   fulllibc:gshandler.obj
 0001:0001da04       __GSHandlerCheck           0001ea04 f   fulllibc:gshandler.obj
 0001:0001da28       strncmp                    0001ea28 f   fulllibc:astrncmp.obj
 0001:0001da58       memset                     0001ea58 f   fulllibc:memset.obj
 0001:0001dae0       __security_check_cookie    0001eae0 f   fulllibc:armsecgs.obj
 0001:0001daf4       __gsfailure                0001eaf4 f   fulllibc:armsecgs.obj
 0001:0001db38       wcscpy                     0001eb38 f   fulllibc:wcscpy.obj
 0001:0001db50       memcpy                     0001eb50 f   fulllibc:memcpy.obj
 0001:0001defc       memcpybigblk               0001eefc f   fulllibc:memcpy.obj
 0001:0001e8b0       __rt_udiv                  0001f8b0 f   fulllibc:__udiv.obj
 0001:0001e974       memmove                    0001f974 f   fulllibc:memmove.obj
 0001:0001f104       memmovebigblk              00020104 f   fulllibc:memmove.obj
 0001:0001fb9c       __rt_udivrem64by64         00020b9c f   fulllibc:mdsdiv64.obj
 0001:0001fc94       __rt_divrem64by64          00020c94 f   fulllibc:mdsdiv64.obj
 0001:0001fce4       __rt_udiv64by64            00020ce4 f   fulllibc:mdsdiv64.obj
 0001:0001fcf4       __rt_urem64by64            00020cf4 f   fulllibc:mdsdiv64.obj
 0001:0001fd0c       __rt_sdiv64by64            00020d0c f   fulllibc:mdsdiv64.obj
 0001:0001fd1c       __rt_srem64by64            00020d1c f   fulllibc:mdsdiv64.obj
 0001:0001fd34       memcmp                     00020d34 f   fulllibc:memcmp.obj
 0001:0001fe00       strcmp                     00020e00 f   fulllibc:mdsstrcmp.obj
 0001:0001fef0       atol                       00020ef0 f   fulllibc:atox.obj
 0001:0001ff94       atoi                       00020f94 f   fulllibc:atox.obj
 0001:0001ffa4       strlen                     00020fa4 f   fulllibc:mdsstrlen.obj
 0001:00020008       __raise_int_divide_by_zero 00021008 f   fulllibc:diverr.obj
 0001:0002002c       __crtRaiseException        0002102c f   fulllibc:raiseexc.obj
 0001:00020618       BP_ReadData                00021618 f   bootpart:bootpart.obj
 0001:000208a8       BP_WriteData               000218a8 f   bootpart:bootpart.obj
 0001:00020bc0       BP_SetDataPointer          00021bc0 f   bootpart:bootpart.obj
 0001:00020c38       BP_GetPartitionInfo        00021c38 f   bootpart:bootpart.obj
 0001:00020c48       BP_Init                    00021c48 f   bootpart:bootpart.obj
 0001:00021194       BP_LowLevelFormat          00022194 f   bootpart:bootpart.obj
 0001:000212c0       BP_OpenPartition           000222c0 f   bootpart:bootpart.obj
 0001:00021534       EraseBlocks                00022534 f   bootpart:util.obj
 0001:00021790       EbootEtherReadData         00022790 f   eboot:ebsimp.obj
 0001:0002191c       EbootWaitForHostConnect    0002291c f   eboot:ebsimp.obj
 0001:00021a18       GenerateSrcPort            00022a18 f   eboot:tftpd.obj
 0001:00021a24       TFtpdCallBack              00022a24 f   eboot:tftpd.obj
 0001:00021d00       TFtpdFormNewLink           00022d00 f   eboot:tftpd.obj
 0001:00022104       TFtpKillLink               00023104 f   eboot:tftp.obj
 0001:000221fc       TFtpStateMachine           000231fc f   eboot:tftp.obj
 0001:00022498       EbootTFtpReceiver          00023498 f   eboot:tftp.obj
 0001:000225ec       SrcAddrFromFrame           000235ec f   eboot:udp.obj
 0001:00022658       SetPromiscuousIP           00023658 f   eboot:udp.obj
 0001:0002266c       ClearPromiscuousIP         0002366c f   eboot:udp.obj
 0001:00022738       EbootProcessARP            00023738 f   eboot:udp.obj
 0001:000229c0       EbootSendUDP               000239c0 f   eboot:udp.obj
 0001:00022c38       EbootCheckUDP              00023c38 f   eboot:udp.obj
 0001:00022efc       DHCPBuildOps               00023efc f   eboot:dhcp.obj
 0001:000230b0       DHCPFindOption             000240b0 f   eboot:dhcp.obj
 0001:000231a8       EbootProcessDHCP           000241a8 f   eboot:dhcp.obj
 0001:000234f0       EbootInitDHCP              000244f0 f   eboot:dhcp.obj
 0001:00023554       EbootDHCPRetransmit        00024554 f   eboot:dhcp.obj
 0001:00023674       SendDHCP                   00024674 f   eboot:dhcp.obj
 0001:00023b00       EbootDHCPDecline           00024b00 f   eboot:dhcp.obj
 0001:00023b80       EbootProcessEDBG           00024b80 f   eboot:edbg.obj
 0001:00023d3c       FillASCII                  00024d3c f   bsp_display:bsp_logo.obj
 0001:00023e70       FillASCIIMode              00024e70 f   bsp_display:bsp_logo.obj
 0001:0002401c       ClearDisplayBuffer         0002501c f   bsp_display:bsp_logo.obj
 0001:00024058       reset_display_controller   00025058 f   bsp_display:bsp_logo.obj
 0001:000240fc       enable_lcd_power           000250fc f   bsp_display:bsp_logo.obj
 0001:00024138       configure_dss              00025138 f   bsp_display:bsp_logo.obj
 0001:00024228       display_lcd_image          00025228 f   bsp_display:bsp_logo.obj
 0001:00024284       LcdStall                   00025284 f   bsp_display:bsp_logo.obj
 0001:00024294       LcdSleep                   00025294 f   bsp_display:bsp_logo.obj
 0001:000242ac       spiWrBitHigh               000252ac f   bsp_display:bsp_logo.obj
 0001:00024300       spiWrBitLow                00025300 f   bsp_display:bsp_logo.obj
 0001:00024354       spi_SendData               00025354 f   bsp_display:bsp_logo.obj
 0001:000243b0       LCD_Initial_Code           000253b0 f   bsp_display:bsp_logo.obj
 0001:00024928       enable_lcd_backlight       00025928 f   bsp_display:bsp_logo.obj
 0001:00024a1c       lcd_config                 00025a1c f   bsp_display:bsp_logo.obj
 0001:00024a60       ShowLogo                   00025a60 f   bsp_display:bsp_logo.obj
 0001:00024cac       BSPGetDebugUARTConfig      00025cac f   bspcfg:bspcfg.obj
 0001:00024cb8       BSPGetNandIrqWait          00025cb8 f   bspcfg:bspcfg.obj
 0001:00024cc0       BSPGetNandCS               00025cc0 f   bspcfg:bspcfg.obj
 0001:00024cc8       BSPGetNandInfo             00025cc8 f   bspcfg:bspcfg.obj
 0001:00024d4c       BSPInsertGpioDevice        00025d4c f   bspcfg:bspcfg.obj
 0001:00024da0       BSPGetGpioDevicesTable     00025da0 f   bspcfg:bspcfg.obj
 0001:00024dac       BSPGetTritonBusID          00025dac f   bspcfg:bspcfg.obj
 0001:00024db4       BSPGetTritonSlaveAddress   00025db4 f   bspcfg:bspcfg.obj
 0001:00024dbc       BSPGetSDHCCardDetect       00025dbc f   bspcfg:bspcfg.obj
 0001:00024dcc       INTERRUPTS_STATUS          00025dcc f   bsp_bootstubs:bsp_bootstubs.obj
 0001:00024dd4       EnterCriticalSection       00025dd4 f   bsp_bootstubs:bsp_bootstubs.obj
 0001:00024dd8       LeaveCriticalSection       00025dd8 f   bsp_bootstubs:bsp_bootstubs.obj
 0001:00024ddc       InitializeCriticalSection  00025ddc f   bsp_bootstubs:bsp_bootstubs.obj
 0001:00024de0       DeleteCriticalSection      00025de0 f   bsp_bootstubs:bsp_bootstubs.obj
 0001:00024de4       EnableDeviceClocks         00025de4 f   bsp_bootstubs:bsp_bootstubs.obj
 0001:00025434       PrcmDeviceGetContextState  00026434 f   bsp_bootstubs:bsp_bootstubs.obj
 0001:0002543c       MmUnmapIoSpace             0002643c f   bsp_bootstubs:bsp_bootstubs.obj
 0001:00025440       MmMapIoSpace               00026440 f   bsp_bootstubs:bsp_bootstubs.obj
 0001:00025454       HalContextUpdateDirtyRegister 00026454 f   bsp_bootstubs:bsp_bootstubs.obj
 0001:00025458       OALStall                   00026458 f   bsp_stall:stall.obj
 0001:00025470       LcdPdd_LCD_InitResolution  00026470 f   bsp_display_init:lcd_qvga.obj
 0001:00025584       LcdPdd_GetMemory           00026584 f   bsp_display_init:lcd_qvga.obj
 0001:000255b8       LcdPdd_LCD_GetMode         000265b8 f   bsp_display_init:lcd_qvga.obj
 0001:0002565c       LcdPdd_SetPowerLevel       0002665c f   bsp_display_init:lcd_qvga.obj
 0001:00025724       LcdPdd_LCD_Initialize      00026724 f   bsp_display_init:lcd_qvga.obj
 0001:000258b4       LcdInitGpio                000268b4 f   bsp_display_init:lcd_support.obj
 0001:00025934       LcdPowerControl            00026934 f   bsp_display_init:lcd_support.obj
 0001:00025968       LcdResBControl             00026968 f   bsp_display_init:lcd_support.obj
 0001:000259a4       OALLogSerial               000269a4 f   oal_log:log.obj
 0001:000259f8       SocSdhcDevconf             000269f8 f   OMAP3530_sdhc_boot:sdhc.obj
 0001:00026014       FileNameToDirEntry         00027014 f   common_ti_boot_fatfs:fileio.obj
 0001:000260e8       FileIoInit                 000270e8 f   common_ti_boot_fatfs:fileio.obj
 0001:00026434       FileIoOpen                 00027434 f   common_ti_boot_fatfs:fileio.obj
 0001:000266b8       PDD_GetDescriptor          000276b8 f   common_ti_ethdrv_rndis:rndis.obj
 0001:00026810       PDD_DoVendorCommand        00027810 f   common_ti_ethdrv_rndis:rndis.obj
 0001:0002692c       SetupEP1Transfer           0002792c f   common_ti_ethdrv_rndis:rndis.obj
 0001:00026a3c       HandleSetupPacket          00027a3c f   common_ti_ethdrv_rndis:rndis.obj
 0001:00026c08       TxComplete                 00027c08 f   common_ti_ethdrv_rndis:rndis.obj
 0001:00026c70       NotifyHandler              00027c70 f   common_ti_ethdrv_rndis:rndis.obj
 0001:000271f8       RegisterUSBDevice          000281f8 f   common_ti_ethdrv_rndis:rndis.obj
 0001:000272c4       PDD_SendRndisMessage       000282c4 f   common_ti_ethdrv_rndis:rndis.obj
 0001:000273cc       PDD_SendRndisPacket        000283cc f   common_ti_ethdrv_rndis:rndis.obj
 0001:000274e4       PDD_Set                    000284e4 f   common_ti_ethdrv_rndis:rndis.obj
 0001:000275fc       PDD_Get                    000285fc f   common_ti_ethdrv_rndis:rndis.obj
 0001:0002771c       PDD_ISR                    0002871c f   common_ti_ethdrv_rndis:rndis.obj
 0001:0002773c       PDD_IndicateRndisPacketComplete 0002873c f   common_ti_ethdrv_rndis:rndis.obj
 0001:00027794       SetRNDISMACAddress         00028794 f   common_ti_ethdrv_rndis:rndis.obj
 0001:000277c8       SetRNDISSerialNumber       000287c8 f   common_ti_ethdrv_rndis:rndis.obj
 0001:00027878       PDDInit                    00028878 f   common_ti_ethdrv_rndis:rndis.obj
 0001:00027af8       strcpy                     00028af8 f   fulllibc:strcpy.obj
 0001:00027bf0       _itoa                      00028bf0 f   fulllibc:xtoa.obj
 0001:00027c28       strncpy                    00028c28 f   fulllibc:astrncpy.obj
 0001:00027cd0       strcat                     00028cd0 f   fulllibc:mdsstrcat.obj
 0001:00027cf8       toupper                    00028cf8 f   fulllibc:toupper.obj
 0001:00027d08       __rt_sdiv                  00028d08 f   fulllibc:__div.obj
 0001:00027de4       PowerOnT2USBTransceiver    00028de4 f   bsp_boot_ethdrv_usbfn:trans.obj
 0001:00027fe8       RequestPHYAccess           00028fe8 f   bsp_boot_ethdrv_usbfn:trans.obj
 0001:00028068       InitTransceiver            00029068 f   bsp_boot_ethdrv_usbfn:trans.obj
 0001:0002823c       InitializeHardware         0002923c f   bsp_boot_ethdrv_usbfn:trans.obj
 0001:000282d0       ResetHardware              000292d0 f   bsp_boot_ethdrv_usbfn:trans.obj
 0001:000282d4       ConnectHardware            000292d4 f   bsp_boot_ethdrv_usbfn:trans.obj
 0001:00028350       DisconnectHardware         00029350 f   bsp_boot_ethdrv_usbfn:trans.obj
 0001:000283cc       EnableUSBClocks            000293cc f   bsp_boot_ethdrv_usbfn:trans.obj
 0001:00028428       ReadFIFO                   00029428 f   common_ti_ethdrv_usbfn:pdd.obj
 0001:000284d0       WriteFIFO                  000294d0 f   common_ti_ethdrv_usbfn:pdd.obj
 0001:00028bc8       GetUniqueDeviceID          00029bc8 f   common_ti_ethdrv_usbfn:pdd.obj
 0001:00028c0c       Device_Disconnect          00029c0c f   common_ti_ethdrv_usbfn:pdd.obj
 0001:00028c64       Device_ResetIRQ            00029c64 f   common_ti_ethdrv_usbfn:pdd.obj
 0001:00028d94       Device_ProcessEP0          00029d94 f   common_ti_ethdrv_usbfn:pdd.obj
 0001:0002920c       Device_ProcessEPx_RX       0002a20c f   common_ti_ethdrv_usbfn:pdd.obj
 0001:00029410       Device_ProcessEPx_TX       0002a410 f   common_ti_ethdrv_usbfn:pdd.obj
 0001:00029610       InterruptThread            0002a610 f   common_ti_ethdrv_usbfn:pdd.obj
 0001:00029730       UfnPdd_IssueTransfer       0002a730 f   common_ti_ethdrv_usbfn:pdd.obj
 0001:00029830       UfnPdd_AbortTransfer       0002a830 f   common_ti_ethdrv_usbfn:pdd.obj
 0001:00029908       UfnPdd_StallEndpoint       0002a908 f   common_ti_ethdrv_usbfn:pdd.obj
 0001:00029980       UfnPdd_ClearEndpointStall  0002a980 f   common_ti_ethdrv_usbfn:pdd.obj
 0001:00029a0c       UfnPdd_IsEndpointHalted    0002aa0c f   common_ti_ethdrv_usbfn:pdd.obj
 0001:00029a80       UfnPdd_SendControlStatusHandshake 0002aa80 f   common_ti_ethdrv_usbfn:pdd.obj
 0001:00029b84       UfnPdd_InitiateRemoteWakeup 0002ab84 f   common_ti_ethdrv_usbfn:pdd.obj
 0001:00029bb4       UfnPdd_PowerDown           0002abb4 f   common_ti_ethdrv_usbfn:pdd.obj
 0001:00029bec       UfnPdd_PowerUp             0002abec f   common_ti_ethdrv_usbfn:pdd.obj
 0001:00029c24       UfnPdd_IOControl           0002ac24 f   common_ti_ethdrv_usbfn:pdd.obj
 0001:00029c70       UfnPdd_Deinit              0002ac70 f   common_ti_ethdrv_usbfn:pdd.obj
 0001:00029ca0       UfnPdd_DeregisterDevice    0002aca0 f   common_ti_ethdrv_usbfn:pdd.obj
 0001:00029ca8       UfnPdd_Stop                0002aca8 f   common_ti_ethdrv_usbfn:pdd.obj
 0001:00029d0c       UfnPdd_DeinitEndpoint      0002ad0c f   common_ti_ethdrv_usbfn:pdd.obj
 0001:00029d14       UfnPdd_InitEndpoint        0002ad14 f   common_ti_ethdrv_usbfn:pdd.obj
 0001:00029d1c       UfnPdd_SetAddress          0002ad1c f   common_ti_ethdrv_usbfn:pdd.obj
 0001:00029d60       UfnPdd_Start               0002ad60 f   common_ti_ethdrv_usbfn:pdd.obj
 0001:00029e20       UfnPdd_RegisterDevice      0002ae20 f   common_ti_ethdrv_usbfn:pdd.obj
 0001:0002a16c       UfnPdd_IsEndpointSupportable 0002b16c f   common_ti_ethdrv_usbfn:pdd.obj
 0001:0002a188       UfnPdd_IsConfigurationSupportable 0002b188 f   common_ti_ethdrv_usbfn:pdd.obj
 0001:0002a274       UfnPdd_Init                0002b274 f   common_ti_ethdrv_usbfn:pdd.obj
 0002:00000000       g_kitlEthLan911x           0002c000     main.obj
 0002:0000002c       g_kitlUsbRndis             0002c02c     main.obj
 0002:00000058       g_kitlDevices              0002c058     main.obj
 0002:000000a0       g_bootDevices              0002c0a0     main.obj
 0002:00000100       DefaultMacAddress          0002c100     main.obj
 0002:00000108       hotkeyColdReset            0002c108     hotkey.obj
 0002:00000220       dispResMenu                0002c220     menu.obj
 0002:00000250       oppModeMenu35x             0002c250     menu.obj
 0002:00000268       oppModeMenu37x             0002c268     menu.obj
 0002:00000278       g_menuFlash                0002c278     flashmenu.obj
 0002:00000380       g_ulFlashBase              0002c380     flash.obj
 0002:00000384       g_ulFlashLengthBytes       0002c384     flash.obj
 0002:00000388       g_ulBPartBase              0002c388     flash.obj
 0002:0000038c       g_ulBPartLengthBytes       0002c38c     flash.obj
 0002:00000390       initialOALLogZones         0002c390     oal_log:debug.obj
 0002:00000398       dpCurSettings              0002c398     oal_log:debug.obj
 0002:00000824       gpmc_ecc_hamming_code      0002c824     common_ti_fmd_nand_boot:gpmc_ecc.obj
 0002:00000834       gpmc_ecc_bch_4bits         0002c834     common_ti_fmd_nand_boot:gpmc_ecc.obj
 0002:00000844       gpmc_ecc_bch_8bits         0002c844     common_ti_fmd_nand_boot:gpmc_ecc.obj
 0002:00000858       OMAPCpuInfo                0002c858     OMAP3530_oalcpuver:oalcpuver.obj
 0002:000008a0       CPUMaxSpeed                0002c8a0     OMAP3530_oalcpuver:oalcpuver.obj
 0002:000008b0       Omap_Gpio                  0002c8b0     common_ti_oal_omap_gpio:omap35xx_gpio.obj
 0002:000009b8       Tps659xx_Gpio              0002c9b8     TPS659xx_oal_gpio:tps659xx_gpio.obj
 0002:00000a00       bRndisSendPacketEmpty      0002ca00     rne_mdd:rndis.obj
 0002:00000a38       RNdisMddSupportedOids      0002ca38     rne_mdd:hostmini.obj
 0002:00000ac8       __security_cookie          0002cac8     gsnull:gsnull.obj
 0002:00000acc       __security_cookie_complement 0002cacc     gsnull:gsnull.obj
 0002:00000ad0       ?g_dwMBRSectorNum@@3KA     0002cad0     bootpart:bootpart.obj
 0002:00000af0       g_dwMeasuredSysClkFreq     0002caf0     bspcfg:bspcfg.obj
 0002:00000af4       _rgScaleTable              0002caf4     bspcfg:bspcfg.obj
 0002:00000b18       _rgI2CDevice               0002cb18     bspcfg:bspcfg.obj
 0002:00000bf8       SupportedNands             0002cbf8     bspcfg:bspcfg.obj
 0002:00000c34       BSPGpioTables              0002cc34     bspcfg:bspcfg.obj
 0002:00000c50       lcd_res_params             0002cc50     bsp_display_init:lcd_qvga.obj
 0002:00000e04       g_InterruptData            0002ce04     common_ti_ethdrv_rndis:rndis.obj
 0002:00001060       g_CPUFamily                0002d060     main.obj
 0002:00001064       gRow                       0002d064     hotkey.obj
 0002:00001068       gColumn                    0002d068     hotkey.obj
 0002:00011080       EdbgDebugZone              0003d080     eth.obj
 0002:0003432c       gpmc_ecc_func              0006032c     common_ti_fmd_nand_boot:gpmc_ecc.obj
 0002:00034340       ?csGpio@@3UCRITICAL_SECTION@@A 00060340     TPS659xx_oal_gpio:tps659xx_gpio.obj
 0002:00034358       ?g_fGpioPostInit@@3HA      00060358     TPS659xx_oal_gpio:tps659xx_gpio.obj
 0002:0003e1c0       ?g_partStateTable@@3PAU_PARTSTATE@@A 0006a1c0     bootpart:bootpart.obj
 0002:0003e1e0       ?g_FlashInfo@@3U_FlashInfo@@A 0006a1e0     bootpart:bootpart.obj
 0002:0003e1f0       ?g_dwDataBytesPerBlock@@3KA 0006a1f0     bootpart:bootpart.obj
 0002:0003e1f4       ?g_dwLastWrittenLoc@@3KA   0006a1f4     bootpart:bootpart.obj
 0002:0003e1f8       ?g_dwLastLogSector@@3KA    0006a1f8     bootpart:bootpart.obj
 0002:0003e1fc       ?g_pSectorInfoBuf@@3PAU_SectorInfo@@A 0006a1fc     bootpart:bootpart.obj
 0002:0003e200       ?g_pbMBRSector@@3PAEA      0006a200     bootpart:bootpart.obj
 0002:0003e204       ?g_pbBlock@@3PAEA          0006a204     bootpart:bootpart.obj
 0002:0003e820       bDoLaunch                  0006a820     eboot:tftpd.obj
 0002:0003e824       TftpPeerAddr               0006a824     eboot:tftpd.obj
 0002:0003eae8       hGpio                      0006aae8     bsp_display:bsp_logo.obj
 0002:0003ee6c       g_pEP1DataWrapper          0006ae6c     common_ti_ethdrv_rndis:rndis.obj
 0002:0003ee70       g_devState                 0006ae70     common_ti_ethdrv_rndis:rndis.obj
 0002:0003ee74       g_EP0TransferState         0006ae74     common_ti_ethdrv_rndis:rndis.obj
 0002:0003ee78       g_EP1TransferState         0006ae78     common_ti_ethdrv_rndis:rndis.obj
 0002:0003ee7c       g_EP2TransferState         0006ae7c     common_ti_ethdrv_rndis:rndis.obj
 0002:0003ee80       g_EP3TransferState         0006ae80     common_ti_ethdrv_rndis:rndis.obj
 0002:0003ee84       gEvent                     0006ae84     <common>
 0002:0003ee88       gDevice_prefix             0006ae88     <common>
 0002:0003eea0       g_eboot                    0006aea0     <common>
 0002:0003efe8       g_ecctype                  0006afe8     <common>
 0002:0003f000       g_bootCfg                  0006b000     <common>
 0002:0003f08c       szSprintf                  0006b08c     <common>
 0002:0003f090       g_pOEMVerifyMemory         0006b090     <common>
 0002:0003f094       g_dwROMOffset              0006b094     <common>
 0002:0003f098       g_pOEMReportError          0006b098     <common>
 0002:0003f09c       g_pOEMMultiBINNotify       0006b09c     <common>
 0002:0003f0a0       g_pOEMCheckSignature       0006b0a0     <common>
 0002:0003f0c0       g_oalCacheInfo             0006b0c0     <common>
 0002:0003f108       map                        0006b108     <common>
 0002:0003f10c       nbBlock                    0006b10c     <common>
 0002:0003f110       poolSize                   0006b110     <common>
 0002:0003f114       pool                       0006b114     <common>
 0002:0003f118       ExtendedPartionBaseSector  0006b118     <common>
 0002:0003f120       MMCcmd                     0006b120     <common>
 0002:0003f1a0       File                       0006b1a0     <common>
 0002:0003f3c4       pFile                      0006b3c4     <common>
 0002:0003f3e0       Request                    0006b3e0     <common>
 0002:0003f440       fileio_ops                 0006b440     <common>
 0002:0003f460       Disk                       0006b460     <common>
 0002:0003f498       m_fFirstTime               0006b498     <common>
 0002:0003f49c       m_dwCPURev                 0006b49c     <common>
 0002:0003f4a0       m_fMMCMode                 0006b4a0     <common>
 0002:0003f4a4       m_dwSlot                   0006b4a4     <common>
 0002:0003f4a8       m_fCardPresent             0006b4a8     <common>
 0002:0003f4ac       m_dwMaxTimeout             0006b4ac     <common>
 0002:0003f4b0       m_fInitialized             0006b4b0     <common>
 0002:0003f4b4       m_fAppCmdMode              0006b4b4     <common>
 0002:0003f4b8       m_fCardInitialized         0006b4b8     <common>
 0002:0003f4bc       g_hGPIO                    0006b4bc     <common>
 0002:0003f4c0       m_dwSDIOCard               0006b4c0     <common>
 0002:0003f4c4       m_pbRegisters              0006b4c4     <common>
 0002:0003f4c8       m_TransferClass            0006b4c8     <common>
 0002:0003f4cc       m_dwMaxClockRate           0006b4cc     <common>
 0002:0003f4e0       g_usbfnpdd                 0006b4e0     <common>
 0002:0003f660       g_EP0DataWrapper           0006b660     <common>
 0002:0003f670       MDDZONE5                   0006b670     <common>
 0002:0003f678       g_mddInterface             0006b678     <common>
 0002:0003f680       g_EP1Transfer              0006b680     <common>
 0002:0003f6a0       g_RndisKitlDev             0006b6a0     <common>
 0002:0003fae8       g_udr                      0006bae8     <common>
 0002:0003faf0       MDDZONE4                   0006baf0     <common>
 0002:0003faf4       PDDZONE                    0006baf4     <common>
 0002:0003fb00       g_EP3Transfer              0006bb00     <common>
 0002:0003fb20       g_pddInterface             0006bb20     <common>
 0002:0003fb80       MDDZONE3                   0006bb80     <common>
 0002:0003fba0       g_EP2Transfer              0006bba0     <common>
 0002:0003fbc0       PDDZONE0                   0006bbc0     <common>
 0002:0003fbe0       g_EP0Transfer              0006bbe0     <common>
 0002:0003fc00       MDDZONE0                   0006bc00     <common>
 0002:0003fc04       MDDZONE                    0006bc04     <common>
 0002:0003fc08       MDDZONE2                   0006bc08     <common>
 0002:0003fc20       RndisMdd                   0006bc20     <common>
 0002:0003fd00       TFtpLinks                  0006bd00     <common>
 0002:000405c0       wOdoWellKnownServerPort    0006c5c0     <common>
 0002:000405c2       nNumTFtpLinksInUse         0006c5c2     <common>
 0002:000405e0       TFTPFrameBuffer            0006c5e0     <common>
 0002:00040a20       TFtpdServerRegistry        0006ca20     <common>
 0002:00040ae8       g_dwLogoPosX               0006cae8     <common>
 0002:00040aec       g_dwLogoPosY               0006caec     <common>
 0002:00040af0       g_dwLogoHeight             0006caf0     <common>
 0002:00040af4       g_dwLogoWidth              0006caf4     <common>

 entry point at        0001:00000000

 Static symbols

 0001:0000ed98       OEMPlatformDeinit          0000fd98 f   main.obj
 0001:0000fbfc       ShowSettings               00010bfc f   menu.obj
 0001:0000fcf8       SetDeviceID                00010cf8 f   menu.obj
 0001:0000fd34       SetRetailMsgMode           00010d34 f   menu.obj
 0001:0000fdbc       SetOPPmode                 00010dbc f   menu.obj
 0001:0000fe90       SaveSettings               00010e90 f   menu.obj
 0001:0000ff5c       ShowFlashGeometry          00010f5c f   flashmenu.obj
 0001:00010158       EraseFlash                 00011158 f   flashmenu.obj
 0001:000102c0       EraseBlock                 000112c0 f   flashmenu.obj
 0001:000104f4       ReserveBlock               000114f4 f   flashmenu.obj
 0001:000106b8       DumpFlash                  000116b8 f   flashmenu.obj
 0001:0001097c       SetBadBlock                0001197c f   flashmenu.obj
 0001:00010a50       FormatFlash                00011a50 f   flashmenu.obj
 0001:00010aa0       EnableFlashNK              00011aa0 f   flashmenu.obj
 0001:00010b28       SetECCType                 00011b28 f   flashmenu.obj
 0001:00010de8       WriteFlashLogo             00011de8 f   flash.obj
 0001:00010f28       DumpTOC                    00011f28 f   flash.obj
 0001:00011204       VerifyImage                00012204 f   flash.obj
 0001:00011478       ReadFlashNK                00012478 f   flash.obj
 0001:000116cc       WriteFlashXLDR             000126cc f   flash.obj
 0001:000118b4       WriteFlashEBOOT            000128b4 f   flash.obj
 0001:0001249c       GetFormatValue             0001349c f   oal_blnk:format.obj
 0001:00012e68       GetImageType               00013e68 f   oal_blcommon:blcommon.obj
 0001:00012fa8       CheckImageManifest         00013fa8 f   oal_blcommon:blcommon.obj
 0001:000130d4       DownloadNB0                000140d4 f   oal_blcommon:blcommon.obj
 0001:000132d4       WriteImageToFlash          000142d4 f   oal_blcommon:blcommon.obj
 0001:000133b4       IsKernelRegion             000143b4 f   oal_blcommon:blcommon.obj
 0001:00013470       DownloadBin                00014470 f   oal_blcommon:blcommon.obj
 0001:00013888       DownloadImage              00014888 f   oal_blcommon:blcommon.obj
 0001:00013ce4       pOutputByte                00014ce4 f   oal_blcommon:format.obj
 0001:00013d14       pOutputNumHex              00014d14 f   oal_blcommon:format.obj
 0001:00013d5c       pOutputNumDecimal          00014d5c f   oal_blcommon:format.obj
 0001:00014460       SeekToBlock                00015460 f   common_ti_oal_flashstore:flashstore.obj
 0001:00014e88       NAND_Read                  00015e88 f   common_ti_fmd_nand_boot:fmd.obj
 0001:00014f88       NAND_Write                 00015f88 f   common_ti_fmd_nand_boot:fmd.obj
 0001:00015090       NAND_Enable                00016090 f   common_ti_fmd_nand_boot:fmd.obj
 0001:00015c50       NAND_Initialize            00016c50 f   common_ti_fmd_nand_boot:fmd.obj
 0001:00015f88       Hamming_ECC_Init           00016f88 f   common_ti_fmd_nand_boot:gpmc_ecc.obj
 0001:00015fb8       Hamming_ECC_Calculate      00016fb8 f   common_ti_fmd_nand_boot:gpmc_ecc.obj
 0001:00016020       Hamming_ECC_Reset          00017020 f   common_ti_fmd_nand_boot:gpmc_ecc.obj
 0001:00016030       Hamming_ECC_CorrectData    00017030 f   common_ti_fmd_nand_boot:gpmc_ecc.obj
 0001:00016148       BCH4_ECC_Init              00017148 f   common_ti_fmd_nand_boot:gpmc_ecc.obj
 0001:000161c0       BCH4_ECC_Calculate         000171c0 f   common_ti_fmd_nand_boot:gpmc_ecc.obj
 0001:00016260       BCH4_ECC_Reset             00017260 f   common_ti_fmd_nand_boot:gpmc_ecc.obj
 0001:00016270       BCH8_ECC_Init              00017270 f   common_ti_fmd_nand_boot:gpmc_ecc.obj
 0001:000162e8       BCH8_ECC_Calculate         000172e8 f   common_ti_fmd_nand_boot:gpmc_ecc.obj
 0001:000163e8       BCH8_ECC_Reset             000173e8 f   common_ti_fmd_nand_boot:gpmc_ecc.obj
 0001:00016528       BCH_correct_data           00017528 f   common_ti_fmd_nand_boot:gpmc_ecc.obj
 0001:00016684       BCH4_ECC_CorrectData       00017684 f   common_ti_fmd_nand_boot:gpmc_ecc.obj
 0001:000166b8       BCH8_ECC_CorrectData       000176b8 f   common_ti_fmd_nand_boot:gpmc_ecc.obj
 0001:000166ec       mpy_mod_gf                 000176ec f   common_ti_fmd_nand_boot:omap_bch_decoder.obj
 0001:0001674c       chien                      0001774c f   common_ti_fmd_nand_boot:omap_bch_decoder.obj
 0001:000169ac       berlekamp                  000179ac f   common_ti_fmd_nand_boot:omap_bch_decoder.obj
 0001:00016c1c       syndrome                   00017c1c f   common_ti_fmd_nand_boot:omap_bch_decoder.obj
 0001:00017158       I2CResetDevice             00018158 f   common_ti_oali2c:oali2c.obj
 0001:00017410       I2CTransaction             00018410 f   common_ti_oali2c:oali2c.obj
 0001:00017e64       GetGroupByID               00018e64 f   common_ti_oal_gpiodispatch:gpio_dispatch.obj
 0001:00018130       ?OmapGpioPostInit@@YAHPAX@Z 00019130 f   common_ti_oal_omap_gpio:omap35xx_gpio.obj
 0001:00018188       ?OmapGpioDeinit@@YAHPAX@Z  00019188 f   common_ti_oal_omap_gpio:omap35xx_gpio.obj
 0001:00018258       ?OmapGpioSetMode@@YAHPAXII@Z 00019258 f   common_ti_oal_omap_gpio:omap35xx_gpio.obj
 0001:00018380       ?OmapGpioGetMode@@YAKPAXI@Z 00019380 f   common_ti_oal_omap_gpio:omap35xx_gpio.obj
 0001:00018474       ?OmapGpioPullup@@YAHPAXII@Z 00019474 f   common_ti_oal_omap_gpio:omap35xx_gpio.obj
 0001:0001847c       ?OmapGpioPulldown@@YAHPAXII@Z 0001947c f   common_ti_oal_omap_gpio:omap35xx_gpio.obj
 0001:00018484       ?OmapGpioSetBit@@YAHPAXI@Z 00019484 f   common_ti_oal_omap_gpio:omap35xx_gpio.obj
 0001:0001853c       ?OmapGpioClrBit@@YAHPAXI@Z 0001953c f   common_ti_oal_omap_gpio:omap35xx_gpio.obj
 0001:000185f4       ?OmapGpioGetBit@@YAKPAXI@Z 000195f4 f   common_ti_oal_omap_gpio:omap35xx_gpio.obj
 0001:000186a0       ?OmapGpioIoControl@@YAHPAXIPAEI1IPAK@Z 000196a0 f   common_ti_oal_omap_gpio:omap35xx_gpio.obj
 0001:000186a8       ?OmapGpioInit@@YAHPBGPAPAXPAI@Z 000196a8 f   common_ti_oal_omap_gpio:omap35xx_gpio.obj
 0001:00018800       ?WriteTwlReg@@YAHKPAEI@Z   00019800 f   TPS659xx_oal_gpio:tps659xx_gpio.obj
 0001:00018858       ?ReadTwlReg@@YAHKPAEI@Z    00019858 f   TPS659xx_oal_gpio:tps659xx_gpio.obj
 0001:000188b0       ?Tps659xxGpioInit@@YAHPBGPAPAXPAI@Z 000198b0 f   TPS659xx_oal_gpio:tps659xx_gpio.obj
 0001:000188c0       ?Tps659xxGpioPostInit@@YAHPAX@Z 000198c0 f   TPS659xx_oal_gpio:tps659xx_gpio.obj
 0001:000188e8       ?Tps659xxGpioDeinit@@YAHPAX@Z 000198e8 f   TPS659xx_oal_gpio:tps659xx_gpio.obj
 0001:00018928       ?Tps659xxGpioSetMode@@YAHPAXII@Z 00019928 f   TPS659xx_oal_gpio:tps659xx_gpio.obj
 0001:00018a90       ?Tps659xxGpioGetMode@@YAKPAXI@Z 00019a90 f   TPS659xx_oal_gpio:tps659xx_gpio.obj
 0001:00018b60       ?Tps659xxGpioPullup@@YAHPAXII@Z 00019b60 f   TPS659xx_oal_gpio:tps659xx_gpio.obj
 0001:00018c14       ?Tps659xxGpioPulldown@@YAHPAXII@Z 00019c14 f   TPS659xx_oal_gpio:tps659xx_gpio.obj
 0001:00018cc8       ?Tps659xxGpioSetBit@@YAHPAXI@Z 00019cc8 f   TPS659xx_oal_gpio:tps659xx_gpio.obj
 0001:00018d20       ?Tps659xxGpioClrBit@@YAHPAXI@Z 00019d20 f   TPS659xx_oal_gpio:tps659xx_gpio.obj
 0001:00018d78       ?Tps659xxGpioGetBit@@YAKPAXI@Z 00019d78 f   TPS659xx_oal_gpio:tps659xx_gpio.obj
 0001:00018dd4       ?Tps659xxGpioIoControl@@YAHPAXIPAEI1IPAK@Z 00019dd4 f   TPS659xx_oal_gpio:tps659xx_gpio.obj
 0001:0001aa68       InitializeHardware         0001ba68 f   common_ti_boot_sdhc:sdhc.obj
 0001:0001aba4       MmcReset                   0001bba4 f   common_ti_boot_sdhc:sdhc.obj
 0001:0001ad7c       SendInitSequence           0001bd7c f   common_ti_boot_sdhc:sdhc.obj
 0001:0001ae48       SendCommand                0001be48 f   common_ti_boot_sdhc:sdhc.obj
 0001:0001b100       GetCommandResponse         0001c100 f   common_ti_boot_sdhc:sdhc.obj
 0001:0001b25c       SDIPollingReceive          0001c25c f   common_ti_boot_sdhc:sdhc.obj
 0001:0001b550       CommandCompleteHandler     0001c550 f   common_ti_boot_sdhc:sdhc.obj
 0001:0001b808       SdhcControllerInit         0001c808 f   common_ti_boot_sdhc:sdhc.obj
 0001:0001b9b4       ReadPhy                    0001c9b4 f   common_ti_ethdrv_lan911x:lan911x.obj
 0001:00020048       LBAtoCHS                   00021048 f   bootpart:bootpart.obj
 0001:000200d0       AddPartitionTableEntry     000210d0 f   bootpart:bootpart.obj
 0001:000201f0       LastLogSector              000211f0 f   bootpart:bootpart.obj
 0001:00020284       Log2Phys                   00021284 f   bootpart:bootpart.obj
 0001:00020370       FindFreeSector             00021370 f   bootpart:bootpart.obj
 0001:00020430       ?AreSectorsFree@@YAHKK@Z   00021430 f   bootpart:bootpart.obj
 0001:00020518       ReadBlock                  00021518 f   bootpart:bootpart.obj
 0001:00020598       WriteBlock                 00021598 f   bootpart:bootpart.obj
 0001:00020d38       ?WriteMBR@@YAHXZ           00021d38 f   bootpart:bootpart.obj
 0001:00020e54       WriteLogicalNumbers        00021e54 f   bootpart:bootpart.obj
 0001:00020f80       CreatePartition            00021f80 f   bootpart:bootpart.obj
 0001:00022680       CRC                        00023680 f   eboot:udp.obj
 0001:00022e3c       FormatDHCPName             00023e3c f   eboot:dhcp.obj
 0001:00025abc       BpbCopy                    00026abc f   common_ti_boot_fatfs:fileio.obj
 0001:00025c2c       FileIoReadNextSectors      00026c2c f   common_ti_boot_fatfs:fileio.obj
 0001:00026654       PDD_SendNotification       00027654 f   common_ti_ethdrv_rndis:rndis.obj
 0001:00026680       PDD_RecvNotification       00027680 f   common_ti_ethdrv_rndis:rndis.obj
 0001:00027b7c       xtoa                       00028b7c f   fulllibc:xtoa.obj
 0001:000285ac       ContinueTxTransfer         000295ac f   common_ti_ethdrv_usbfn:pdd.obj
 0001:000288dc       StartRxTransfer            000298dc f   common_ti_ethdrv_usbfn:pdd.obj
