 xldrnand

 Timestamp is 5269ec7a (Fri Oct 25 11:58:50 2013)

 Preferred load address is 00010000

 Start         Length     Name                   Class
 0001:00000000 0000019cH .astart                 CODE
 0001:000001a0 00001ba0H .rdata                  CODE
 0001:00001d40 00000025H .rdata$debug            CODE
 0001:00001d68 000059e4H .text                   CODE
 0001:0000774c 00000004H .xdata                  CODE
 0001:00007750 00000000H .edata                  CODE
 0002:00000000 000002dcH .data                   DATA
 0002:000002e0 00000308H .bss                    DATA
 0003:00000000 00000380H .pdata                  DATA

  Address         Publics by Value              Rva+Base       Lib:Object

 0000:00000000       ___safe_se_handler_count   00000000     <absolute>
 0000:00000000       ___safe_se_handler_table   00000000     <absolute>
 0001:00000000       StartUp                    00011000 f   startup.obj
 0001:00000054       EnableCache_GP             00011054 f   startup.obj
 0001:000000b0       EnableCache_HS             000110b0 f   startup.obj
 0001:00000138       CopyCode                   00011138 f   startup.obj
 0001:00000250       pTOC                       00011250     main.obj
 0001:00000254       dwOEMHighSecurity          00011254     main.obj
 0001:00000258       dwEbootECCtype             00011258     main.obj
 0001:0000025c       ??_C@_1BC@MABDLOIF@?$AA?$AN?$AA?6?$AAH?$AAA?$AAL?$AAT?$AA?$AN?$AA?6?$AA?$AA@ 0001125c     main.obj
 0001:00000270       ??_C@_1DE@IMNGKPHE@?$AA?$AN?$AA?6?$AAJ?$AAu?$AAm?$AAp?$AAi?$AAn?$AAg?$AA?5?$AAt?$AAo?$AA?5?$AAb?$AAo?$AAo?$AAt?$AAl?$AAo?$AAa?$AAd?$AAe?$AAr?$AA?$AN?$AA?6?$AA?$AA@ 00011270     main.obj
 0001:000002a4       ??_C@_13JOFGPIOO@?$AA?4?$AA?$AA@ 000112a4     main.obj
 0001:000002a8       ??_C@_13PBOLBIIK@?$AA$?$AA?$AA@ 000112a8     main.obj
 0001:000002ac       ??_C@_13GMDMCADD@?$AA?$CD?$AA?$AA@ 000112ac     main.obj
 0001:000002b0       ??_C@_1CO@MAFCCJBC@?$AA?$AN?$AA?6?$AAF?$AAM?$AAD?$AA_?$AAG?$AAe?$AAt?$AAI?$AAn?$AAf?$AAo?$AA?5?$AAf?$AAa?$AAi?$AAl?$AAe?$AAd?$AA?$AN?$AA?6?$AA?$AA@ 000112b0     main.obj
 0001:000002e0       ??_C@_1CI@HOAHMIF@?$AA?$AN?$AA?6?$AAF?$AAM?$AAD?$AA_?$AAI?$AAn?$AAi?$AAt?$AA?5?$AAf?$AAa?$AAi?$AAl?$AAe?$AAd?$AA?$AN?$AA?6?$AA?$AA@ 000112e0     main.obj
 0001:00000308       ??_C@_1GG@MOBLLCID@?$AA?$AN?$AA?6?$AAZ?$AAE?$AAB?$AAE?$AAX?$AA?5?$AAW?$AAi?$AAn?$AAd?$AAo?$AAw?$AAs?$AA?5?$AAC?$AAE?$AA?5?$AAN?$AAA?$AAN?$AAD?$AA?5?$AAX?$AA?9?$AAL?$AAo?$AAa?$AAd?$AAe?$AAr@ 00011308     main.obj
 0001:00000370       ??_C@_1EE@LAKIEGIG@?$AA?$AN?$AA?6?$AAB?$AAu?$AAi?$AAl?$AAt?$AA?5?$AAO?$AAc?$AAt?$AA?5?$AA2?$AA5?$AA?5?$AA2?$AA0?$AA1?$AA3?$AA?5?$AAa?$AAt?$AA?5?$AA1?$AA1?$AA?3?$AA5?$AA8?$AA?3?$AA4?$AA8?$AA?5@ 00011370     main.obj
 0001:000003b4       ??_C@_17KPMHKKFB@?$AA?$CJ?$AA?$AN?$AA?6?$AA?$AA@ 000113b4     main.obj
 0001:000003bc       ??_C@_1CC@DJCPIFGO@?$AAV?$AAe?$AAr?$AAs?$AAi?$AAo?$AAn?$AA?3?$AA?5?$AA0?$AA?4?$AA0?$AA?4?$AA1?$AA?$AN?$AA?6?$AA?$AA@ 000113bc     main.obj
 0001:000003e0       ??_C@_19PONNFJAB@?$AA3?$AA7?$AAX?$AAX?$AA?$AA@ 000113e0     main.obj
 0001:000003ec       ??_C@_19CAFJHOAJ@?$AA3?$AA5?$AA3?$AA0?$AA?$AA@ 000113ec     main.obj
 0001:000007e8       ??_C@_1EA@CJMKJJJH@?$AAO?$AAA?$AAL?$AAL?$AAo?$AAc?$AAa?$AAl?$AAA?$AAl?$AAl?$AAo?$AAc?$AA?5?$AAr?$AAe?$AAt?$AAu?$AAr?$AAn?$AAe?$AAd?$AA?5?$AAN?$AAU?$AAL?$AAL?$AA?5?$AA?$CB?$AA?$AN?$AA?6?$AA?$AA@ 000117e8     common_ti_oal_alloc:alloc.obj
 0001:000008b8       ??_C@_1KI@MDFCMHMG@?$AAC?$AA?3?$AA?2?$AAW?$AAI?$AAN?$AAC?$AAE?$AA6?$AA0?$AA0?$AA?2?$AAP?$AAL?$AAA?$AAT?$AAF?$AAO?$AAR?$AAM?$AA?2?$AAC?$AAO?$AAM?$AAM?$AAO?$AAN?$AA?2?$AAS?$AAR?$AAC?$AA?2@ 000118b8     common_ti_fmd_nand_boot:fmd.obj
 0001:00000960       ??_C@_1CI@OHCJFJPM@?$AAE?$AAR?$AAR?$AAO?$AAR?$AA?3?$AA?5?$AA?$CF?$AAs?$AA?5?$AAl?$AAi?$AAn?$AAe?$AA?5?$AA?$CF?$AAd?$AA?3?$AA?5?$AA?$AA@ 00011960     common_ti_fmd_nand_boot:fmd.obj
 0001:00000988       ??_C@_1HG@DCOIKHPB@?$AAF?$AAM?$AAD?$AA?5?$AAd?$AAr?$AAi?$AAv?$AAe?$AAr?$AA?5?$AAs?$AAu?$AAp?$AAp?$AAo?$AAr?$AAt?$AAs?$AA?5?$AAo?$AAn?$AAl?$AAy?$AA?5?$AA1?$AA6?$AAb?$AAi?$AAt?$AAs?$AA?5@ 00011988     common_ti_fmd_nand_boot:fmd.obj
 0001:00000a00       ??_C@_1DK@CAAJGKFH@?$AAI?$AAn?$AAc?$AAo?$AAr?$AAr?$AAe?$AAc?$AAt?$AA?5?$AAE?$AAC?$AAC?$AA?5?$AAt?$AAy?$AAp?$AAe?$AA?5?$AAs?$AAe?$AAt?$AAt?$AAi?$AAn?$AAg?$AA?$AN?$AA?6?$AA?$AA@ 00011a00     common_ti_fmd_nand_boot:fmd.obj
 0001:00000ad0       ??_C@_1EA@JNFKONCC@?$AAE?$AAr?$AAr?$AAo?$AAr?$AA?3?$AA?5?$AAU?$AAn?$AAr?$AAe?$AAc?$AAo?$AAg?$AAn?$AAi?$AAz?$AAe?$AAd?$AA?5?$AAM?$AAo?$AAd?$AAe?$AA?$FL?$AA?$CF?$AAd?$AA?$FN?$AA?$CB?$AA?$AN?$AA?6?$AA?$AA@ 00011ad0     common_ti_fmd_nand_boot:gpmc_ecc.obj
 0001:00000b10       ??_C@_1EI@LMGHLBK@?$AAE?$AAC?$AAC?$AA_?$AAI?$AAn?$AAi?$AAt?$AA?3?$AA?5?$AAu?$AAn?$AAs?$AAu?$AAp?$AAp?$AAo?$AAr?$AAt?$AAe?$AAd?$AA?5?$AAe?$AAc?$AAc?$AA?5?$AAm?$AAo?$AAd?$AAe?$AA?3?$AA?$CF@ 00011b10     common_ti_fmd_nand_boot:gpmc_ecc.obj
 0001:00000c80       ??_C@_1KM@EEHAFCCJ@?$AAC?$AA?3?$AA?2?$AAW?$AAI?$AAN?$AAC?$AAE?$AA6?$AA0?$AA0?$AA?2?$AAP?$AAL?$AAA?$AAT?$AAF?$AAO?$AAR?$AAM?$AA?2?$AAC?$AAO?$AAM?$AAM?$AAO?$AAN?$AA?2?$AAS?$AAR?$AAC?$AA?2@ 00011c80     common_ti_oali2c:oali2c.obj
 0001:00000d2c       ??_C@_1CC@EHKJMBJI@?$AAD?$AAe?$AAv?$AAi?$AAc?$AAe?$AA?5?$AAn?$AAo?$AAt?$AA?5?$AAf?$AAo?$AAu?$AAn?$AAd?$AA?$AA@ 00011d2c     common_ti_oali2c:oali2c.obj
 0001:00000d50       ??_C@_1KA@GOKKFLEJ@?$AAW?$AAA?$AAR?$AAN?$AA?3?$AA?5?$AAI?$AA2?$AAC?$AA?3?$AA?3?$AAI?$AA2?$AAC?$AAP?$AAo?$AAl?$AAl?$AAS?$AAt?$AAa?$AAt?$AAu?$AAs?$AA?5?$AA?9?$AA?5?$AAc?$AAh?$AAe?$AAc?$AAk@ 00011d50     common_ti_oali2c:oali2c.obj
 0001:00000df0       ??_C@_1GK@FLELOHLG@?$AAW?$AAA?$AAR?$AAN?$AA?3?$AA?5?$AAI?$AA2?$AAC?$AA?3?$AA?3?$AAI?$AA2?$AAC?$AAR?$AAe?$AAs?$AAe?$AAt?$AAD?$AAe?$AAv?$AAi?$AAc?$AAe?$AA?5?$AA?9?$AA?5?$AAf?$AAa?$AAi?$AAl@ 00011df0     common_ti_oali2c:oali2c.obj
 0001:00000e60       ??_C@_1GO@NCGHHJFM@?$AAW?$AAA?$AAR?$AAN?$AA?3?$AA?5?$AAI?$AA2?$AAC?$AA?3?$AA?5?$AAW?$AAr?$AAi?$AAt?$AAe?$AA?5?$AAf?$AAa?$AAi?$AAl?$AAe?$AAd?$AA?5?$AA?$CI?$AAS?$AAA?$AA?$DN?$AA0?$AAx?$AA?$CF?$AA0@ 00011e60     common_ti_oali2c:oali2c.obj
 0001:00000ed0       ??_C@_1CO@EBLPIMOB@?$AAW?$AAr?$AAi?$AAt?$AAe?$AA?3?$AA?5?$AAA?$AAt?$AAt?$AAe?$AAm?$AAp?$AAt?$AAs?$AA?5?$AA?$DN?$AA?5?$AA?$CF?$AAd?$AA?$AN?$AA?6?$AA?$AA@ 00011ed0     common_ti_oali2c:oali2c.obj
 0001:000010b0       ??_C@_15BMCNAON@?$AAR?$AAX?$AA?$AA@ 000120b0     OMAP3530_soccfg:devicemap.obj
 0001:000010b8       ??_C@_15NHJLDDPA@?$AAT?$AAX?$AA?$AA@ 000120b8     OMAP3530_soccfg:devicemap.obj
 0001:000010c0       ??_C@_17GHFABBII@?$AAM?$AAM?$AAU?$AA?$AA@ 000120c0     OMAP3530_soccfg:devicemap.obj
 0001:000010c8       ??_C@_19EMJFMDEF@?$AAI?$AAR?$AAQ?$AA3?$AA?$AA@ 000120c8     OMAP3530_soccfg:devicemap.obj
 0001:000010d4       ??_C@_19PECJKECA@?$AAI?$AAR?$AAQ?$AA2?$AA?$AA@ 000120d4     OMAP3530_soccfg:devicemap.obj
 0001:000010e0       ??_C@_19OGJMALMO@?$AAI?$AAR?$AAQ?$AA1?$AA?$AA@ 000120e0     OMAP3530_soccfg:devicemap.obj
 0001:000010ec       ??_C@_19FOCAGMKL@?$AAI?$AAR?$AAQ?$AA0?$AA?$AA@ 000120ec     OMAP3530_soccfg:devicemap.obj
 0001:000010f8       ??_C@_1BC@JBFPJMDB@?$AAo?$AAv?$AAe?$AAr?$AAf?$AAl?$AAo?$AAw?$AA?$AA@ 000120f8     OMAP3530_soccfg:devicemap.obj
 0001:000011a0       s_DeviceAddressMap         000121a0     OMAP3530_soccfg:devicemap.obj
 0001:000013a0       s_DeviceIrqMap             000123a0     OMAP3530_soccfg:devicemap.obj
 0001:000017e8       ??_C@_1HK@FIHOCGBD@?$AAE?$AAR?$AAR?$AAO?$AAR?$AA?3?$AA?5?$AAG?$AAI?$AAO?$AA_?$AAI?$AAn?$AAi?$AAt?$AA?3?$AA?5?$AAF?$AAa?$AAi?$AAl?$AAe?$AAd?$AA?5?$AAt?$AAo?$AA?5?$AAi?$AAn?$AAi?$AAt?$AAi@ 000127e8     common_ti_oal_gpiodispatch:gpio_dispatch.obj
 0001:00001864       ??_C@_19NNFDHLJH@?$AAb?$AAo?$AAo?$AAt?$AA?$AA@ 00012864     common_ti_oal_gpiodispatch:gpio_dispatch.obj
 0001:00001910       I2CDefaultI2CTimeout       00012910     bspcfg:bspcfg.obj
 0001:00001918       g_BSP_icL1Level            00012918     bspcfg:bspcfg.obj
 0001:00001a98       ??_C@_1HI@JDGLDLD@?$AAN?$AAA?$AAN?$AAD?$AA?5?$AAm?$AAa?$AAn?$AAu?$AAf?$AAa?$AAc?$AAt?$AAu?$AAr?$AAe?$AAr?$AA?5?$AA?$CF?$AAx?$AA?5?$AAd?$AAe?$AAv?$AAi?$AAc?$AAe?$AA?5?$AA?$CF?$AAx?$AA?5?$AA?3@ 00012a98     bspcfg:bspcfg.obj
 0001:00001b10       ??_C@_1FM@KNJBBMEO@?$AAN?$AAA?$AAN?$AAD?$AA?5?$AAm?$AAa?$AAn?$AAu?$AAf?$AAa?$AAc?$AAt?$AAu?$AAr?$AAe?$AAr?$AA?5?$AAI?$AAD?$AA?3?$AA?5?$AA0?$AAx?$AA?$CF?$AAx?$AA?5?$AA?5?$AAd?$AAe?$AAv?$AAi@ 00012b10     bspcfg:bspcfg.obj
 0001:00001c90       ??_C@_1BO@CFFFPGIM@?$AAI?$AAn?$AAi?$AAt?$AAT?$AAw?$AAl?$AAP?$AAo?$AAw?$AAe?$AAr?$AA?$AN?$AA?6?$AA?$AA@ 00012c90     bsp_tps659xx:bsp_tps659xx.obj
 0001:00001d68       BSPGpioInit                00012d68 f   main.obj
 0001:00001d88       OALPAtoVA                  00012d88 f   main.obj
 0001:00001d8c       NKDbgPrintfW               00012d8c f   main.obj
 0001:00001da0       XLDRMain                   00012da0 f   main.obj
 0001:00002074       OALGetTickCount            00013074 f   platform.obj
 0001:0000207c       Mpu_dpll_init              0001307c f   platform.obj
 0001:000020f4       Iva_dpll_init              000130f4 f   platform.obj
 0001:00002180       Omap37xx_dpll4_init        00013180 f   platform.obj
 0001:00002214       Omap37xx_core_dpll_init    00013214 f   platform.obj
 0001:00002258       Omap37xx_per_dpll_init     00013258 f   platform.obj
 0001:000024e8       PlatformSetup              000134e8 f   platform.obj
 0001:000027dc       JumpTo                     000137dc f   jumpto.obj
 0001:000027e0       OALLocalAllocInit          000137e0 f   common_ti_oal_alloc:alloc.obj
 0001:00002848       OALLocalAlloc              00013848 f   common_ti_oal_alloc:alloc.obj
 0001:00002938       OALLocalFree               00013938 f   common_ti_oal_alloc:alloc.obj
 0001:00002b0c       NAND_CorrectEccData        00013b0c f   common_ti_fmd_nand_boot:fmd.obj
 0001:00002b78       FMD_Deinit                 00013b78 f   common_ti_fmd_nand_boot:fmd.obj
 0001:00002bfc       FMD_GetInfo                00013bfc f   common_ti_fmd_nand_boot:fmd.obj
 0001:00002c64       FMD_ReadSector             00013c64 f   common_ti_fmd_nand_boot:fmd.obj
 0001:00003054       FMD_GetBlockStatus         00014054 f   common_ti_fmd_nand_boot:fmd.obj
 0001:000032e4       FMD_Init                   000142e4 f   common_ti_fmd_nand_boot:fmd.obj
 0001:00003780       ECC_Init                   00014780 f   common_ti_fmd_nand_boot:gpmc_ecc.obj
 0001:0000381c       ECC_Result                 0001481c f   common_ti_fmd_nand_boot:gpmc_ecc.obj
 0001:00003844       ECC_Reset                  00014844 f   common_ti_fmd_nand_boot:gpmc_ecc.obj
 0001:0000386c       ECC_CorrectData            0001486c f   common_ti_fmd_nand_boot:gpmc_ecc.obj
 0001:00004144       decode_bch                 00015144 f   common_ti_fmd_nand_boot:omap_bch_decoder.obj
 0001:000041d0       OEMInitDebugSerial         000151d0 f   common_ti_debugserial:debugserial.obj
 0001:00004264       OEMDeinitDebugSerial       00015264 f   common_ti_debugserial:debugserial.obj
 0001:000042b0       OEMWriteDebugByte          000152b0 f   common_ti_debugserial:debugserial.obj
 0001:000042f8       OEMWriteDebugString        000152f8 f   common_ti_debugserial:debugserial.obj
 0001:00004324       I2CLock                    00015324 f   common_ti_oali2c:oali2c.obj
 0001:0000436c       I2CUnlock                  0001536c f   common_ti_oali2c:oali2c.obj
 0001:000043b4       I2CPollStatus              000153b4 f i common_ti_oali2c:oali2c.obj
 0001:00004548       OALI2CInit                 00015548 f   common_ti_oali2c:oali2c.obj
 0001:00004634       OALI2CPostInit             00015634 f   common_ti_oali2c:oali2c.obj
 0001:00004694       I2CSetSlaveAddress         00015694 f   common_ti_oali2c:oali2c.obj
 0001:000046a0       I2COpen                    000156a0 f   common_ti_oali2c:oali2c.obj
 0001:0000476c       I2CClose                   0001576c f   common_ti_oali2c:oali2c.obj
 0001:00004c04       I2CWrite                   00015c04 f   common_ti_oali2c:oali2c.obj
 0001:00004dd0       Get_CPUVersion             00015dd0 f   OMAP3530_oalcpuver:oalcpuver.obj
 0001:00004f80       GetAddressByDevice         00015f80 f   common_ti_devicesmap:devicemap.obj
 0001:00004fd0       SOCGetGPIODeviceByBank     00015fd0 f   OMAP3530_soccfg:soccfg.obj
 0001:00005030       SOCGetGPMCAddress          00016030 f   OMAP3530_soccfg:soccfg.obj
 0001:00005038       SOCSetPadConfig            00016038 f   OMAP3530_oal_padcfg:soc_padcfg.obj
 0001:00005810       GPIOInit                   00016810 f   common_ti_oal_gpiodispatch:gpio_dispatch.obj
 0001:000058a8       GPIOOpen                   000168a8 f   common_ti_oal_gpiodispatch:gpio_dispatch.obj
 0001:000058b8       GPIOClrBit                 000168b8 f   common_ti_oal_gpiodispatch:gpio_dispatch.obj
 0001:00005910       GPIOSetMode                00016910 f   common_ti_oal_gpiodispatch:gpio_dispatch.obj
 0001:00005970       BSPGetDebugUARTConfig      00016970 f   bspcfg:bspcfg.obj
 0001:0000597c       BSPGetNandIrqWait          0001697c f   bspcfg:bspcfg.obj
 0001:00005984       BSPGetNandCS               00016984 f   bspcfg:bspcfg.obj
 0001:0000598c       BSPGetNandInfo             0001698c f   bspcfg:bspcfg.obj
 0001:00005a10       BSPInsertGpioDevice        00016a10 f   bspcfg:bspcfg.obj
 0001:00005a64       BSPGetGpioDevicesTable     00016a64 f   bspcfg:bspcfg.obj
 0001:00005a70       BSPGetTritonBusID          00016a70 f   bspcfg:bspcfg.obj
 0001:00005a78       BSPGetTritonSlaveAddress   00016a78 f   bspcfg:bspcfg.obj
 0001:00005a80       INTERRUPTS_STATUS          00016a80 f   bsp_bootstubs:bsp_bootstubs.obj
 0001:00005a88       EnterCriticalSection       00016a88 f   bsp_bootstubs:bsp_bootstubs.obj
 0001:00005a8c       LeaveCriticalSection       00016a8c f   bsp_bootstubs:bsp_bootstubs.obj
 0001:00005a90       InitializeCriticalSection  00016a90 f   bsp_bootstubs:bsp_bootstubs.obj
 0001:00005a94       DeleteCriticalSection      00016a94 f   bsp_bootstubs:bsp_bootstubs.obj
 0001:00005a98       EnableDeviceClocks         00016a98 f   bsp_bootstubs:bsp_bootstubs.obj
 0001:000060e8       PrcmDeviceGetContextState  000170e8 f   bsp_bootstubs:bsp_bootstubs.obj
 0001:000060f0       MmUnmapIoSpace             000170f0 f   bsp_bootstubs:bsp_bootstubs.obj
 0001:000060f4       MmMapIoSpace               000170f4 f   bsp_bootstubs:bsp_bootstubs.obj
 0001:00006108       HalContextUpdateDirtyRegister 00017108 f   bsp_bootstubs:bsp_bootstubs.obj
 0001:0000610c       OALStall                   0001710c f   bsp_stall:stall.obj
 0001:00006124       InitTwlPower               00017124 f   bsp_tps659xx:bsp_tps659xx.obj
 0001:000066b4       __report_gsfailure         000176b4 f   gsnull:gsnull.obj
 0001:000066b8       memset                     000176b8 f   fulllibc:memset.obj
 0001:00006740       memcpy                     00017740 f   fulllibc:memcpy.obj
 0001:00006aec       memcpybigblk               00017aec f   fulllibc:memcpy.obj
 0001:000074a0       memcmp                     000184a0 f   fulllibc:memcmp.obj
 0001:0000756c       __GSHandlerCheckCommon     0001856c f   fulllibc:gshandler.obj
 0001:000075a8       __GSHandlerCheck           000185a8 f   fulllibc:gshandler.obj
 0001:000075cc       __security_check_cookie    000185cc f   fulllibc:armsecgs.obj
 0001:000075e0       __gsfailure                000185e0 f   fulllibc:armsecgs.obj
 0001:00007624       TWLOpen                    00018624 f   triton_oal:twl_access.obj
 0001:00007684       TWLClose                   00018684 f   triton_oal:twl_access.obj
 0001:000076c0       TWLWriteRegs               000186c0 f   triton_oal:twl_access.obj
 0002:00000000       OMAP37x_OPP_Table          00019000     platform.obj
 0002:00000040       BSP_DDR_device_params      00019040     platform.obj
 0002:000000a0       gpmc_ecc_hamming_code      000190a0     common_ti_fmd_nand_boot:gpmc_ecc.obj
 0002:000000b0       gpmc_ecc_bch_4bits         000190b0     common_ti_fmd_nand_boot:gpmc_ecc.obj
 0002:000000c0       gpmc_ecc_bch_8bits         000190c0     common_ti_fmd_nand_boot:gpmc_ecc.obj
 0002:000000d8       OMAPCpuInfo                000190d8     OMAP3530_oalcpuver:oalcpuver.obj
 0002:00000120       CPUMaxSpeed                00019120     OMAP3530_oalcpuver:oalcpuver.obj
 0002:00000130       Omap_Gpio                  00019130     common_ti_oal_omap_gpio:omap35xx_gpio.obj
 0002:00000178       g_dwMeasuredSysClkFreq     00019178     bspcfg:bspcfg.obj
 0002:0000017c       _rgScaleTable              0001917c     bspcfg:bspcfg.obj
 0002:000001a0       _rgI2CDevice               000191a0     bspcfg:bspcfg.obj
 0002:00000280       SupportedNands             00019280     bspcfg:bspcfg.obj
 0002:000002bc       BSPGpioTables              000192bc     bspcfg:bspcfg.obj
 0002:000002d4       __security_cookie          000192d4     gsnull:gsnull.obj
 0002:000002d8       __security_cookie_complement 000192d8     gsnull:gsnull.obj
 0002:000004e0       g_ecctype                  000194e0     main.obj
 0002:00000554       gpmc_ecc_func              00019554     common_ti_fmd_nand_boot:gpmc_ecc.obj
 0002:000005d4       gCPU_family                000195d4     <common>
 0002:000005d8       map                        000195d8     <common>
 0002:000005dc       nbBlock                    000195dc     <common>
 0002:000005e0       poolSize                   000195e0     <common>
 0002:000005e4       pool                       000195e4     <common>

 entry point at        0001:00000000

 Static symbols

 0001:000022a0       MemorySetup                000132a0 f   platform.obj
 0001:000029a0       NAND_Read                  000139a0 f   common_ti_fmd_nand_boot:fmd.obj
 0001:00002aa0       NAND_Enable                00013aa0 f   common_ti_fmd_nand_boot:fmd.obj
 0001:000030d8       NAND_Initialize            000140d8 f   common_ti_fmd_nand_boot:fmd.obj
 0001:00003310       Hamming_ECC_Init           00014310 f   common_ti_fmd_nand_boot:gpmc_ecc.obj
 0001:00003340       Hamming_ECC_Calculate      00014340 f   common_ti_fmd_nand_boot:gpmc_ecc.obj
 0001:000033a8       Hamming_ECC_Reset          000143a8 f   common_ti_fmd_nand_boot:gpmc_ecc.obj
 0001:000033b8       Hamming_ECC_CorrectData    000143b8 f   common_ti_fmd_nand_boot:gpmc_ecc.obj
 0001:000034d0       BCH4_ECC_Init              000144d0 f   common_ti_fmd_nand_boot:gpmc_ecc.obj
 0001:00003548       BCH4_ECC_Calculate         00014548 f   common_ti_fmd_nand_boot:gpmc_ecc.obj
 0001:000035e8       BCH4_ECC_Reset             000145e8 f   common_ti_fmd_nand_boot:gpmc_ecc.obj
 0001:000035f8       BCH8_ECC_Init              000145f8 f   common_ti_fmd_nand_boot:gpmc_ecc.obj
 0001:00003670       BCH8_ECC_Calculate         00014670 f   common_ti_fmd_nand_boot:gpmc_ecc.obj
 0001:00003770       BCH8_ECC_Reset             00014770 f   common_ti_fmd_nand_boot:gpmc_ecc.obj
 0001:000038b0       BCH_correct_data           000148b0 f   common_ti_fmd_nand_boot:gpmc_ecc.obj
 0001:00003a0c       BCH4_ECC_CorrectData       00014a0c f   common_ti_fmd_nand_boot:gpmc_ecc.obj
 0001:00003a40       BCH8_ECC_CorrectData       00014a40 f   common_ti_fmd_nand_boot:gpmc_ecc.obj
 0001:00003a74       mpy_mod_gf                 00014a74 f   common_ti_fmd_nand_boot:omap_bch_decoder.obj
 0001:00003ad4       chien                      00014ad4 f   common_ti_fmd_nand_boot:omap_bch_decoder.obj
 0001:00003d34       berlekamp                  00014d34 f   common_ti_fmd_nand_boot:omap_bch_decoder.obj
 0001:00003fa4       syndrome                   00014fa4 f   common_ti_fmd_nand_boot:omap_bch_decoder.obj
 0001:00004464       I2CResetDevice             00015464 f   common_ti_oali2c:oali2c.obj
 0001:0000477c       I2CTransaction             0001577c f   common_ti_oali2c:oali2c.obj
 0001:000050f4       ?OmapGpioPostInit@@YAHPAX@Z 000160f4 f   common_ti_oal_omap_gpio:omap35xx_gpio.obj
 0001:0000514c       ?OmapGpioDeinit@@YAHPAX@Z  0001614c f   common_ti_oal_omap_gpio:omap35xx_gpio.obj
 0001:0000521c       ?OmapGpioSetMode@@YAHPAXII@Z 0001621c f   common_ti_oal_omap_gpio:omap35xx_gpio.obj
 0001:00005344       ?OmapGpioGetMode@@YAKPAXI@Z 00016344 f   common_ti_oal_omap_gpio:omap35xx_gpio.obj
 0001:00005438       ?OmapGpioPullup@@YAHPAXII@Z 00016438 f   common_ti_oal_omap_gpio:omap35xx_gpio.obj
 0001:00005440       ?OmapGpioPulldown@@YAHPAXII@Z 00016440 f   common_ti_oal_omap_gpio:omap35xx_gpio.obj
 0001:00005448       ?OmapGpioSetBit@@YAHPAXI@Z 00016448 f   common_ti_oal_omap_gpio:omap35xx_gpio.obj
 0001:00005500       ?OmapGpioClrBit@@YAHPAXI@Z 00016500 f   common_ti_oal_omap_gpio:omap35xx_gpio.obj
 0001:000055b8       ?OmapGpioGetBit@@YAKPAXI@Z 000165b8 f   common_ti_oal_omap_gpio:omap35xx_gpio.obj
 0001:00005664       ?OmapGpioIoControl@@YAHPAXIPAEI1IPAK@Z 00016664 f   common_ti_oal_omap_gpio:omap35xx_gpio.obj
 0001:0000566c       ?OmapGpioInit@@YAHPBGPAPAXPAI@Z 0001666c f   common_ti_oal_omap_gpio:omap35xx_gpio.obj
 0001:000057c4       GetGroupByID               000167c4 f   common_ti_oal_gpiodispatch:gpio_dispatch.obj
