; Listing generated by Microsoft (R) Optimizing Compiler Version 14.01.60511.01 

	TTL	C:\WINCE600\PLATFORM\COMMON\SRC\SOC\COMMON_TI_V1\OMAP3530\OAL\PRCM\prcm_domain.c
	CODE32

  00000			 AREA	 |.drectve|, DRECTVE
	DCB	"-defaultlib:LIBCMT "
	DCB	"-defaultlib:OLDNAMES "

	EXPORT	|_CoreClockDomain| [ DATA ]
	EXPORT	|_PeripheralClockDomain| [ DATA ]
	EXPORT	|_UsbHostClockDomain| [ DATA ]
	EXPORT	|_EmulationClockDomain| [ DATA ]
	EXPORT	|_MpuClockDomain| [ DATA ]
	EXPORT	|_DssClockDomain| [ DATA ]
	EXPORT	|_NeonClockDomain| [ DATA ]
	EXPORT	|_CameraClockDomain| [ DATA ]
	EXPORT	|_SgxClockDomain| [ DATA ]
	EXPORT	|_WakeupPowerDomain| [ DATA ]
	EXPORT	|_CorePowerDomain| [ DATA ]
	EXPORT	|_PeripheralPowerDomain| [ DATA ]
	EXPORT	|_UsbHostPowerDomain| [ DATA ]
	EXPORT	|_MpuPowerDomain| [ DATA ]
	EXPORT	|_DssPowerDomain| [ DATA ]
	EXPORT	|_NeonPowerDomain| [ DATA ]
	EXPORT	|_Iva2PowerDomain| [ DATA ]
	EXPORT	|_CameraPowerDomain| [ DATA ]
	EXPORT	|_SgxPowerDomain| [ DATA ]
	EXPORT	|s_DomainTable| [ DATA ]

  00000			 AREA	 |.data|, DATA
|_CoreClockDomain| DCD 0x3
	DCD	0x0
	DCD	0x0
	DCD	0x0
	DCD	0x1
	DCD	0x0
	DCD	0x2
	DCD	0xb
	DCD	0x0
	DCD	0x4
|_PeripheralClockDomain| DCD 0x1
	DCD	0x2
	DCD	0x0
	DCD	0x0
|_UsbHostClockDomain| DCD 0x1
	DCD	0x3
	DCD	0x0
	DCD	0x0
|_EmulationClockDomain| DCD 0x1
	DCD	0x4
	DCD	0x0
	DCD	0x0
|_MpuClockDomain| DCD 0x1
	DCD	0x5
	DCD	0x0
	DCD	0x0
|_DssClockDomain| DCD 0x1
	DCD	0x6
	DCD	0x0
	DCD	0x0
|_NeonClockDomain| DCD 0x1
	DCD	0x7
	DCD	0x0
	DCD	0x0
|_CameraClockDomain| DCD 0x1
	DCD	0x9
	DCD	0x0
	DCD	0x0
|_SgxClockDomain| DCD 0x1
	DCD	0xa
	DCD	0x0
	DCD	0x0
|_WakeupPowerDomain| DCD 0x3
	DCD	0x4
	DCD	0x0
	DCD	0x0
|_CorePowerDomain| DCD 0x3
	DCD	0x4
	DCD	0x0
	DCD	0x0
|_PeripheralPowerDomain| DCD 0x3
	DCD	0x4
	DCD	0x0
	DCD	0x17
|_UsbHostPowerDomain| DCD 0x3
	DCD	0x4
	DCD	0x0
	DCD	0x17
|_MpuPowerDomain| DCD 0x3
	DCD	0x4
	DCD	0x0
	DCD	0xa5
|_DssPowerDomain| DCD 0x3
	DCD	0x4
	DCD	0x0
	DCD	0x16
|_NeonPowerDomain| DCD 0x3
	DCD	0x4
	DCD	0x0
	DCD	0x2
|_Iva2PowerDomain| DCD 0x3
	DCD	0x4
	DCD	0x0
	DCD	0xb3
|_CameraPowerDomain| DCD 0x3
	DCD	0x4
	DCD	0x0
	DCD	0x16
|_SgxPowerDomain| DCD 0x3
	DCD	0x4
	DCD	0x0
	DCD	0x16
|s_DomainTable| DCD 0x0
	DCD	0x0
	DCD	|_WakeupPowerDomain|
	DCD	0x0
	DCD	0xffffffff
	DCD	0xffffffff
	DCD	0xffffffff
	DCD	0x0
	DCD	0xc
	DCD	|_CorePowerDomain|
	DCD	|_CoreClockDomain|
	DCD	0xffffffff
	DCD	0xffffffff
	DCD	0xffffffff
	DCD	0x0
	DCD	0xf
	DCD	|_PeripheralPowerDomain|
	DCD	|_PeripheralClockDomain|
	DCD	0xffffffff
	DCD	0xffffffff
	DCD	0xffffffff
	DCD	0x0
	DCD	0xf
	DCD	|_UsbHostPowerDomain|
	DCD	|_UsbHostClockDomain|
	DCD	0xffffffff
	DCD	0xffffffff
	DCD	0xffffffff
	DCD	0x0
	DCD	0x8
	DCD	0x0
	DCD	|_EmulationClockDomain|
	DCD	0xffffffff
	DCD	0xffffffff
	DCD	0xffffffff
	DCD	0x0
	DCD	0xd
	DCD	|_MpuPowerDomain|
	DCD	|_MpuClockDomain|
	DCD	0xffffffff
	DCD	0xffffffff
	DCD	0xffffffff
	DCD	0x0
	DCD	0xf
	DCD	|_DssPowerDomain|
	DCD	|_DssClockDomain|
	DCD	0xffffffff
	DCD	0xffffffff
	DCD	0xffffffff
	DCD	0x0
	DCD	0xd
	DCD	|_NeonPowerDomain|
	DCD	|_NeonClockDomain|
	DCD	0xffffffff
	DCD	0xffffffff
	DCD	0xffffffff
	DCD	0x0
	DCD	0xf
	DCD	|_CameraPowerDomain|
	DCD	|_CameraClockDomain|
	DCD	0xffffffff
	DCD	0xffffffff
	DCD	0xffffffff
	DCD	0x0
	DCD	0xf
	DCD	|_SgxPowerDomain|
	DCD	|_SgxClockDomain|
	DCD	0xffffffff
	DCD	0xffffffff
	DCD	0xffffffff
	DCD	0x0
	DCD	0x0
	DCD	0x0
	DCD	0x0
	DCD	0xffffffff
	DCD	0xffffffff
	DCD	0xffffffff
	DCD	0x0
	DCD	0x0
	DCD	0x0
	DCD	0x0
	DCD	0xffffffff
	DCD	0xffffffff
	DCD	0xffffffff

  00000			 AREA	 |.rdata|, DATA, READONLY
|EdbgVendorIds| DCW 0x0
	DCW	0x0
	DCD	0x4033
	DCB	0x1
	DCB	"AD", 0x0
	DCW	0x1050
	DCW	0x940
	DCD	0x4005
	DCB	0x1
	DCB	"LS", 0x0
	DCW	0x1050
	DCW	0x940
	DCD	0x2078
	DCB	0x1
	DCB	"LS", 0x0
	DCW	0x10ec
	DCW	0x8029
	DCD	0xc0f0
	DCB	0x1
	DCB	"KS", 0x0
	DCW	0x10ec
	DCW	0x8129
	DCD	0x0
	DCB	0x4
	DCB	"RT", 0x0
	DCW	0x10ec
	DCW	0x8139
	DCD	0x900b
	DCB	0x4
	DCB	"RT", 0x0
	DCW	0x10ec
	DCW	0x8139
	DCD	0xd0c9
	DCB	0x4
	DCB	"RT", 0x0
	DCW	0x10ec
	DCW	0x8139
	DCD	0xe04c
	DCB	0x4
	DCB	"RT", 0x0
	DCW	0x1186
	DCW	0x1300
	DCD	0x50ba
	DCB	0x4
	DCB	"DL", 0x0
	DCW	0x100b
	DCW	0x20
	DCD	0xa0cc
	DCB	0x5
	DCB	"NG", 0x0
	DCW	0x10b7
	DCW	0x9050
	DCD	0x6008
	DCB	0x6
	DCB	"3C", 0x0
	DCW	0x10b7
	DCW	0x9200
	DCD	0x476
	DCB	0x6
	DCB	"3C", 0x0
	EXPORT	|Lock|
	IMPORT	|EnterCriticalSection|
	IMPORT	|g_bSingleThreaded|
	IMPORT	|g_PrcmPostInit|
	IMPORT	|g_rgPrcmMutex|
; File c:\wince600\platform\common\src\soc\common_ti_v1\omap3530\oal\prcm\prcm_priv.h

  00000			 AREA	 |.pdata|, PDATA
|$T47458| DCD	|$LN6@Lock|
	DCD	0x40001101
; Function compile flags: /Ogspy

  00000			 AREA	 |.text|, CODE, ARM

  00000		 |Lock|	 PROC

; 266  : {

  00000		 |$LN6@Lock|
  00000	e52de004	 str         lr, [sp, #-4]!
  00004		 |$M47455|

; 267  :     if (g_PrcmPostInit && !g_bSingleThreaded) 

  00004	e59f3034	 ldr         r3, [pc, #0x34]
  00008	e5933000	 ldr         r3, [r3]
  0000c	e3530000	 cmp         r3, #0
  00010	0a000006	 beq         |$LN1@Lock|
  00014	e59f3020	 ldr         r3, [pc, #0x20]
  00018	e5933000	 ldr         r3, [r3]
  0001c	e3530000	 cmp         r3, #0

; 268  :         {
; 269  :         EnterCriticalSection(&g_rgPrcmMutex[mutexId]);

  00020	059f2010	 ldreq       r2, [pc, #0x10]
  00024	00803100	 addeq       r3, r0, r0, lsl #2
  00028	00820103	 addeq       r0, r2, r3, lsl #2
  0002c	0b000000	 bleq        EnterCriticalSection
  00030		 |$LN1@Lock|

; 270  :         }
; 271  : }

  00030	e49de004	 ldr         lr, [sp], #4
  00034	e12fff1e	 bx          lr
  00038		 |$LN7@Lock|
  00038		 |$LN8@Lock|
  00038	00000000	 DCD         |g_rgPrcmMutex|
  0003c		 |$LN9@Lock|
  0003c	00000000	 DCD         |g_bSingleThreaded|
  00040		 |$LN10@Lock|
  00040	00000000	 DCD         |g_PrcmPostInit|
  00044		 |$M47456|

			 ENDP  ; |Lock|

	EXPORT	|Unlock|
	IMPORT	|LeaveCriticalSection|

  00000			 AREA	 |.pdata|, PDATA
|$T47470| DCD	|$LN6@Unlock|
	DCD	0x40001101
; Function compile flags: /Ogspy

  00000			 AREA	 |.text|, CODE, ARM

  00000		 |Unlock| PROC

; 277  : {

  00000		 |$LN6@Unlock|
  00000	e52de004	 str         lr, [sp, #-4]!
  00004		 |$M47467|

; 278  :     if (g_PrcmPostInit && !g_bSingleThreaded)

  00004	e59f3034	 ldr         r3, [pc, #0x34]
  00008	e5933000	 ldr         r3, [r3]
  0000c	e3530000	 cmp         r3, #0
  00010	0a000006	 beq         |$LN1@Unlock|
  00014	e59f3020	 ldr         r3, [pc, #0x20]
  00018	e5933000	 ldr         r3, [r3]
  0001c	e3530000	 cmp         r3, #0

; 279  :         {
; 280  :         LeaveCriticalSection(&g_rgPrcmMutex[mutexId]);

  00020	059f2010	 ldreq       r2, [pc, #0x10]
  00024	00803100	 addeq       r3, r0, r0, lsl #2
  00028	00820103	 addeq       r0, r2, r3, lsl #2
  0002c	0b000000	 bleq        LeaveCriticalSection
  00030		 |$LN1@Unlock|

; 281  :         }
; 282  : }

  00030	e49de004	 ldr         lr, [sp], #4
  00034	e12fff1e	 bx          lr
  00038		 |$LN7@Unlock|
  00038		 |$LN8@Unlock|
  00038	00000000	 DCD         |g_rgPrcmMutex|
  0003c		 |$LN9@Unlock|
  0003c	00000000	 DCD         |g_bSingleThreaded|
  00040		 |$LN10@Unlock|
  00040	00000000	 DCD         |g_PrcmPostInit|
  00044		 |$M47468|

			 ENDP  ; |Unlock|

	EXPORT	|??_C@_1DE@IEBANBBC@?$AA?9?$AA_?$AAD?$AAo?$AAm?$AAa?$AAi?$AAn?$AAI?$AAn?$AAi?$AAt?$AAi?$AAa?$AAl?$AAi?$AAz?$AAe?$AA?$CI?$AA?$CJ?$AA?$DN?$AA?$CF?$AAd?$AA?$AN?$AA?6?$AA?$AA@| [ DATA ] ; `string'
	EXPORT	|??_C@_1LI@HACPIACF@?$AA?$CL?$AA_?$AAD?$AAo?$AAm?$AAa?$AAi?$AAn?$AAI?$AAn?$AAi?$AAt?$AAi?$AAa?$AAl?$AAi?$AAz?$AAe?$AA?$CI?$AAp?$AAD?$AAo?$AAm?$AAa?$AAi?$AAn?$AA?$DN?$AA0?$AAx?$AA?$CF?$AA0?$AA8@| [ DATA ] ; `string'
	IMPORT	|NKDbgPrintfW|
; File c:\wince600\platform\common\src\soc\common_ti_v1\omap3530\oal\prcm\prcm_domain.c

  00000			 AREA	 |.pdata|, PDATA
|$T47487| DCD	|$LN6@DomainInit|
	DCD	0x40001c02

  00000			 AREA	 |.rdata|, DATA, READONLY
|??_C@_1DE@IEBANBBC@?$AA?9?$AA_?$AAD?$AAo?$AAm?$AAa?$AAi?$AAn?$AAI?$AAn?$AAi?$AAt?$AAi?$AAa?$AAl?$AAi?$AAz?$AAe?$AA?$CI?$AA?$CJ?$AA?$DN?$AA?$CF?$AAd?$AA?$AN?$AA?6?$AA?$AA@| DCB "-"
	DCB	0x0, "_", 0x0, "D", 0x0, "o", 0x0, "m", 0x0, "a", 0x0, "i"
	DCB	0x0, "n", 0x0, "I", 0x0, "n", 0x0, "i", 0x0, "t", 0x0, "i"
	DCB	0x0, "a", 0x0, "l", 0x0, "i", 0x0, "z", 0x0, "e", 0x0, "("
	DCB	0x0, ")", 0x0, "=", 0x0, "%", 0x0, "d", 0x0, 0xd, 0x0, 0xa
	DCB	0x0, 0x0, 0x0				; `string'

  00000			 AREA	 |.rdata|, DATA, READONLY
|??_C@_1LI@HACPIACF@?$AA?$CL?$AA_?$AAD?$AAo?$AAm?$AAa?$AAi?$AAn?$AAI?$AAn?$AAi?$AAt?$AAi?$AAa?$AAl?$AAi?$AAz?$AAe?$AA?$CI?$AAp?$AAD?$AAo?$AAm?$AAa?$AAi?$AAn?$AA?$DN?$AA0?$AAx?$AA?$CF?$AA0?$AA8@| DCB "+"
	DCB	0x0, "_", 0x0, "D", 0x0, "o", 0x0, "m", 0x0, "a", 0x0, "i"
	DCB	0x0, "n", 0x0, "I", 0x0, "n", 0x0, "i", 0x0, "t", 0x0, "i"
	DCB	0x0, "a", 0x0, "l", 0x0, "i", 0x0, "z", 0x0, "e", 0x0, "("
	DCB	0x0, "p", 0x0, "D", 0x0, "o", 0x0, "m", 0x0, "a", 0x0, "i"
	DCB	0x0, "n", 0x0, "=", 0x0, "0", 0x0, "x", 0x0, "%", 0x0, "0"
	DCB	0x0, "8", 0x0, "X", 0x0, ",", 0x0, " ", 0x0, "p", 0x0, "m"
	DCB	0x0, "_", 0x0, "p", 0x0, "w", 0x0, "s", 0x0, "t", 0x0, "c"
	DCB	0x0, "t", 0x0, "r", 0x0, "l", 0x0, "=", 0x0, "0", 0x0, "x"
	DCB	0x0, "%", 0x0, "0", 0x0, "8", 0x0, "X", 0x0, "p", 0x0, "m"
	DCB	0x0, "_", 0x0, "w", 0x0, "k", 0x0, "d", 0x0, "e", 0x0, "p"
	DCB	0x0, "=", 0x0, "0", 0x0, "x", 0x0, "%", 0x0, "0", 0x0, "8"
	DCB	0x0, "X", 0x0, ",", 0x0, " ", 0x0, "c", 0x0, "m", 0x0, "_"
	DCB	0x0, "s", 0x0, "l", 0x0, "e", 0x0, "e", 0x0, "p", 0x0, "d"
	DCB	0x0, "e", 0x0, "p", 0x0, "=", 0x0, "0", 0x0, "x", 0x0, "%"
	DCB	0x0, "0", 0x0, "8", 0x0, "X", 0x0, ")", 0x0, 0xd, 0x0, 0xa
	DCB	0x0, 0x0, 0x0				; `string'
; Function compile flags: /Ogspy

  00000			 AREA	 |.text|, CODE, ARM

  00000		 |_DomainInitialize| PROC

; 285  : {

  00000		 |$LN6@DomainInit|
  00000	e92d40f0	 stmdb       sp!, {r4 - r7, lr}
  00004	e24dd004	 sub         sp, sp, #4
  00008		 |$M47484|
  00008	e1a05003	 mov         r5, r3
  0000c	e1a06002	 mov         r6, r2
  00010	e1a07001	 mov         r7, r1
  00014	e1a04000	 mov         r4, r0

; 286  :     BOOL rc = TRUE;
; 287  :     OALMSG(1, (L"+_DomainInitialize("
; 288  :         L"pDomain=0x%08X, pm_pwstctrl=0x%08X"
; 289  :         L"pm_wkdep=0x%08X, cm_sleepdep=0x%08X)\r\n", 
; 290  :         pDomain, pm_pwstctrl, pm_wkdep, cm_sleepdep)
; 291  :         );

  00018	e59f004c	 ldr         r0, [pc, #0x4C]
  0001c	e1a03006	 mov         r3, r6
  00020	e1a02007	 mov         r2, r7
  00024	e1a01004	 mov         r1, r4
  00028	e58d5000	 str         r5, [sp]
  0002c	eb000000	 bl          NKDbgPrintfW

; 292  : 
; 293  :     // all values are normalized and then cached in SDRAM
; 294  :     if (pDomain == NULL) goto cleanUp;

  00030	e3540000	 cmp         r4, #0

; 295  :     
; 296  :     // domain power state
; 297  :     pDomain->powerState = (pm_pwstctrl & POWERSTATE_MASK) >> POWERSTATE_SHIFT;

  00034	12071003	 andne       r1, r7, #3

; 298  : 
; 299  :     // wake and sleep dependencies
; 300  :     pDomain->wakeDependency = (pm_wkdep & WKDEP_MASK) >> WKDEP_SHIFT;

  00038	120620ff	 andne       r2, r6, #0xFF

; 301  :     pDomain->sleepDependency = (cm_sleepdep & SLEEPDEP_MASK) >> SLEEPDEP_SHIFT;

  0003c	120530ff	 andne       r3, r5, #0xFF
  00040	15841000	 strne       r1, [r4]
  00044	1584200c	 strne       r2, [r4, #0xC]
  00048	15843008	 strne       r3, [r4, #8]
  0004c		 |$cleanUp$46972|

; 302  : 
; 303  : cleanUp:
; 304  :     OALMSG(1, (L"-_DomainInitialize()=%d\r\n", rc));

  0004c	e59f0014	 ldr         r0, [pc, #0x14]
  00050	e3a01001	 mov         r1, #1
  00054	eb000000	 bl          NKDbgPrintfW

; 305  : 	/*OALMSG(1, (L"-_DomainInitialize("
; 306  :         L"powerState=0x%08X, wakeDependency=0x%08X"
; 307  :         L"sleepDependency=0x%08X)\r\n", 
; 308  :         pDomain->powerState, pDomain->wakeDependency, pDomain->sleepDependency)
; 309  :         );*/
; 310  :     return rc;    

  00058	e3a00001	 mov         r0, #1

; 311  : }

  0005c	e28dd004	 add         sp, sp, #4
  00060	e8bd40f0	 ldmia       sp!, {r4 - r7, lr}
  00064	e12fff1e	 bx          lr
  00068		 |$LN7@DomainInit|
  00068		 |$LN8@DomainInit|
  00068	00000000	 DCD         |??_C@_1DE@IEBANBBC@?$AA?9?$AA_?$AAD?$AAo?$AAm?$AAa?$AAi?$AAn?$AAI?$AAn?$AAi?$AAt?$AAi?$AAa?$AAl?$AAi?$AAz?$AAe?$AA?$CI?$AA?$CJ?$AA?$DN?$AA?$CF?$AAd?$AA?$AN?$AA?6?$AA?$AA@|
  0006c		 |$LN9@DomainInit|
  0006c	00000000	 DCD         |??_C@_1LI@HACPIACF@?$AA?$CL?$AA_?$AAD?$AAo?$AAm?$AAa?$AAi?$AAn?$AAI?$AAn?$AAi?$AAt?$AAi?$AAa?$AAl?$AAi?$AAz?$AAe?$AA?$CI?$AAp?$AAD?$AAo?$AAm?$AAa?$AAi?$AAn?$AA?$DN?$AA0?$AAx?$AA?$CF?$AA0?$AA8@|
  00070		 |$M47485|

			 ENDP  ; |_DomainInitialize|

	IMPORT	|g_pPrcmCm|
	IMPORT	|s_SrcClockTable|

  00000			 AREA	 |.pdata|, PDATA
|$T47529| DCD	|$LN34@DomainCloc|
	DCD	0x40006801
; Function compile flags: /Ogspy

  00000			 AREA	 |.text|, CODE, ARM

  00000		 |_DomainClockRestore| PROC

; 319  : {

  00000		 |$LN34@DomainCloc|
  00000	e92d4010	 stmdb       sp!, {r4, lr}
  00004		 |$M47526|

; 320  :     UINT i;
; 321  :     UINT val;
; 322  :     UINT parentClock;
; 323  :     SrcClockDivisorTable_t *pDivisors;
; 324  : 
; 325  :     extern SrcClockMap s_SrcClockTable;
; 326  : 
; 327  :     switch (powerDomain)

  00004	e3500002	 cmp         r0, #2
  00008	0a000033	 beq         |$LN8@DomainCloc|
  0000c	e3500006	 cmp         r0, #6
  00010	0a000024	 beq         |$LN7@DomainCloc|
  00014	e3500008	 cmp         r0, #8
  00018	0a000019	 beq         |$LN6@DomainCloc|
  0001c	e3500009	 cmp         r0, #9
  00020	1a000059	 bne         |$LN9@DomainCloc|

; 355  : 
; 356  :         case POWERDOMAIN_SGX:
; 357  :             // verify parent clock is valid       
; 358  :             pDivisors = s_SrcClockTable[kSGX_FCLK].pDivisors;

  00024	e59f3170	 ldr         r3, [pc, #0x170]

; 359  :             parentClock = s_SrcClockTable[kSGX_FCLK].parentClk;
; 360  :             for (i = 0; i < pDivisors->count; ++i)

  00028	e3a01000	 mov         r1, #0
  0002c	e59305c0	 ldr         r0, [r3, #0x5C0]
  00030	e59345b4	 ldr         r4, [r3, #0x5B4]
  00034	e5903000	 ldr         r3, [r0]
  00038	e1b0e003	 movs        lr, r3
  0003c	0a000052	 beq         |$LN9@DomainCloc|

; 355  : 
; 356  :         case POWERDOMAIN_SGX:
; 357  :             // verify parent clock is valid       
; 358  :             pDivisors = s_SrcClockTable[kSGX_FCLK].pDivisors;

  00040	e1a02000	 mov         r2, r0
  00044		 |$LL4@DomainCloc|

; 361  :                 {
; 362  :                 if (parentClock == pDivisors->SourceClock[i].id)

  00044	e5923004	 ldr         r3, [r2, #4]
  00048	e1540003	 cmp         r4, r3
  0004c	0a000004	 beq         |$LN30@DomainCloc|
  00050	e2811001	 add         r1, r1, #1
  00054	e151000e	 cmp         r1, lr
  00058	e2822008	 add         r2, r2, #8
  0005c	3afffff8	 bcc         |$LL4@DomainCloc|
  00060	ea000049	 b           |$LN9@DomainCloc|
  00064		 |$LN30@DomainCloc|

; 363  :                     {
; 364  :                     // write to hw
; 365  :                     OUTREG32(&g_pPrcmCm->pOMAP_SGX_CM->CM_CLKSEL_SGX, 
; 366  :                         CLKSEL_SGX(pDivisors->SourceClock[i].divisor)
; 367  :                         );

  00064	e59f212c	 ldr         r2, [pc, #0x12C]
  00068	e0803181	 add         r3, r0, r1, lsl #3
  0006c	e5933008	 ldr         r3, [r3, #8]
  00070	e5922000	 ldr         r2, [r2]
  00074	e2031007	 and         r1, r3, #7
  00078	e5923028	 ldr         r3, [r2, #0x28]
  0007c	e5831040	 str         r1, [r3, #0x40]

; 368  :                     break;
; 369  :                     }
; 370  :                 }
; 371  :             break;

  00080	ea000041	 b           |$LN9@DomainCloc|
  00084		 |$LN6@DomainCloc|

; 348  :  
; 349  :         case POWERDOMAIN_CAMERA:
; 350  :             // write to hw
; 351  :             OUTREG32(&g_pPrcmCm->pOMAP_CAM_CM->CM_CLKSEL_CAM, 
; 352  :                 CLKSEL_CAM(s_SrcClockTable[kCAM_MCLK].pDivisors->SourceClock[0].divisor)
; 353  :                 );

  00084	e59f3110	 ldr         r3, [pc, #0x110]
  00088	e59f2108	 ldr         r2, [pc, #0x108]
  0008c	e59330ac	 ldr         r3, [r3, #0xAC]
  00090	e5922000	 ldr         r2, [r2]
  00094	e5933008	 ldr         r3, [r3, #8]
  00098	e5922024	 ldr         r2, [r2, #0x24]
  0009c	e203301f	 and         r3, r3, #0x1F
  000a0	e5823040	 str         r3, [r2, #0x40]

; 354  :             break;

  000a4	ea000038	 b           |$LN9@DomainCloc|
  000a8		 |$LN7@DomainCloc|

; 340  :             break;
; 341  : 
; 342  :         case POWERDOMAIN_DSS:
; 343  :             // write to hw
; 344  :             OUTREG32(&g_pPrcmCm->pOMAP_DSS_CM->CM_CLKSEL_DSS,
; 345  :                 CLKSEL_DSS1(s_SrcClockTable[kDSS1_ALWON_FCLK].pDivisors->SourceClock[0].divisor) |
; 346  :                 CLKSEL_TV(s_SrcClockTable[k54M_FCLK].pDivisors->SourceClock[0].divisor));

  000a8	e59f30ec	 ldr         r3, [pc, #0xEC]
  000ac	e59f20e4	 ldr         r2, [pc, #0xE4]
  000b0	e59305ac	 ldr         r0, [r3, #0x5AC]
  000b4	e5931098	 ldr         r1, [r3, #0x98]
  000b8	e5922000	 ldr         r2, [r2]
  000bc	e5903008	 ldr         r3, [r0, #8]
  000c0	e5911008	 ldr         r1, [r1, #8]
  000c4	e5920018	 ldr         r0, [r2, #0x18]
  000c8	e203201f	 and         r2, r3, #0x1F
  000cc	e201301f	 and         r3, r1, #0x1F
  000d0	e1833402	 orr         r3, r3, r2, lsl #8
  000d4	e5803040	 str         r3, [r0, #0x40]

; 347  :             break;

  000d8	ea00002b	 b           |$LN9@DomainCloc|
  000dc		 |$LN8@DomainCloc|

; 328  :         {
; 329  :         case POWERDOMAIN_PERIPHERAL:
; 330  :             // build mask
; 331  :             val = s_SrcClockTable[kGPT2_ALWON_FCLK].parentClk == kSYS_CLK ? CLKSEL_GPT2 : 0;

  000dc	e59f20b8	 ldr         r2, [pc, #0xB8]
  000e0	e59235dc	 ldr         r3, [r2, #0x5DC]
  000e4	e353000c	 cmp         r3, #0xC

; 332  :             val |= s_SrcClockTable[kGPT3_ALWON_FCLK].parentClk == kSYS_CLK ? CLKSEL_GPT3 : 0;

  000e8	e59235f0	 ldr         r3, [r2, #0x5F0]
  000ec	03a01001	 moveq       r1, #1
  000f0	13a01000	 movne       r1, #0
  000f4	e353000c	 cmp         r3, #0xC

; 333  :             val |= s_SrcClockTable[kGPT4_ALWON_FCLK].parentClk == kSYS_CLK ? CLKSEL_GPT4 : 0;

  000f8	e5923604	 ldr         r3, [r2, #0x604]
  000fc	03a00002	 moveq       r0, #2
  00100	13a00000	 movne       r0, #0
  00104	e353000c	 cmp         r3, #0xC

; 334  :             val |= s_SrcClockTable[kGPT5_ALWON_FCLK].parentClk == kSYS_CLK ? CLKSEL_GPT5 : 0;

  00108	e5923618	 ldr         r3, [r2, #0x618]
  0010c	e1800001	 orr         r0, r0, r1
  00110	03a01004	 moveq       r1, #4
  00114	13a01000	 movne       r1, #0
  00118	e353000c	 cmp         r3, #0xC

; 335  :             val |= s_SrcClockTable[kGPT6_ALWON_FCLK].parentClk == kSYS_CLK ? CLKSEL_GPT6 : 0;

  0011c	e592362c	 ldr         r3, [r2, #0x62C]
  00120	e1810000	 orr         r0, r1, r0
  00124	03a01008	 moveq       r1, #8
  00128	13a01000	 movne       r1, #0
  0012c	e353000c	 cmp         r3, #0xC

; 336  :             val |= s_SrcClockTable[kGPT7_ALWON_FCLK].parentClk == kSYS_CLK ? CLKSEL_GPT7 : 0;

  00130	e5923640	 ldr         r3, [r2, #0x640]
  00134	e1810000	 orr         r0, r1, r0
  00138	03a01010	 moveq       r1, #0x10
  0013c	13a01000	 movne       r1, #0
  00140	e353000c	 cmp         r3, #0xC

; 337  :             val |= s_SrcClockTable[kGPT8_ALWON_FCLK].parentClk == kSYS_CLK ? CLKSEL_GPT8 : 0;

  00144	e5923654	 ldr         r3, [r2, #0x654]
  00148	e1810000	 orr         r0, r1, r0
  0014c	03a01020	 moveq       r1, #0x20
  00150	13a01000	 movne       r1, #0
  00154	e353000c	 cmp         r3, #0xC

; 338  :             val |= s_SrcClockTable[kGPT9_ALWON_FCLK].parentClk == kSYS_CLK ? CLKSEL_GPT9 : 0;

  00158	e5923668	 ldr         r3, [r2, #0x668]
  0015c	e1810000	 orr         r0, r1, r0
  00160	03a01040	 moveq       r1, #0x40
  00164	13a01000	 movne       r1, #0
  00168	e353000c	 cmp         r3, #0xC

; 339  :             OUTREG32(&g_pPrcmCm->pOMAP_PER_CM->CM_CLKSEL_PER, val);

  0016c	e59f3024	 ldr         r3, [pc, #0x24]
  00170	03a02080	 moveq       r2, #0x80
  00174	e1811000	 orr         r1, r1, r0
  00178	e5933000	 ldr         r3, [r3]
  0017c	13a02000	 movne       r2, #0
  00180	e1822001	 orr         r2, r2, r1
  00184	e5933008	 ldr         r3, [r3, #8]
  00188	e5832040	 str         r2, [r3, #0x40]
  0018c		 |$LN9@DomainCloc|

; 372  :         /*case POWERDOMAIN_IVA2:
; 373  :             PrcmClockRestoreDpllState(kDPLL2);
; 374  :            break;*/
; 375  :         }
; 376  : 
; 377  :     return TRUE;

  0018c	e3a00001	 mov         r0, #1

; 378  : }

  00190	e8bd4010	 ldmia       sp!, {r4, lr}
  00194	e12fff1e	 bx          lr
  00198		 |$LN35@DomainCloc|
  00198		 |$LN36@DomainCloc|
  00198	00000000	 DCD         |g_pPrcmCm|
  0019c		 |$LN37@DomainCloc|
  0019c	00000000	 DCD         |s_SrcClockTable|
  001a0		 |$M47527|

			 ENDP  ; |_DomainClockRestore|

	EXPORT	|??_C@_1EG@MJBAHCAP@?$AA?9?$AA_?$AAP?$AAr?$AAc?$AAm?$AAD?$AAo?$AAm?$AAa?$AAi?$AAn?$AAC?$AAl?$AAo?$AAc?$AAk?$AAI?$AAn?$AAi?$AAt?$AAi?$AAa?$AAl?$AAi?$AAz?$AAe?$AA?$CI?$AA?$CJ?$AA?$DN?$AA?$CF?$AAd@| [ DATA ] ; `string'
	EXPORT	|??_C@_1IO@GHDCOMKL@?$AA?$CL?$AA_?$AAP?$AAr?$AAc?$AAm?$AAD?$AAo?$AAm?$AAa?$AAi?$AAn?$AAC?$AAl?$AAo?$AAc?$AAk?$AAI?$AAn?$AAi?$AAt?$AAi?$AAa?$AAl?$AAi?$AAz?$AAe?$AA?$CI?$AAp?$AAC?$AAl?$AAo@| [ DATA ] ; `string'

  00000			 AREA	 |.pdata|, PDATA
|$T47546| DCD	|$LN11@PrcmDomain|
	DCD	0x40001f01

  00000			 AREA	 |.rdata|, DATA, READONLY
|??_C@_1EG@MJBAHCAP@?$AA?9?$AA_?$AAP?$AAr?$AAc?$AAm?$AAD?$AAo?$AAm?$AAa?$AAi?$AAn?$AAC?$AAl?$AAo?$AAc?$AAk?$AAI?$AAn?$AAi?$AAt?$AAi?$AAa?$AAl?$AAi?$AAz?$AAe?$AA?$CI?$AA?$CJ?$AA?$DN?$AA?$CF?$AAd@| DCB "-"
	DCB	0x0, "_", 0x0, "P", 0x0, "r", 0x0, "c", 0x0, "m", 0x0, "D"
	DCB	0x0, "o", 0x0, "m", 0x0, "a", 0x0, "i", 0x0, "n", 0x0, "C"
	DCB	0x0, "l", 0x0, "o", 0x0, "c", 0x0, "k", 0x0, "I", 0x0, "n"
	DCB	0x0, "i", 0x0, "t", 0x0, "i", 0x0, "a", 0x0, "l", 0x0, "i"
	DCB	0x0, "z", 0x0, "e", 0x0, "(", 0x0, ")", 0x0, "=", 0x0, "%"
	DCB	0x0, "d", 0x0, 0xd, 0x0, 0xa, 0x0, 0x0, 0x0 ; `string'

  00000			 AREA	 |.rdata|, DATA, READONLY
|??_C@_1IO@GHDCOMKL@?$AA?$CL?$AA_?$AAP?$AAr?$AAc?$AAm?$AAD?$AAo?$AAm?$AAa?$AAi?$AAn?$AAC?$AAl?$AAo?$AAc?$AAk?$AAI?$AAn?$AAi?$AAt?$AAi?$AAa?$AAl?$AAi?$AAz?$AAe?$AA?$CI?$AAp?$AAC?$AAl?$AAo@| DCB "+"
	DCB	0x0, "_", 0x0, "P", 0x0, "r", 0x0, "c", 0x0, "m", 0x0, "D"
	DCB	0x0, "o", 0x0, "m", 0x0, "a", 0x0, "i", 0x0, "n", 0x0, "C"
	DCB	0x0, "l", 0x0, "o", 0x0, "c", 0x0, "k", 0x0, "I", 0x0, "n"
	DCB	0x0, "i", 0x0, "t", 0x0, "i", 0x0, "a", 0x0, "l", 0x0, "i"
	DCB	0x0, "z", 0x0, "e", 0x0, "(", 0x0, "p", 0x0, "C", 0x0, "l"
	DCB	0x0, "o", 0x0, "c", 0x0, "k", 0x0, "S", 0x0, "t", 0x0, "a"
	DCB	0x0, "t", 0x0, "e", 0x0, "s", 0x0, "=", 0x0, "0", 0x0, "x"
	DCB	0x0, "%", 0x0, "0", 0x0, "8", 0x0, "X", 0x0, ",", 0x0, " "
	DCB	0x0, "c", 0x0, "m", 0x0, "_", 0x0, "c", 0x0, "l", 0x0, "k"
	DCB	0x0, "s", 0x0, "t", 0x0, "c", 0x0, "t", 0x0, "r", 0x0, "l"
	DCB	0x0, "=", 0x0, "0", 0x0, "x", 0x0, "%", 0x0, "0", 0x0, "8"
	DCB	0x0, "X", 0x0, 0xd, 0x0, 0xa, 0x0, 0x0, 0x0 ; `string'
; Function compile flags: /Ogspy

  00000			 AREA	 |.text|, CODE, ARM

  00000		 |_PrcmDomainClockInitialize| PROC

; 387  : {

  00000		 |$LN11@PrcmDomain|
  00000	e92d4030	 stmdb       sp!, {r4, r5, lr}
  00004		 |$M47543|
  00004	e1a05001	 mov         r5, r1
  00008	e1a04000	 mov         r4, r0

; 388  :     UINT i;
; 389  :     UINT temp;
; 390  :     BOOL rc = TRUE;
; 391  :     OALMSG(1, (L"+_PrcmDomainClockInitialize("
; 392  :         L"pClockStates=0x%08X, cm_clkstctrl=0x%08X\r\n", 
; 393  :         pClockStates,  cm_clkstctrl));

  0000c	e59f0064	 ldr         r0, [pc, #0x64]
  00010	e1a02005	 mov         r2, r5
  00014	e1a01004	 mov         r1, r4
  00018	eb000000	 bl          NKDbgPrintfW

; 394  : 
; 395  :     // all values are normalized and then cached in SDRAM
; 396  :     if (pClockStates == NULL) goto cleanUp;

  0001c	e3540000	 cmp         r4, #0
  00020	0a00000d	 beq         |$cleanUp$47017|

; 397  : 
; 398  :     for (i = 0; i < pClockStates->count; ++i)

  00024	e5943000	 ldr         r3, [r4]
  00028	e3a00000	 mov         r0, #0
  0002c	e3530000	 cmp         r3, #0
  00030	9a000009	 bls         |$cleanUp$47017|
  00034	e1a02004	 mov         r2, r4
  00038		 |$LL3@PrcmDomain|

; 399  : 	{  
; 400  :         temp = cm_clkstctrl >> pClockStates->rgClockDomains[i].clockShift;        

  00038	e592300c	 ldr         r3, [r2, #0xC]
  0003c	e2800001	 add         r0, r0, #1
  00040	e1a03335	 mov         r3, r5, lsr r3

; 401  :         pClockStates->rgClockDomains[i].clockState = (temp & CLKSTCTRL_MASK) >> CLKSTCTRL_SHIFT; 

  00044	e2033003	 and         r3, r3, #3
  00048	e5823008	 str         r3, [r2, #8]
  0004c	e5943000	 ldr         r3, [r4]
  00050	e282200c	 add         r2, r2, #0xC
  00054	e1500003	 cmp         r0, r3
  00058	3afffff6	 bcc         |$LL3@PrcmDomain|
  0005c		 |$cleanUp$47017|

; 402  : 	}
; 403  :     
; 404  : cleanUp:
; 405  :     OALMSG(1, (L"-_PrcmDomainClockInitialize()=%d\r\n", rc));

  0005c	e59f0010	 ldr         r0, [pc, #0x10]
  00060	e3a01001	 mov         r1, #1
  00064	eb000000	 bl          NKDbgPrintfW

; 406  :     return rc;    

  00068	e3a00001	 mov         r0, #1

; 407  : }

  0006c	e8bd4030	 ldmia       sp!, {r4, r5, lr}
  00070	e12fff1e	 bx          lr
  00074		 |$LN12@PrcmDomain|
  00074		 |$LN13@PrcmDomain|
  00074	00000000	 DCD         |??_C@_1EG@MJBAHCAP@?$AA?9?$AA_?$AAP?$AAr?$AAc?$AAm?$AAD?$AAo?$AAm?$AAa?$AAi?$AAn?$AAC?$AAl?$AAo?$AAc?$AAk?$AAI?$AAn?$AAi?$AAt?$AAi?$AAa?$AAl?$AAi?$AAz?$AAe?$AA?$CI?$AA?$CJ?$AA?$DN?$AA?$CF?$AAd@|
  00078		 |$LN14@PrcmDomain|
  00078	00000000	 DCD         |??_C@_1IO@GHDCOMKL@?$AA?$CL?$AA_?$AAP?$AAr?$AAc?$AAm?$AAD?$AAo?$AAm?$AAa?$AAi?$AAn?$AAC?$AAl?$AAo?$AAc?$AAk?$AAI?$AAn?$AAi?$AAt?$AAi?$AAa?$AAl?$AAi?$AAz?$AAe?$AA?$CI?$AAp?$AAC?$AAl?$AAo@|
  0007c		 |$M47544|

			 ENDP  ; |_PrcmDomainClockInitialize|

	IMPORT	|g_pPrcmRestore|
	IMPORT	|GetPrmRegisterSet|
	IMPORT	|GetCmRegisterSet|

  00000			 AREA	 |.pdata|, PDATA
|$T47570| DCD	|$LN19@PrcmDomain@2|
	DCD	0x40004101
; Function compile flags: /Ogspy

  00000			 AREA	 |.text|, CODE, ARM

  00000		 |_PrcmDomainHwUpdate| PROC

; 416  : {

  00000		 |$LN19@PrcmDomain@2|
  00000	e92d40f0	 stmdb       sp!, {r4 - r7, lr}
  00004		 |$M47567|
  00004	e1a04001	 mov         r4, r1
  00008	e1a06000	 mov         r6, r0

; 417  :     BOOL rc = TRUE;
; 418  :     UINT pm_wkdep;
; 419  :     UINT pm_pwstctrl;
; 420  :     UINT cm_sleepdep;
; 421  :     UINT cm_clkstctrl;   
; 422  :     OMAP_CM_REGS   *pCmRegs;
; 423  :     OMAP_PRM_REGS  *pPrmRegs;
; 424  :     ClockDomainInfo_t  *pClockStates;    
; 425  :     PowerDomainState_t *pDomainState;
; 426  :     
; 427  :     // update the following hw registers
; 428  :     // PM_WKDEP_xxx
; 429  :     // CM_SLEEPDEP_xxx
; 430  :     // PM_PWSTCTRL_xxx.POWERSTATE
; 431  :     // CM_CLKSTCTRL_xxx
; 432  : 
; 433  :     pCmRegs = GetCmRegisterSet(powerDomain);

  0000c	eb000000	 bl          GetCmRegisterSet
  00010	e1a05000	 mov         r5, r0

; 434  :     pPrmRegs = GetPrmRegisterSet(powerDomain);

  00014	e1a00006	 mov         r0, r6
  00018	eb000000	 bl          GetPrmRegisterSet

; 435  :     pClockStates = s_DomainTable[powerDomain].pClockStates;

  0001c	e59f20dc	 ldr         r2, [pc, #0xDC]
  00020	e0663186	 rsb         r3, r6, r6, lsl #3
  00024	e0823103	 add         r3, r2, r3, lsl #2

; 436  :     pDomainState = s_DomainTable[powerDomain].pDomainState;

  00028	e5932008	 ldr         r2, [r3, #8]
  0002c	e593e00c	 ldr         lr, [r3, #0xC]
  00030	e1b07002	 movs        r7, r2

; 437  :         
; 438  :     if (pDomainState != NULL)

  00034	0a000013	 beq         |$LN9@PrcmDomain@2|

; 439  :         {
; 440  :         if (ffMask & DOMAIN_UPDATE_WKUPDEP)

  00038	e3140001	 tst         r4, #1

; 441  :             {
; 442  :             pm_wkdep = INREG32(&pPrmRegs->PM_WKDEP_xxx) & ~WKDEP_MASK;

  0003c	159030c8	 ldrne       r3, [r0, #0xC8]

; 443  :             pm_wkdep |= pDomainState->wakeDependency << WKDEP_SHIFT;

  00040	1597200c	 ldrne       r2, [r7, #0xC]
  00044	13c330ff	 bicne       r3, r3, #0xFF
  00048	11823003	 orrne       r3, r2, r3

; 444  :             OUTREG32(&pPrmRegs->PM_WKDEP_xxx, pm_wkdep);

  0004c	158030c8	 strne       r3, [r0, #0xC8]

; 445  :             }
; 446  : 
; 447  :         if (ffMask & DOMAIN_UPDATE_SLEEPDEP)

  00050	e3140002	 tst         r4, #2

; 448  :             {
; 449  :             cm_sleepdep = INREG32(&pCmRegs->CM_SLEEPDEP_xxx) & ~SLEEPDEP_MASK;

  00054	15953044	 ldrne       r3, [r5, #0x44]

; 450  :             cm_sleepdep |= pDomainState->sleepDependency << SLEEPDEP_SHIFT;

  00058	15972008	 ldrne       r2, [r7, #8]
  0005c	13c330ff	 bicne       r3, r3, #0xFF
  00060	11823003	 orrne       r3, r2, r3

; 451  :             OUTREG32(&pCmRegs->CM_SLEEPDEP_xxx, cm_sleepdep);

  00064	15853044	 strne       r3, [r5, #0x44]

; 452  :             }
; 453  : 
; 454  :         if (ffMask & DOMAIN_UPDATE_POWERSTATE)

  00068	e3140004	 tst         r4, #4

; 455  :             {
; 456  :             pm_pwstctrl = INREG32(&pPrmRegs->PM_PWSTCTRL_xxx) & ~(POWERSTATE_MASK | LOGICRETSTATE_MASK);

  0006c	159020e0	 ldrne       r2, [r0, #0xE0]
  00070	15971004	 ldrne       r1, [r7, #4]
  00074	15973000	 ldrne       r3, [r7]
  00078	13c22007	 bicne       r2, r2, #7
  0007c	11813003	 orrne       r3, r1, r3

; 457  :             pm_pwstctrl |= pDomainState->powerState << POWERSTATE_SHIFT;
; 458  :             pm_pwstctrl |= pDomainState->logicState;
; 459  :             OUTREG32(&pPrmRegs->PM_PWSTCTRL_xxx, pm_pwstctrl);

  00080	11833002	 orrne       r3, r3, r2
  00084	158030e0	 strne       r3, [r0, #0xE0]
  00088		 |$LN9@PrcmDomain@2|

; 460  :             }
; 461  :         }
; 462  : 
; 463  :     if (pClockStates != NULL)

  00088	e35e0000	 cmp         lr, #0
  0008c	0a000017	 beq         |$LN1@PrcmDomain@2|

; 464  :         {
; 465  :         if (ffMask & DOMAIN_UPDATE_CLOCKSTATE)

  00090	e3140008	 tst         r4, #8
  00094	0a000015	 beq         |$LN1@PrcmDomain@2|

; 466  :             {
; 467  :             UINT i;
; 468  :             cm_clkstctrl = INREG32(&pCmRegs->CM_CLKSTCTRL_xxx);
; 469  :             for (i = 0; i < pClockStates->count; ++i)

  00098	e59e3000	 ldr         r3, [lr]
  0009c	e5950048	 ldr         r0, [r5, #0x48]
  000a0	e1b04003	 movs        r4, r3
  000a4	0a000007	 beq         |$LN4@PrcmDomain@2|
  000a8	e3a07003	 mov         r7, #3
  000ac		 |$LL6@PrcmDomain@2|

; 470  :                 {
; 471  :                 cm_clkstctrl &= ~(CLKSTCTRL_MASK << pClockStates->rgClockDomains[i].clockShift);
; 472  :                 cm_clkstctrl |= (pClockStates->rgClockDomains[i].clockState << pClockStates->rgClockDomains[i].clockShift) << CLKSTCTRL_SHIFT;

  000ac	e59e100c	 ldr         r1, [lr, #0xC]
  000b0	e59e2008	 ldr         r2, [lr, #8]
  000b4	e28ee00c	 add         lr, lr, #0xC
  000b8	e1c03117	 bic         r3, r0, r7, lsl r1
  000bc	e2544001	 subs        r4, r4, #1
  000c0	e1830112	 orr         r0, r3, r2, lsl r1
  000c4	1afffff8	 bne         |$LL6@PrcmDomain@2|
  000c8		 |$LN4@PrcmDomain@2|

; 473  :                 }
; 474  :             OUTREG32(&pCmRegs->CM_CLKSTCTRL_xxx, cm_clkstctrl);
; 475  : 
; 476  :             // save context
; 477  :             if (powerDomain == POWERDOMAIN_MPU)

  000c8	e3560005	 cmp         r6, #5

; 478  :                 {
; 479  :                 OUTREG32(&g_pPrcmRestore->CM_CLKSTCTRL_MPU, cm_clkstctrl);

  000cc	059f3028	 ldreq       r3, [pc, #0x28]
  000d0	e5850048	 str         r0, [r5, #0x48]
  000d4	05933000	 ldreq       r3, [r3]
  000d8	05830038	 streq       r0, [r3, #0x38]
  000dc	0a000003	 beq         |$LN1@PrcmDomain@2|

; 480  :                 }
; 481  :             else if (powerDomain == POWERDOMAIN_CORE)

  000e0	e3560001	 cmp         r6, #1

; 482  :                 {
; 483  :                 OUTREG32(&g_pPrcmRestore->CM_CLKSTCTRL_CORE, cm_clkstctrl);

  000e4	059f3010	 ldreq       r3, [pc, #0x10]
  000e8	05933000	 ldreq       r3, [r3]
  000ec	0583003c	 streq       r0, [r3, #0x3C]
  000f0		 |$LN1@PrcmDomain@2|

; 484  :                 }
; 485  :             }
; 486  :         }
; 487  :     
; 488  :     return rc;

  000f0	e3a00001	 mov         r0, #1

; 489  : }

  000f4	e8bd40f0	 ldmia       sp!, {r4 - r7, lr}
  000f8	e12fff1e	 bx          lr
  000fc		 |$LN20@PrcmDomain@2|
  000fc		 |$LN21@PrcmDomain@2|
  000fc	00000000	 DCD         |g_pPrcmRestore|
  00100		 |$LN22@PrcmDomain@2|
  00100	00000000	 DCD         |s_DomainTable|
  00104		 |$M47568|

			 ENDP  ; |_PrcmDomainHwUpdate|

	EXPORT	|PrcmDomainSetPowerStateInternal|
	IMPORT	|OALWakeupLatency_UpdateDomainState|

  00000			 AREA	 |.pdata|, PDATA
|$T47588| DCD	|$LN9@PrcmDomain@3|
	DCD	0x40002501
; Function compile flags: /Ogspy

  00000			 AREA	 |.text|, CODE, ARM

  00000		 |PrcmDomainSetPowerStateInternal| PROC

; 499  : {

  00000		 |$LN9@PrcmDomain@3|
  00000	e92d43f0	 stmdb       sp!, {r4 - r9, lr}
  00004		 |$M47585|
  00004	e1a07003	 mov         r7, r3
  00008	e1a08002	 mov         r8, r2
  0000c	e1a09001	 mov         r9, r1
  00010	e1a05000	 mov         r5, r0

; 500  :     BOOL rc = FALSE;

  00014	e3a06000	 mov         r6, #0

; 501  :     PowerDomainState_t *pDomainState;
; 502  :     
; 503  :     if (powerDomain >= POWERDOMAIN_COUNT) goto cleanUp;

  00018	e355000c	 cmp         r5, #0xC
  0001c	2a000018	 bcs         |$cleanUp$47081|

; 504  :     if ((s_DomainTable[powerDomain].ffValidationMask & DOMAIN_UPDATE_POWERSTATE) == 0) goto cleanUp;

  00020	e59f4068	 ldr         r4, [pc, #0x68]
  00024	e065e185	 rsb         lr, r5, r5, lsl #3
  00028	e084010e	 add         r0, r4, lr, lsl #2
  0002c	e590e004	 ldr         lr, [r0, #4]
  00030	e31e0004	 tst         lr, #4
  00034	0a000012	 beq         |$cleanUp$47081|

; 505  : 
; 506  :     // update internal state information 
; 507  :     pDomainState = s_DomainTable[powerDomain].pDomainState;

  00038	e590e008	 ldr         lr, [r0, #8]
  0003c	e1b0400e	 movs        r4, lr

; 508  :     if (pDomainState == NULL) goto cleanUp;

  00040	0a00000f	 beq         |$cleanUp$47081|

; 509  :     
; 510  :     // POWERSTATE_OFF                      0
; 511  :     // POWERSTATE_RETENTION                1
; 512  :     // POWERSTATE_INACTIVE                 2
; 513  :     // POWERSTATE_ON                       3
; 514  : 
; 515  :     // LOGICRETSTATE_LOGICOFF_DOMAINRET    1
; 516  :     // LOGICRETSTATE_LOGICRET_DOMAINRET    4
; 517  : 
; 518  :     //OALMSG(1, (L"Domain %d -> P%d L%d\r\n", powerDomain, powerState, logicState));
; 519  : 
; 520  :     Lock(Mutex_Domain);

  00044	e3a00002	 mov         r0, #2
  00048	eb000000	 bl          Lock

; 521  :     powerState &= POWERSTATE_MASK;

  0004c	e2091003	 and         r1, r9, #3

; 522  :     powerState >>= POWERSTATE_SHIFT;
; 523  :     pDomainState->powerState = powerState;
; 524  :     pDomainState->logicState = logicState & LOGICRETSTATE;

  00050	e2082004	 and         r2, r8, #4
  00054	e8840006	 stmia       r4, {r1, r2}

; 525  :     rc = _PrcmDomainHwUpdate(powerDomain, DOMAIN_UPDATE_POWERSTATE);

  00058	e3a01004	 mov         r1, #4
  0005c	e1a00005	 mov         r0, r5
  00060	eb000000	 bl          _PrcmDomainHwUpdate

; 526  : 
; 527  :     // check if we need to notify of a power state change
; 528  :     if (bNotify == TRUE)

  00064	e3570001	 cmp         r7, #1

; 529  :         {
; 530  :         // update latency information
; 531  :         OALWakeupLatency_UpdateDomainState(powerDomain, 
; 532  :             pDomainState->powerState, 
; 533  :             pDomainState->logicState
; 534  :             );

  00068	05942004	 ldreq       r2, [r4, #4]
  0006c	05941000	 ldreq       r1, [r4]
  00070	e1a06000	 mov         r6, r0
  00074	01a00005	 moveq       r0, r5
  00078	0b000000	 bleq        OALWakeupLatency_UpdateDomainState

; 535  :         }
; 536  :     Unlock(Mutex_Domain);

  0007c	e3a00002	 mov         r0, #2
  00080	eb000000	 bl          Unlock
  00084		 |$cleanUp$47081|

; 537  :     
; 538  : cleanUp:    
; 539  :     
; 540  :     return rc;
; 541  : }

  00084	e1a00006	 mov         r0, r6
  00088	e8bd43f0	 ldmia       sp!, {r4 - r9, lr}
  0008c	e12fff1e	 bx          lr
  00090		 |$LN10@PrcmDomain@3|
  00090		 |$LN11@PrcmDomain@3|
  00090	00000000	 DCD         |s_DomainTable|
  00094		 |$M47586|

			 ENDP  ; |PrcmDomainSetPowerStateInternal|

	EXPORT	|DomainGetDeviceContextState|

  00000			 AREA	 |.pdata|, PDATA
|$T47607| DCD	|$LN10@DomainGetD|
	DCD	0x40002a01
; Function compile flags: /Ogspy

  00000			 AREA	 |.text|, CODE, ARM

  00000		 |DomainGetDeviceContextState| PROC

; 550  : {

  00000		 |$LN10@DomainGetD|
  00000	e92d41f0	 stmdb       sp!, {r4 - r8, lr}
  00004		 |$M47604|
  00004	e1a08002	 mov         r8, r2
  00008	e1a06001	 mov         r6, r1
  0000c	e1a04000	 mov         r4, r0

; 551  :     int idx;
; 552  :     BOOL rc;
; 553  :     OMAP_PRM_REGS *pPrmRegs;
; 554  :     
; 555  :     // Get array index 
; 556  :     idx = pInfo->offset - cm_offset(CM_ICLKEN1_xxx);

  00010	e5963008	 ldr         r3, [r6, #8]

; 557  :     Lock(Mutex_Domain);

  00014	e3a00002	 mov         r0, #2
  00018	e2437010	 sub         r7, r3, #0x10
  0001c	eb000000	 bl          Lock

; 558  :     
; 559  :     // get current power state of domain
; 560  :     pPrmRegs = GetPrmRegisterSet(powerDomain);

  00020	e1a00004	 mov         r0, r4
  00024	eb000000	 bl          GetPrmRegisterSet

; 561  :     if ((INREG32(&pPrmRegs->PM_PWSTST_xxx) & POWERSTATE_MASK) == POWERSTATE_OFF)

  00028	e59030e4	 ldr         r3, [r0, #0xE4]

; 562  :         {
; 563  :         // domain is off
; 564  :         
; 565  :         // clear device context table for power domain
; 566  :         s_DomainTable[powerDomain].rgDeviceContextState[0] = 0;

  0002c	e59f0070	 ldr         r0, [pc, #0x70]
  00030	e3130003	 tst         r3, #3
  00034	e0643184	 rsb         r3, r4, r4, lsl #3
  00038	00803103	 addeq       r3, r0, r3, lsl #2
  0003c	03a02000	 moveq       r2, #0
  00040	05832010	 streq       r2, [r3, #0x10]

; 567  :         s_DomainTable[powerDomain].rgDeviceContextState[1] = 0;

  00044	05832014	 streq       r2, [r3, #0x14]

; 568  :         s_DomainTable[powerDomain].rgDeviceContextState[2] = 0;

  00048	05832018	 streq       r2, [r3, #0x18]

; 569  :         rc = 0;
; 570  :         }
; 571  :     else
; 572  :         {
; 573  :         // get device context state
; 574  :         rc = s_DomainTable[powerDomain].rgDeviceContextState[idx] & pInfo->mask;

  0004c	10833007	 addne       r3, r3, r7
  00050	10803103	 addne       r3, r0, r3, lsl #2
  00054	15932010	 ldrne       r2, [r3, #0x10]
  00058	15963004	 ldrne       r3, [r6, #4]
  0005c	03a05000	 moveq       r5, #0
  00060	10025003	 andne       r5, r2, r3

; 575  :         }
; 576  : 
; 577  :     // update device context state
; 578  :     if (bSet == TRUE)

  00064	e3580001	 cmp         r8, #1

; 579  :         {
; 580  :         s_DomainTable[powerDomain].rgDeviceContextState[idx] |= pInfo->mask;        

  00068	00643184	 rsbeq       r3, r4, r4, lsl #3
  0006c	00833007	 addeq       r3, r3, r7
  00070	00801103	 addeq       r1, r0, r3, lsl #2
  00074	05912010	 ldreq       r2, [r1, #0x10]
  00078	05963004	 ldreq       r3, [r6, #4]

; 581  :         }
; 582  :     Unlock(Mutex_Domain);

  0007c	e3a00002	 mov         r0, #2
  00080	01823003	 orreq       r3, r2, r3
  00084	05813010	 streq       r3, [r1, #0x10]
  00088	eb000000	 bl          Unlock

; 583  :     
; 584  :     return rc != 0;

  0008c	e3550000	 cmp         r5, #0
  00090	13a00001	 movne       r0, #1

; 585  : }

  00094	18bd41f0	 ldmneia     sp!, {r4 - r8, lr}

; 583  :     
; 584  :     return rc != 0;

  00098	03a00000	 moveq       r0, #0

; 585  : }

  0009c	08bd41f0	 ldmeqia     sp!, {r4 - r8, lr}
  000a0	e12fff1e	 bx          lr
  000a4		 |$LN11@DomainGetD|
  000a4		 |$LN12@DomainGetD|
  000a4	00000000	 DCD         |s_DomainTable|
  000a8		 |$M47605|

			 ENDP  ; |DomainGetDeviceContextState|

	EXPORT	|DomainInitialize|
	EXPORT	|??_C@_1DC@PHJGNBDE@?$AA?9?$AAD?$AAo?$AAm?$AAa?$AAi?$AAn?$AAI?$AAn?$AAi?$AAt?$AAi?$AAa?$AAl?$AAi?$AAz?$AAe?$AA?$CI?$AA?$CJ?$AA?$DN?$AA?$CF?$AAd?$AA?$AN?$AA?6?$AA?$AA@| [ DATA ] ; `string'
	EXPORT	|??_C@_1CM@KJPIEGMJ@?$AA?$CL?$AAD?$AAo?$AAm?$AAa?$AAi?$AAn?$AAI?$AAn?$AAi?$AAt?$AAi?$AAa?$AAl?$AAi?$AAz?$AAe?$AA?$CI?$AA?$CJ?$AA?$AN?$AA?6?$AA?$AA@| [ DATA ] ; `string'

  00000			 AREA	 |.pdata|, PDATA
|$T47651| DCD	|$LN25@DomainInit@2|
	DCD	0x40005302

  00000			 AREA	 |.rdata|, DATA, READONLY
|??_C@_1DC@PHJGNBDE@?$AA?9?$AAD?$AAo?$AAm?$AAa?$AAi?$AAn?$AAI?$AAn?$AAi?$AAt?$AAi?$AAa?$AAl?$AAi?$AAz?$AAe?$AA?$CI?$AA?$CJ?$AA?$DN?$AA?$CF?$AAd?$AA?$AN?$AA?6?$AA?$AA@| DCB "-"
	DCB	0x0, "D", 0x0, "o", 0x0, "m", 0x0, "a", 0x0, "i", 0x0, "n"
	DCB	0x0, "I", 0x0, "n", 0x0, "i", 0x0, "t", 0x0, "i", 0x0, "a"
	DCB	0x0, "l", 0x0, "i", 0x0, "z", 0x0, "e", 0x0, "(", 0x0, ")"
	DCB	0x0, "=", 0x0, "%", 0x0, "d", 0x0, 0xd, 0x0, 0xa, 0x0, 0x0
	DCB	0x0					; `string'

  00000			 AREA	 |.rdata|, DATA, READONLY
|??_C@_1CM@KJPIEGMJ@?$AA?$CL?$AAD?$AAo?$AAm?$AAa?$AAi?$AAn?$AAI?$AAn?$AAi?$AAt?$AAi?$AAa?$AAl?$AAi?$AAz?$AAe?$AA?$CI?$AA?$CJ?$AA?$AN?$AA?6?$AA?$AA@| DCB "+"
	DCB	0x0, "D", 0x0, "o", 0x0, "m", 0x0, "a", 0x0, "i", 0x0, "n"
	DCB	0x0, "I", 0x0, "n", 0x0, "i", 0x0, "t", 0x0, "i", 0x0, "a"
	DCB	0x0, "l", 0x0, "i", 0x0, "z", 0x0, "e", 0x0, "(", 0x0, ")"
	DCB	0x0, 0xd, 0x0, 0xa, 0x0, 0x0, 0x0	; `string'
; Function compile flags: /Ogspy

  00000			 AREA	 |.text|, CODE, ARM

  00000		 |DomainInitialize| PROC

; 590  : {

  00000		 |$LN25@DomainInit@2|
  00000	e92d47f0	 stmdb       sp!, {r4 - r10, lr}
  00004	e24dd004	 sub         sp, sp, #4
  00008		 |$M47648|

; 591  :     UINT            i;
; 592  :     BOOL            rc = TRUE;
; 593  :     UINT            cm_clkstctrl;
; 594  :     UINT            pm_pwstctrl;
; 595  :     UINT            pm_wkdep;
; 596  :     UINT            cm_sleepdep;
; 597  :     OMAP_CM_REGS   *pCmRegs;
; 598  :     OMAP_PRM_REGS  *pPrmRegs;
; 599  : 
; 600  :     OALMSG(1, (L"+DomainInitialize()\r\n"));

  00008	e59f0138	 ldr         r0, [pc, #0x138]
  0000c	eb000000	 bl          NKDbgPrintfW
  00010	e59f612c	 ldr         r6, [pc, #0x12C]

; 601  : 
; 602  :     for (i = 0; i < POWERDOMAIN_COUNT; ++i)

  00014	e3a05000	 mov         r5, #0
  00018		 |$LL7@DomainInit@2|

; 603  : 	{        
; 604  :         pCmRegs = GetCmRegisterSet(i);

  00018	e1a00005	 mov         r0, r5
  0001c	eb000000	 bl          GetCmRegisterSet
  00020	e1a04000	 mov         r4, r0

; 605  :         pPrmRegs = GetPrmRegisterSet(i);

  00024	e1a00005	 mov         r0, r5
  00028	eb000000	 bl          GetPrmRegisterSet

; 606  : 
; 607  :         pm_wkdep = 0;
; 608  :         if (s_DomainTable[i].ffValidationMask & DOMAIN_UPDATE_WKUPDEP)

  0002c	e5963004	 ldr         r3, [r6, #4]
  00030	e3a09000	 mov         r9, #0

; 609  : 		{
; 610  :             pm_wkdep = INREG32(&pPrmRegs->PM_WKDEP_xxx);
; 611  : 		}
; 612  : 
; 613  :         cm_sleepdep = 0;

  00034	e3a07000	 mov         r7, #0
  00038	e3130001	 tst         r3, #1
  0003c	159090c8	 ldrne       r9, [r0, #0xC8]

; 614  :         if (s_DomainTable[i].ffValidationMask & DOMAIN_UPDATE_SLEEPDEP)

  00040	e3130002	 tst         r3, #2

; 615  : 		{
; 616  :             cm_sleepdep = INREG32(&pCmRegs->CM_SLEEPDEP_xxx);

  00044	15947044	 ldrne       r7, [r4, #0x44]

; 617  : 		}
; 618  : 
; 619  :         pm_pwstctrl = 0;
; 620  :         cm_clkstctrl = 0;
; 621  :         if (s_DomainTable[i].ffValidationMask & DOMAIN_UPDATE_POWERSTATE)

  00048	e3130004	 tst         r3, #4
  0004c	e3a08000	 mov         r8, #0

; 622  : 		{
; 623  :             pm_pwstctrl = INREG32(&pPrmRegs->PM_PWSTCTRL_xxx);

  00050	159080e0	 ldrne       r8, [r0, #0xE0]

; 624  : 		}
; 625  : 
; 626  :         if (s_DomainTable[i].ffValidationMask & DOMAIN_UPDATE_CLOCKSTATE)

  00054	e3130008	 tst         r3, #8
  00058	e3a0a000	 mov         r10, #0

; 627  : 		{
; 628  :             cm_clkstctrl = INREG32(&pCmRegs->CM_CLKSTCTRL_xxx);

  0005c	1594a048	 ldrne       r10, [r4, #0x48]

; 629  : 		}
; 630  : 
; 631  :         _DomainInitialize(s_DomainTable[i].pDomainState, pm_pwstctrl, pm_wkdep, cm_sleepdep);

  00060	e5964008	 ldr         r4, [r6, #8]
  00064	e59f00d4	 ldr         r0, [pc, #0xD4]
  00068	e1a03009	 mov         r3, r9
  0006c	e1a01004	 mov         r1, r4
  00070	e1a02008	 mov         r2, r8
  00074	e58d7000	 str         r7, [sp]
  00078	eb000000	 bl          NKDbgPrintfW
  0007c	e3540000	 cmp         r4, #0
  00080	12083003	 andne       r3, r8, #3
  00084	120920ff	 andne       r2, r9, #0xFF
  00088	120710ff	 andne       r1, r7, #0xFF
  0008c	15843000	 strne       r3, [r4]
  00090	1584200c	 strne       r2, [r4, #0xC]
  00094	15841008	 strne       r1, [r4, #8]
  00098		 |$cleanUp$47618|
  00098	e59f009c	 ldr         r0, [pc, #0x9C]
  0009c	e3a01001	 mov         r1, #1
  000a0	eb000000	 bl          NKDbgPrintfW

; 632  : 
; 633  :         _PrcmDomainClockInitialize(s_DomainTable[i].pClockStates, cm_clkstctrl);

  000a4	e596400c	 ldr         r4, [r6, #0xC]
  000a8	e59f0088	 ldr         r0, [pc, #0x88]
  000ac	e1a0200a	 mov         r2, r10
  000b0	e1a01004	 mov         r1, r4
  000b4	eb000000	 bl          NKDbgPrintfW
  000b8	e3540000	 cmp         r4, #0
  000bc	0a00000d	 beq         |$cleanUp$47627|
  000c0	e5943000	 ldr         r3, [r4]
  000c4	e3a01000	 mov         r1, #0
  000c8	e3530000	 cmp         r3, #0
  000cc	9a000009	 bls         |$cleanUp$47627|
  000d0	e1a02004	 mov         r2, r4
  000d4		 |$LL15@DomainInit@2|
  000d4	e592300c	 ldr         r3, [r2, #0xC]
  000d8	e2811001	 add         r1, r1, #1
  000dc	e1a0333a	 mov         r3, r10, lsr r3
  000e0	e2033003	 and         r3, r3, #3
  000e4	e5823008	 str         r3, [r2, #8]
  000e8	e5943000	 ldr         r3, [r4]
  000ec	e282200c	 add         r2, r2, #0xC
  000f0	e1510003	 cmp         r1, r3
  000f4	3afffff6	 bcc         |$LL15@DomainInit@2|
  000f8		 |$cleanUp$47627|
  000f8	e59f0034	 ldr         r0, [pc, #0x34]
  000fc	e3a01001	 mov         r1, #1
  00100	eb000000	 bl          NKDbgPrintfW
  00104	e2855001	 add         r5, r5, #1
  00108	e355000c	 cmp         r5, #0xC
  0010c	e286601c	 add         r6, r6, #0x1C
  00110	3affffc0	 bcc         |$LL7@DomainInit@2|

; 634  : 	}
; 635  : 
; 636  :     OALMSG(1, (L"-DomainInitialize()=%d\r\n", rc));

  00114	e59f0014	 ldr         r0, [pc, #0x14]
  00118	e3a01001	 mov         r1, #1
  0011c	eb000000	 bl          NKDbgPrintfW

; 637  :     
; 638  :     return rc;    

  00120	e3a00001	 mov         r0, #1

; 639  : }

  00124	e28dd004	 add         sp, sp, #4
  00128	e8bd47f0	 ldmia       sp!, {r4 - r10, lr}
  0012c	e12fff1e	 bx          lr
  00130		 |$LN26@DomainInit@2|
  00130		 |$LN27@DomainInit@2|
  00130	00000000	 DCD         |??_C@_1DC@PHJGNBDE@?$AA?9?$AAD?$AAo?$AAm?$AAa?$AAi?$AAn?$AAI?$AAn?$AAi?$AAt?$AAi?$AAa?$AAl?$AAi?$AAz?$AAe?$AA?$CI?$AA?$CJ?$AA?$DN?$AA?$CF?$AAd?$AA?$AN?$AA?6?$AA?$AA@|
  00134		 |$LN28@DomainInit@2|
  00134	00000000	 DCD         |??_C@_1EG@MJBAHCAP@?$AA?9?$AA_?$AAP?$AAr?$AAc?$AAm?$AAD?$AAo?$AAm?$AAa?$AAi?$AAn?$AAC?$AAl?$AAo?$AAc?$AAk?$AAI?$AAn?$AAi?$AAt?$AAi?$AAa?$AAl?$AAi?$AAz?$AAe?$AA?$CI?$AA?$CJ?$AA?$DN?$AA?$CF?$AAd@|
  00138		 |$LN29@DomainInit@2|
  00138	00000000	 DCD         |??_C@_1IO@GHDCOMKL@?$AA?$CL?$AA_?$AAP?$AAr?$AAc?$AAm?$AAD?$AAo?$AAm?$AAa?$AAi?$AAn?$AAC?$AAl?$AAo?$AAc?$AAk?$AAI?$AAn?$AAi?$AAt?$AAi?$AAa?$AAl?$AAi?$AAz?$AAe?$AA?$CI?$AAp?$AAC?$AAl?$AAo@|
  0013c		 |$LN30@DomainInit@2|
  0013c	00000000	 DCD         |??_C@_1DE@IEBANBBC@?$AA?9?$AA_?$AAD?$AAo?$AAm?$AAa?$AAi?$AAn?$AAI?$AAn?$AAi?$AAt?$AAi?$AAa?$AAl?$AAi?$AAz?$AAe?$AA?$CI?$AA?$CJ?$AA?$DN?$AA?$CF?$AAd?$AA?$AN?$AA?6?$AA?$AA@|
  00140		 |$LN31@DomainInit@2|
  00140	00000000	 DCD         |??_C@_1LI@HACPIACF@?$AA?$CL?$AA_?$AAD?$AAo?$AAm?$AAa?$AAi?$AAn?$AAI?$AAn?$AAi?$AAt?$AAi?$AAa?$AAl?$AAi?$AAz?$AAe?$AA?$CI?$AAp?$AAD?$AAo?$AAm?$AAa?$AAi?$AAn?$AA?$DN?$AA0?$AAx?$AA?$CF?$AA0?$AA8@|
  00144		 |$LN32@DomainInit@2|
  00144	00000000	 DCD         |s_DomainTable|
  00148		 |$LN33@DomainInit@2|
  00148	00000000	 DCD         |??_C@_1CM@KJPIEGMJ@?$AA?$CL?$AAD?$AAo?$AAm?$AAa?$AAi?$AAn?$AAI?$AAn?$AAi?$AAt?$AAi?$AAa?$AAl?$AAi?$AAz?$AAe?$AA?$CI?$AA?$CJ?$AA?$AN?$AA?6?$AA?$AA@|
  0014c		 |$M47649|

			 ENDP  ; |DomainInitialize|

	EXPORT	|PrcmRestoreDomain|

  00000			 AREA	 |.pdata|, PDATA
|$T47676| DCD	|$LN11@PrcmRestor|
	DCD	0x40002201
; Function compile flags: /Ogspy

  00000			 AREA	 |.text|, CODE, ARM

  00000		 |PrcmRestoreDomain| PROC

; 649  : {

  00000		 |$LN11@PrcmRestor|
  00000	e92d40f0	 stmdb       sp!, {r4 - r7, lr}
  00004		 |$M47673|
  00004	e1a04000	 mov         r4, r0

; 650  :     UINT i;
; 651  :     BOOL rc = TRUE;
; 652  :     UINT cm_sleepdep;
; 653  :     UINT cm_clkstctrl;   
; 654  :     OMAP_CM_REGS   *pCmRegs;
; 655  :     OMAP_PRM_REGS  *pPrmRegs;
; 656  :     ClockDomainInfo_t  *pClockStates;    
; 657  :     PowerDomainState_t *pDomainState;
; 658  : 
; 659  :     // initialize variables
; 660  :     pCmRegs = GetCmRegisterSet(powerDomain);

  00008	eb000000	 bl          GetCmRegisterSet
  0000c	e1a06000	 mov         r6, r0

; 661  :     pPrmRegs = GetPrmRegisterSet(powerDomain);

  00010	e1a00004	 mov         r0, r4
  00014	eb000000	 bl          GetPrmRegisterSet

; 662  :     pClockStates = s_DomainTable[powerDomain].pClockStates;

  00018	e59f2064	 ldr         r2, [pc, #0x64]
  0001c	e0643184	 rsb         r3, r4, r4, lsl #3

; 663  :     pDomainState = s_DomainTable[powerDomain].pDomainState;
; 664  : 
; 665  :     // restore clk src dividers
; 666  :     _DomainClockRestore(powerDomain);

  00020	e1a00004	 mov         r0, r4
  00024	e0824103	 add         r4, r2, r3, lsl #2
  00028	e594500c	 ldr         r5, [r4, #0xC]
  0002c	e5947008	 ldr         r7, [r4, #8]
  00030	eb000000	 bl          _DomainClockRestore

; 667  : 
; 668  :     if (s_DomainTable[powerDomain].ffValidationMask & DOMAIN_UPDATE_SLEEPDEP)

  00034	e5943004	 ldr         r3, [r4, #4]

; 669  :         {
; 670  :         // restore sleep dependencies
; 671  :         cm_sleepdep = INREG32(&pCmRegs->CM_SLEEPDEP_xxx) & ~SLEEPDEP_MASK;
; 672  :         cm_sleepdep |= pDomainState->sleepDependency << SLEEPDEP_SHIFT;
; 673  :         OUTREG32(&pCmRegs->CM_SLEEPDEP_xxx, cm_sleepdep);
; 674  :         }
; 675  : 
; 676  :     // restore clock state
; 677  :     cm_clkstctrl = 0;
; 678  :     for (i = 0; i < pClockStates->count; ++i)

  00038	e3a01000	 mov         r1, #0
  0003c	e3130002	 tst         r3, #2
  00040	15963044	 ldrne       r3, [r6, #0x44]
  00044	15972008	 ldrne       r2, [r7, #8]
  00048	13c330ff	 bicne       r3, r3, #0xFF
  0004c	11823003	 orrne       r3, r2, r3
  00050	15863044	 strne       r3, [r6, #0x44]
  00054	e5953000	 ldr         r3, [r5]
  00058	e1b00003	 movs        r0, r3
  0005c	0a000004	 beq         |$LN1@PrcmRestor|
  00060		 |$LL3@PrcmRestor|

; 679  :         {
; 680  :         cm_clkstctrl |= (pClockStates->rgClockDomains[i].clockState << pClockStates->rgClockDomains[i].clockShift) << CLKSTCTRL_SHIFT;

  00060	e5952008	 ldr         r2, [r5, #8]
  00064	e5b5300c	 ldr         r3, [r5, #0xC]!
  00068	e2500001	 subs        r0, r0, #1
  0006c	e1811312	 orr         r1, r1, r2, lsl r3
  00070	1afffffa	 bne         |$LL3@PrcmRestor|
  00074		 |$LN1@PrcmRestor|

; 681  :         }
; 682  :     OUTREG32(&pCmRegs->CM_CLKSTCTRL_xxx, cm_clkstctrl);

  00074	e5861048	 str         r1, [r6, #0x48]

; 683  : 
; 684  :     return rc;

  00078	e3a00001	 mov         r0, #1

; 685  : }

  0007c	e8bd40f0	 ldmia       sp!, {r4 - r7, lr}
  00080	e12fff1e	 bx          lr
  00084		 |$LN12@PrcmRestor|
  00084		 |$LN13@PrcmRestor|
  00084	00000000	 DCD         |s_DomainTable|
  00088		 |$M47674|

			 ENDP  ; |PrcmRestoreDomain|

	EXPORT	|PrcmDomainSetWakeupDependency|
	EXPORT	|??_C@_1EM@KMAAEICN@?$AA?9?$AAP?$AAr?$AAc?$AAm?$AAD?$AAo?$AAm?$AAa?$AAi?$AAn?$AAS?$AAe?$AAt?$AAW?$AAa?$AAk?$AAe?$AAu?$AAp?$AAD?$AAe?$AAp?$AAe?$AAn?$AAd?$AAe?$AAn?$AAc?$AAy?$AA?$CI?$AA?$CJ@| [ DATA ] ; `string'
	EXPORT	|??_C@_1KE@GFMBGEDA@?$AA?$CL?$AAP?$AAr?$AAc?$AAm?$AAD?$AAo?$AAm?$AAa?$AAi?$AAn?$AAS?$AAe?$AAt?$AAW?$AAa?$AAk?$AAe?$AAu?$AAp?$AAD?$AAe?$AAp?$AAe?$AAn?$AAd?$AAe?$AAn?$AAc?$AAy?$AA?$CI?$AAp@| [ DATA ] ; `string'
	IMPORT	|dpCurSettings|

  00000			 AREA	 |.pdata|, PDATA
|$T47699| DCD	|$LN18@PrcmDomain@4|
	DCD	0x40003a01

  00000			 AREA	 |.rdata|, DATA, READONLY
|??_C@_1EM@KMAAEICN@?$AA?9?$AAP?$AAr?$AAc?$AAm?$AAD?$AAo?$AAm?$AAa?$AAi?$AAn?$AAS?$AAe?$AAt?$AAW?$AAa?$AAk?$AAe?$AAu?$AAp?$AAD?$AAe?$AAp?$AAe?$AAn?$AAd?$AAe?$AAn?$AAc?$AAy?$AA?$CI?$AA?$CJ@| DCB "-"
	DCB	0x0, "P", 0x0, "r", 0x0, "c", 0x0, "m", 0x0, "D", 0x0, "o"
	DCB	0x0, "m", 0x0, "a", 0x0, "i", 0x0, "n", 0x0, "S", 0x0, "e"
	DCB	0x0, "t", 0x0, "W", 0x0, "a", 0x0, "k", 0x0, "e", 0x0, "u"
	DCB	0x0, "p", 0x0, "D", 0x0, "e", 0x0, "p", 0x0, "e", 0x0, "n"
	DCB	0x0, "d", 0x0, "e", 0x0, "n", 0x0, "c", 0x0, "y", 0x0, "("
	DCB	0x0, ")", 0x0, "=", 0x0, "%", 0x0, "d", 0x0, 0xd, 0x0, 0xa
	DCB	0x0, 0x0, 0x0				; `string'

  00000			 AREA	 |.rdata|, DATA, READONLY
|??_C@_1KE@GFMBGEDA@?$AA?$CL?$AAP?$AAr?$AAc?$AAm?$AAD?$AAo?$AAm?$AAa?$AAi?$AAn?$AAS?$AAe?$AAt?$AAW?$AAa?$AAk?$AAe?$AAu?$AAp?$AAD?$AAe?$AAp?$AAe?$AAn?$AAd?$AAe?$AAn?$AAc?$AAy?$AA?$CI?$AAp@| DCB "+"
	DCB	0x0, "P", 0x0, "r", 0x0, "c", 0x0, "m", 0x0, "D", 0x0, "o"
	DCB	0x0, "m", 0x0, "a", 0x0, "i", 0x0, "n", 0x0, "S", 0x0, "e"
	DCB	0x0, "t", 0x0, "W", 0x0, "a", 0x0, "k", 0x0, "e", 0x0, "u"
	DCB	0x0, "p", 0x0, "D", 0x0, "e", 0x0, "p", 0x0, "e", 0x0, "n"
	DCB	0x0, "d", 0x0, "e", 0x0, "n", 0x0, "c", 0x0, "y", 0x0, "("
	DCB	0x0, "p", 0x0, "o", 0x0, "w", 0x0, "e", 0x0, "r", 0x0, "D"
	DCB	0x0, "o", 0x0, "m", 0x0, "a", 0x0, "i", 0x0, "n", 0x0, "="
	DCB	0x0, "%", 0x0, "d", 0x0, ",", 0x0, " ", 0x0, "f", 0x0, "f"
	DCB	0x0, "D", 0x0, "e", 0x0, "p", 0x0, "e", 0x0, "n", 0x0, "d"
	DCB	0x0, "e", 0x0, "n", 0x0, "c", 0x0, "y", 0x0, "=", 0x0, "0"
	DCB	0x0, "x", 0x0, "%", 0x0, "0", 0x0, "8", 0x0, "X", 0x0, ","
	DCB	0x0, " ", 0x0, "b", 0x0, "E", 0x0, "n", 0x0, "a", 0x0, "b"
	DCB	0x0, "l", 0x0, "e", 0x0, "=", 0x0, "%", 0x0, "d", 0x0, ")"
	DCB	0x0, 0xd, 0x0, 0xa, 0x0, 0x0, 0x0	; `string'
; Function compile flags: /Ogspy

  00000			 AREA	 |.text|, CODE, ARM

  00000		 |PrcmDomainSetWakeupDependency| PROC

; 694  : {

  00000		 |$LN18@PrcmDomain@4|
  00000	e92d47f0	 stmdb       sp!, {r4 - r10, lr}
  00004		 |$M47696|
  00004	e1a08002	 mov         r8, r2
  00008	e1a09001	 mov         r9, r1
  0000c	e1a06000	 mov         r6, r0

; 695  :     BOOL rc = FALSE;
; 696  :     PowerDomainState_t *pDomainState;
; 697  :     if (!g_bSingleThreaded)

  00010	e59fa0cc	 ldr         r10, [pc, #0xCC]
  00014	e59f70c4	 ldr         r7, [pc, #0xC4]
  00018	e3a05000	 mov         r5, #0
  0001c	e59a3000	 ldr         r3, [r10]
  00020	e3530000	 cmp         r3, #0
  00024	1a000006	 bne         |$LN14@PrcmDomain@4|

; 698  :         OALMSG(OAL_FUNC, (L"+PrcmDomainSetWakeupDependency"
; 699  :             L"(powerDomain=%d, ffDependency=0x%08X, bEnable=%d)\r\n", 
; 700  :             powerDomain, ffDependency, bEnable));

  00028	e5973440	 ldr         r3, [r7, #0x440]
  0002c	e3130004	 tst         r3, #4
  00030	159f00a4	 ldrne       r0, [pc, #0xA4]
  00034	11a03008	 movne       r3, r8
  00038	11a02009	 movne       r2, r9
  0003c	11a01006	 movne       r1, r6
  00040	1b000000	 blne        NKDbgPrintfW
  00044		 |$LN14@PrcmDomain@4|

; 701  :     
; 702  :     if (powerDomain >= POWERDOMAIN_COUNT) goto cleanUp;

  00044	e356000c	 cmp         r6, #0xC
  00048	2a000016	 bcs         |$cleanUp$47159|

; 703  :     if ((s_DomainTable[powerDomain].ffValidationMask & DOMAIN_UPDATE_WKUPDEP) == 0) goto cleanUp;

  0004c	e59f2084	 ldr         r2, [pc, #0x84]
  00050	e0663186	 rsb         r3, r6, r6, lsl #3
  00054	e0822103	 add         r2, r2, r3, lsl #2
  00058	e5923004	 ldr         r3, [r2, #4]
  0005c	e3130001	 tst         r3, #1
  00060	0a000010	 beq         |$cleanUp$47159|

; 704  : 
; 705  :     // update internal state information 
; 706  :     pDomainState = s_DomainTable[powerDomain].pDomainState;

  00064	e5923008	 ldr         r3, [r2, #8]
  00068	e1b04003	 movs        r4, r3

; 707  :     if (pDomainState == NULL) goto cleanUp;

  0006c	0a00000d	 beq         |$cleanUp$47159|

; 708  : 
; 709  :     Lock(Mutex_Domain);

  00070	e3a00002	 mov         r0, #2
  00074	eb000000	 bl          Lock

; 710  :     ffDependency &= WKDEP_MASK;
; 711  :     ffDependency >>= WKDEP_SHIFT;
; 712  :     if (bEnable != FALSE)
; 713  :         {
; 714  :         pDomainState->wakeDependency |= ffDependency; 

  00078	e594300c	 ldr         r3, [r4, #0xC]
  0007c	e20920ff	 and         r2, r9, #0xFF
  00080	e3580000	 cmp         r8, #0
  00084	11833002	 orrne       r3, r3, r2

; 715  :         }
; 716  :     else
; 717  :         {
; 718  :         pDomainState->wakeDependency &= ~ffDependency; 

  00088	01c33002	 biceq       r3, r3, r2

; 719  :         }
; 720  : 
; 721  :     rc = _PrcmDomainHwUpdate(powerDomain, DOMAIN_UPDATE_WKUPDEP);

  0008c	e3a01001	 mov         r1, #1
  00090	e1a00006	 mov         r0, r6
  00094	e584300c	 str         r3, [r4, #0xC]
  00098	eb000000	 bl          _PrcmDomainHwUpdate
  0009c	e1a05000	 mov         r5, r0

; 722  :     Unlock(Mutex_Domain);

  000a0	e3a00002	 mov         r0, #2
  000a4	eb000000	 bl          Unlock
  000a8		 |$cleanUp$47159|
  000a8	e59a3000	 ldr         r3, [r10]

; 723  :     
; 724  : cleanUp:        
; 725  :     if (!g_bSingleThreaded)

  000ac	e3530000	 cmp         r3, #0
  000b0	1a000004	 bne         |$LN12@PrcmDomain@4|
  000b4	e5973440	 ldr         r3, [r7, #0x440]

; 726  :         OALMSG(OAL_FUNC, (L"-PrcmDomainSetWakeupDependency()=%d\r\n", rc));

  000b8	e3130004	 tst         r3, #4
  000bc	159f0010	 ldrne       r0, [pc, #0x10]
  000c0	11a01005	 movne       r1, r5
  000c4	1b000000	 blne        NKDbgPrintfW
  000c8		 |$LN12@PrcmDomain@4|

; 727  :     return rc;
; 728  : }

  000c8	e1a00005	 mov         r0, r5
  000cc	e8bd47f0	 ldmia       sp!, {r4 - r10, lr}
  000d0	e12fff1e	 bx          lr
  000d4		 |$LN19@PrcmDomain@4|
  000d4		 |$LN20@PrcmDomain@4|
  000d4	00000000	 DCD         |??_C@_1EM@KMAAEICN@?$AA?9?$AAP?$AAr?$AAc?$AAm?$AAD?$AAo?$AAm?$AAa?$AAi?$AAn?$AAS?$AAe?$AAt?$AAW?$AAa?$AAk?$AAe?$AAu?$AAp?$AAD?$AAe?$AAp?$AAe?$AAn?$AAd?$AAe?$AAn?$AAc?$AAy?$AA?$CI?$AA?$CJ@|
  000d8		 |$LN21@PrcmDomain@4|
  000d8	00000000	 DCD         |s_DomainTable|
  000dc		 |$LN22@PrcmDomain@4|
  000dc	00000000	 DCD         |??_C@_1KE@GFMBGEDA@?$AA?$CL?$AAP?$AAr?$AAc?$AAm?$AAD?$AAo?$AAm?$AAa?$AAi?$AAn?$AAS?$AAe?$AAt?$AAW?$AAa?$AAk?$AAe?$AAu?$AAp?$AAD?$AAe?$AAp?$AAe?$AAn?$AAd?$AAe?$AAn?$AAc?$AAy?$AA?$CI?$AAp@|
  000e0		 |$LN23@PrcmDomain@4|
  000e0	00000000	 DCD         |dpCurSettings|
  000e4		 |$LN24@PrcmDomain@4|
  000e4	00000000	 DCD         |g_bSingleThreaded|
  000e8		 |$M47697|

			 ENDP  ; |PrcmDomainSetWakeupDependency|

	EXPORT	|PrcmDomainSetSleepDependency|
	EXPORT	|??_C@_1EK@HCAJMEHB@?$AA?9?$AAP?$AAr?$AAc?$AAm?$AAD?$AAo?$AAm?$AAa?$AAi?$AAn?$AAS?$AAe?$AAt?$AAS?$AAl?$AAe?$AAe?$AAp?$AAD?$AAe?$AAp?$AAe?$AAn?$AAd?$AAe?$AAn?$AAc?$AAy?$AA?$CI?$AA?$CJ?$AA?$DN@| [ DATA ] ; `string'
	EXPORT	|??_C@_1KC@MCEKLACC@?$AA?$CL?$AAP?$AAr?$AAc?$AAm?$AAD?$AAo?$AAm?$AAa?$AAi?$AAn?$AAS?$AAe?$AAt?$AAS?$AAl?$AAe?$AAe?$AAp?$AAD?$AAe?$AAp?$AAe?$AAn?$AAd?$AAe?$AAn?$AAc?$AAy?$AA?$CI?$AAp?$AAo@| [ DATA ] ; `string'

  00000			 AREA	 |.pdata|, PDATA
|$T47725| DCD	|$LN15@PrcmDomain@5|
	DCD	0x40003201

  00000			 AREA	 |.rdata|, DATA, READONLY
|??_C@_1EK@HCAJMEHB@?$AA?9?$AAP?$AAr?$AAc?$AAm?$AAD?$AAo?$AAm?$AAa?$AAi?$AAn?$AAS?$AAe?$AAt?$AAS?$AAl?$AAe?$AAe?$AAp?$AAD?$AAe?$AAp?$AAe?$AAn?$AAd?$AAe?$AAn?$AAc?$AAy?$AA?$CI?$AA?$CJ?$AA?$DN@| DCB "-"
	DCB	0x0, "P", 0x0, "r", 0x0, "c", 0x0, "m", 0x0, "D", 0x0, "o"
	DCB	0x0, "m", 0x0, "a", 0x0, "i", 0x0, "n", 0x0, "S", 0x0, "e"
	DCB	0x0, "t", 0x0, "S", 0x0, "l", 0x0, "e", 0x0, "e", 0x0, "p"
	DCB	0x0, "D", 0x0, "e", 0x0, "p", 0x0, "e", 0x0, "n", 0x0, "d"
	DCB	0x0, "e", 0x0, "n", 0x0, "c", 0x0, "y", 0x0, "(", 0x0, ")"
	DCB	0x0, "=", 0x0, "%", 0x0, "d", 0x0, 0xd, 0x0, 0xa, 0x0, 0x0
	DCB	0x0					; `string'

  00000			 AREA	 |.rdata|, DATA, READONLY
|??_C@_1KC@MCEKLACC@?$AA?$CL?$AAP?$AAr?$AAc?$AAm?$AAD?$AAo?$AAm?$AAa?$AAi?$AAn?$AAS?$AAe?$AAt?$AAS?$AAl?$AAe?$AAe?$AAp?$AAD?$AAe?$AAp?$AAe?$AAn?$AAd?$AAe?$AAn?$AAc?$AAy?$AA?$CI?$AAp?$AAo@| DCB "+"
	DCB	0x0, "P", 0x0, "r", 0x0, "c", 0x0, "m", 0x0, "D", 0x0, "o"
	DCB	0x0, "m", 0x0, "a", 0x0, "i", 0x0, "n", 0x0, "S", 0x0, "e"
	DCB	0x0, "t", 0x0, "S", 0x0, "l", 0x0, "e", 0x0, "e", 0x0, "p"
	DCB	0x0, "D", 0x0, "e", 0x0, "p", 0x0, "e", 0x0, "n", 0x0, "d"
	DCB	0x0, "e", 0x0, "n", 0x0, "c", 0x0, "y", 0x0, "(", 0x0, "p"
	DCB	0x0, "o", 0x0, "w", 0x0, "e", 0x0, "r", 0x0, "D", 0x0, "o"
	DCB	0x0, "m", 0x0, "a", 0x0, "i", 0x0, "n", 0x0, "=", 0x0, "%"
	DCB	0x0, "d", 0x0, ",", 0x0, " ", 0x0, "f", 0x0, "f", 0x0, "D"
	DCB	0x0, "e", 0x0, "p", 0x0, "e", 0x0, "n", 0x0, "d", 0x0, "e"
	DCB	0x0, "n", 0x0, "c", 0x0, "y", 0x0, "=", 0x0, "0", 0x0, "x"
	DCB	0x0, "%", 0x0, "0", 0x0, "8", 0x0, "X", 0x0, ",", 0x0, " "
	DCB	0x0, "b", 0x0, "E", 0x0, "n", 0x0, "a", 0x0, "b", 0x0, "l"
	DCB	0x0, "e", 0x0, "=", 0x0, "%", 0x0, "d", 0x0, ")", 0x0, 0xd
	DCB	0x0, 0xa, 0x0, 0x0, 0x0			; `string'
; Function compile flags: /Ogspy

  00000			 AREA	 |.text|, CODE, ARM

  00000		 |PrcmDomainSetSleepDependency| PROC

; 737  : {

  00000		 |$LN15@PrcmDomain@5|
  00000	e92d43f0	 stmdb       sp!, {r4 - r9, lr}
  00004		 |$M47722|
  00004	e1a07002	 mov         r7, r2
  00008	e1a08001	 mov         r8, r1
  0000c	e1a06000	 mov         r6, r0

; 738  :     BOOL rc = FALSE;
; 739  :     PowerDomainState_t *pDomainState;
; 740  :     OALMSG(OAL_FUNC, (L"+PrcmDomainSetSleepDependency"
; 741  :         L"(powerDomain=%d, ffDependency=0x%08X, bEnable=%d)\r\n", 
; 742  :         powerDomain, ffDependency, bEnable));

  00010	e59f90ac	 ldr         r9, [pc, #0xAC]
  00014	e3a05000	 mov         r5, #0
  00018	e5993440	 ldr         r3, [r9, #0x440]
  0001c	e3130004	 tst         r3, #4
  00020	159f0098	 ldrne       r0, [pc, #0x98]
  00024	11a03007	 movne       r3, r7
  00028	11a02008	 movne       r2, r8
  0002c	11a01006	 movne       r1, r6
  00030	1b000000	 blne        NKDbgPrintfW

; 743  :     
; 744  :     if (powerDomain >= POWERDOMAIN_COUNT) goto cleanUp;

  00034	e356000c	 cmp         r6, #0xC
  00038	2a000016	 bcs         |$cleanUp$47180|

; 745  :     if ((s_DomainTable[powerDomain].ffValidationMask & DOMAIN_UPDATE_SLEEPDEP) == 0) goto cleanUp;

  0003c	e59fe078	 ldr         lr, [pc, #0x78]
  00040	e0663186	 rsb         r3, r6, r6, lsl #3
  00044	e08e0103	 add         r0, lr, r3, lsl #2
  00048	e5903004	 ldr         r3, [r0, #4]
  0004c	e3130002	 tst         r3, #2
  00050	0a000010	 beq         |$cleanUp$47180|

; 746  : 
; 747  :     // update internal state information 
; 748  :     pDomainState = s_DomainTable[powerDomain].pDomainState;

  00054	e5903008	 ldr         r3, [r0, #8]
  00058	e1b04003	 movs        r4, r3

; 749  :     if (pDomainState == NULL) goto cleanUp;

  0005c	0a00000d	 beq         |$cleanUp$47180|

; 750  :     
; 751  :     Lock(Mutex_Domain);

  00060	e3a00002	 mov         r0, #2
  00064	eb000000	 bl          Lock

; 752  :     ffDependency &= SLEEPDEP_MASK;
; 753  :     ffDependency >>= SLEEPDEP_SHIFT;
; 754  :     if (bEnable != FALSE)
; 755  :         {
; 756  :         pDomainState->sleepDependency |= ffDependency; 

  00068	e5943008	 ldr         r3, [r4, #8]
  0006c	e20820ff	 and         r2, r8, #0xFF
  00070	e3570000	 cmp         r7, #0
  00074	11833002	 orrne       r3, r3, r2

; 757  :         }
; 758  :     else
; 759  :         {
; 760  :         pDomainState->sleepDependency &= ~ffDependency; 

  00078	01c33002	 biceq       r3, r3, r2

; 761  :         }
; 762  : 
; 763  :     rc = _PrcmDomainHwUpdate(powerDomain, DOMAIN_UPDATE_SLEEPDEP);

  0007c	e3a01002	 mov         r1, #2
  00080	e1a00006	 mov         r0, r6
  00084	e5843008	 str         r3, [r4, #8]
  00088	eb000000	 bl          _PrcmDomainHwUpdate
  0008c	e1a05000	 mov         r5, r0

; 764  :     Unlock(Mutex_Domain);

  00090	e3a00002	 mov         r0, #2
  00094	eb000000	 bl          Unlock
  00098		 |$cleanUp$47180|
  00098	e5993440	 ldr         r3, [r9, #0x440]

; 765  :     
; 766  : cleanUp:        
; 767  :     OALMSG(OAL_FUNC, (L"-PrcmDomainSetSleepDependency()=%d\r\n", rc));

  0009c	e3130004	 tst         r3, #4
  000a0	159f0010	 ldrne       r0, [pc, #0x10]
  000a4	11a01005	 movne       r1, r5
  000a8	1b000000	 blne        NKDbgPrintfW

; 768  :     return rc;
; 769  : }

  000ac	e1a00005	 mov         r0, r5
  000b0	e8bd43f0	 ldmia       sp!, {r4 - r9, lr}
  000b4	e12fff1e	 bx          lr
  000b8		 |$LN16@PrcmDomain@5|
  000b8		 |$LN17@PrcmDomain@5|
  000b8	00000000	 DCD         |??_C@_1EK@HCAJMEHB@?$AA?9?$AAP?$AAr?$AAc?$AAm?$AAD?$AAo?$AAm?$AAa?$AAi?$AAn?$AAS?$AAe?$AAt?$AAS?$AAl?$AAe?$AAe?$AAp?$AAD?$AAe?$AAp?$AAe?$AAn?$AAd?$AAe?$AAn?$AAc?$AAy?$AA?$CI?$AA?$CJ?$AA?$DN@|
  000bc		 |$LN18@PrcmDomain@5|
  000bc	00000000	 DCD         |s_DomainTable|
  000c0		 |$LN19@PrcmDomain@5|
  000c0	00000000	 DCD         |??_C@_1KC@MCEKLACC@?$AA?$CL?$AAP?$AAr?$AAc?$AAm?$AAD?$AAo?$AAm?$AAa?$AAi?$AAn?$AAS?$AAe?$AAt?$AAS?$AAl?$AAe?$AAe?$AAp?$AAD?$AAe?$AAp?$AAe?$AAn?$AAd?$AAe?$AAn?$AAc?$AAy?$AA?$CI?$AAp?$AAo@|
  000c4		 |$LN20@PrcmDomain@5|
  000c4	00000000	 DCD         |dpCurSettings|
  000c8		 |$M47723|

			 ENDP  ; |PrcmDomainSetSleepDependency|

	EXPORT	|PrcmDomainSetPowerState|
	EXPORT	|??_C@_1EA@IIPEHBKG@?$AA?$CL?$AAP?$AAr?$AAc?$AAm?$AAD?$AAo?$AAm?$AAa?$AAi?$AAn?$AAS?$AAe?$AAt?$AAP?$AAo?$AAw?$AAe?$AAr?$AAS?$AAt?$AAa?$AAt?$AAe?$AA?$CI?$AA?$CJ?$AA?$DN?$AA?$CF?$AAd?$AA?$AN?$AA?6?$AA?$AA@| [ DATA ] ; `string'
	EXPORT	|??_C@_1HM@KLIMMIKC@?$AA?$CL?$AAP?$AAr?$AAc?$AAm?$AAD?$AAo?$AAm?$AAa?$AAi?$AAn?$AAS?$AAe?$AAt?$AAP?$AAo?$AAw?$AAe?$AAr?$AAS?$AAt?$AAa?$AAt?$AAe?$AA?$CI?$AAp?$AAo?$AAw?$AAe?$AAr?$AAD?$AAo@| [ DATA ] ; `string'
	IMPORT	|OALGetTickCount|

  00000			 AREA	 |.pdata|, PDATA
|$T47754| DCD	|$LN15@PrcmDomain@6|
	DCD	0x40004301

  00000			 AREA	 |.rdata|, DATA, READONLY
|??_C@_1EA@IIPEHBKG@?$AA?$CL?$AAP?$AAr?$AAc?$AAm?$AAD?$AAo?$AAm?$AAa?$AAi?$AAn?$AAS?$AAe?$AAt?$AAP?$AAo?$AAw?$AAe?$AAr?$AAS?$AAt?$AAa?$AAt?$AAe?$AA?$CI?$AA?$CJ?$AA?$DN?$AA?$CF?$AAd?$AA?$AN?$AA?6?$AA?$AA@| DCB "+"
	DCB	0x0, "P", 0x0, "r", 0x0, "c", 0x0, "m", 0x0, "D", 0x0, "o"
	DCB	0x0, "m", 0x0, "a", 0x0, "i", 0x0, "n", 0x0, "S", 0x0, "e"
	DCB	0x0, "t", 0x0, "P", 0x0, "o", 0x0, "w", 0x0, "e", 0x0, "r"
	DCB	0x0, "S", 0x0, "t", 0x0, "a", 0x0, "t", 0x0, "e", 0x0, "("
	DCB	0x0, ")", 0x0, "=", 0x0, "%", 0x0, "d", 0x0, 0xd, 0x0, 0xa
	DCB	0x0, 0x0, 0x0				; `string'

  00000			 AREA	 |.rdata|, DATA, READONLY
|??_C@_1HM@KLIMMIKC@?$AA?$CL?$AAP?$AAr?$AAc?$AAm?$AAD?$AAo?$AAm?$AAa?$AAi?$AAn?$AAS?$AAe?$AAt?$AAP?$AAo?$AAw?$AAe?$AAr?$AAS?$AAt?$AAa?$AAt?$AAe?$AA?$CI?$AAp?$AAo?$AAw?$AAe?$AAr?$AAD?$AAo@| DCB "+"
	DCB	0x0, "P", 0x0, "r", 0x0, "c", 0x0, "m", 0x0, "D", 0x0, "o"
	DCB	0x0, "m", 0x0, "a", 0x0, "i", 0x0, "n", 0x0, "S", 0x0, "e"
	DCB	0x0, "t", 0x0, "P", 0x0, "o", 0x0, "w", 0x0, "e", 0x0, "r"
	DCB	0x0, "S", 0x0, "t", 0x0, "a", 0x0, "t", 0x0, "e", 0x0, "("
	DCB	0x0, "p", 0x0, "o", 0x0, "w", 0x0, "e", 0x0, "r", 0x0, "D"
	DCB	0x0, "o", 0x0, "m", 0x0, "a", 0x0, "i", 0x0, "n", 0x0, "="
	DCB	0x0, "%", 0x0, "d", 0x0, ",", 0x0, " ", 0x0, "p", 0x0, "o"
	DCB	0x0, "w", 0x0, "e", 0x0, "r", 0x0, "S", 0x0, "t", 0x0, "a"
	DCB	0x0, "t", 0x0, "e", 0x0, "=", 0x0, "0", 0x0, "x", 0x0, "%"
	DCB	0x0, "0", 0x0, "8", 0x0, "X", 0x0, ")", 0x0, 0xd, 0x0, 0xa
	DCB	0x0, 0x0, 0x0				; `string'
; Function compile flags: /Ogspy

  00000			 AREA	 |.text|, CODE, ARM

  00000		 |PrcmDomainSetPowerState| PROC

; 778  : {

  00000		 |$LN15@PrcmDomain@6|
  00000	e92d4ff0	 stmdb       sp!, {r4 - r11, lr}
  00004		 |$M47751|
  00004	e1a05002	 mov         r5, r2
  00008	e1a04001	 mov         r4, r1
  0000c	e1a07000	 mov         r7, r0

; 779  :     BOOL rc;
; 780  :     UINT temp;
; 781  :     UINT clockState = CLKSTCTRL_DISABLED;
; 782  :     UINT oldPowerState = (UINT)-1;
; 783  :     OMAP_CM_REGS *pCmRegs;
; 784  :     
; 785  :     OALMSG(OAL_FUNC, (L"+PrcmDomainSetPowerState"
; 786  :         L"(powerDomain=%d, powerState=0x%08X)\r\n", 
; 787  :         powerDomain, powerState));

  00010	e59fb0f0	 ldr         r11, [pc, #0xF0]
  00014	e3a08000	 mov         r8, #0
  00018	e3e06000	 mvn         r6, #0
  0001c	e59b3440	 ldr         r3, [r11, #0x440]
  00020	e3130004	 tst         r3, #4
  00024	159f00d8	 ldrne       r0, [pc, #0xD8]
  00028	11a02004	 movne       r2, r4
  0002c	11a01007	 movne       r1, r7
  00030	1b000000	 blne        NKDbgPrintfW

; 788  :     
; 789  :     // get old power states to check if power domain needs a sw wakeup
; 790  :     if (s_DomainTable[powerDomain].pClockStates != NULL)

  00034	e59f90c4	 ldr         r9, [pc, #0xC4]
  00038	e067a187	 rsb         r10, r7, r7, lsl #3

; 791  :         {
; 792  :         clockState = s_DomainTable[powerDomain].pClockStates->rgClockDomains[0].clockState;
; 793  :         }
; 794  : 
; 795  :     if (s_DomainTable[powerDomain].pDomainState != NULL)
; 796  :         {
; 797  :         oldPowerState = s_DomainTable[powerDomain].pDomainState->powerState;
; 798  :         }
; 799  :     
; 800  :     rc = PrcmDomainSetPowerStateInternal(powerDomain, powerState, logicState, TRUE);

  0003c	e1a02005	 mov         r2, r5
  00040	e089110a	 add         r1, r9, r10, lsl #2
  00044	e591300c	 ldr         r3, [r1, #0xC]
  00048	e1a00007	 mov         r0, r7
  0004c	e3530000	 cmp         r3, #0
  00050	15938008	 ldrne       r8, [r3, #8]
  00054	e5913008	 ldr         r3, [r1, #8]
  00058	e1a01004	 mov         r1, r4
  0005c	e3530000	 cmp         r3, #0
  00060	15936000	 ldrne       r6, [r3]
  00064	e3a03001	 mov         r3, #1
  00068	eb000000	 bl          PrcmDomainSetPowerStateInternal
  0006c	e1a05000	 mov         r5, r0

; 801  :     
; 802  :     // force a sleep to sleep transition through software since it
; 803  :     // isn't supported in hardware
; 804  :     if (oldPowerState != -1 && clockState == CLKSTCTRL_AUTOMATIC &&        
; 805  :         s_DomainTable[powerDomain].refCount == 0 && oldPowerState != powerState)

  00070	e3760001	 cmn         r6, #1
  00074	0a000018	 beq         |$LN3@PrcmDomain@6|
  00078	e3580003	 cmp         r8, #3
  0007c	1a000016	 bne         |$LN3@PrcmDomain@6|
  00080	e799310a	 ldr         r3, [r9, +r10, lsl #2]
  00084	e3530000	 cmp         r3, #0
  00088	1a000013	 bne         |$LN3@PrcmDomain@6|
  0008c	e1560004	 cmp         r6, r4
  00090	0a000011	 beq         |$LN3@PrcmDomain@6|

; 806  :         {        
; 807  :         pCmRegs = GetCmRegisterSet(powerDomain);

  00094	e1a00007	 mov         r0, r7
  00098	eb000000	 bl          GetCmRegisterSet
  0009c	e1a04000	 mov         r4, r0

; 808  :     
; 809  :         // force sw wake-up of power domain
; 810  :         temp = INREG32(&pCmRegs->CM_CLKSTCTRL_xxx);

  000a0	e5943048	 ldr         r3, [r4, #0x48]

; 811  :         temp &= ~CLKSTCTRL_MASK;
; 812  :         temp |= CLKSTCTRL_WAKEUP;

  000a4	e3c33003	 bic         r3, r3, #3
  000a8	e3833002	 orr         r3, r3, #2

; 813  :         OUTREG32(&pCmRegs->CM_CLKSTCTRL_xxx, temp);

  000ac	e5843048	 str         r3, [r4, #0x48]

; 814  : 
; 815  :         // wait for clock to be activated
; 816  :         temp = OALGetTickCount() + 1;

  000b0	eb000000	 bl          OALGetTickCount
  000b4	e2806001	 add         r6, r0, #1
  000b8		 |$LL2@PrcmDomain@6|

; 817  :         while (INREG32(&pCmRegs->CM_CLKSTST_xxx) == 0 && temp > OALGetTickCount());

  000b8	e594304c	 ldr         r3, [r4, #0x4C]
  000bc	e3530000	 cmp         r3, #0
  000c0	1a000002	 bne         |$LN1@PrcmDomain@6|
  000c4	eb000000	 bl          OALGetTickCount
  000c8	e1560000	 cmp         r6, r0
  000cc	8afffff9	 bhi         |$LL2@PrcmDomain@6|
  000d0		 |$LN1@PrcmDomain@6|

; 818  : 
; 819  :         // put clock back to automatic mode
; 820  :         temp = INREG32(&pCmRegs->CM_CLKSTCTRL_xxx);

  000d0	e5943048	 ldr         r3, [r4, #0x48]

; 821  :         temp &= ~CLKSTCTRL_MASK;
; 822  :         temp |= CLKSTCTRL_AUTOMATIC;

  000d4	e3833003	 orr         r3, r3, #3

; 823  :         OUTREG32(&pCmRegs->CM_CLKSTCTRL_xxx, temp);

  000d8	e5843048	 str         r3, [r4, #0x48]
  000dc		 |$LN3@PrcmDomain@6|

; 824  :         }
; 825  :     
; 826  :     OALMSG(OAL_FUNC, (L"+PrcmDomainSetPowerState()=%d\r\n", rc));

  000dc	e59b3440	 ldr         r3, [r11, #0x440]
  000e0	e3130004	 tst         r3, #4
  000e4	159f0010	 ldrne       r0, [pc, #0x10]
  000e8	11a01005	 movne       r1, r5
  000ec	1b000000	 blne        NKDbgPrintfW

; 827  :     return rc;
; 828  : }

  000f0	e1a00005	 mov         r0, r5
  000f4	e8bd4ff0	 ldmia       sp!, {r4 - r11, lr}
  000f8	e12fff1e	 bx          lr
  000fc		 |$LN16@PrcmDomain@6|
  000fc		 |$LN17@PrcmDomain@6|
  000fc	00000000	 DCD         |??_C@_1EA@IIPEHBKG@?$AA?$CL?$AAP?$AAr?$AAc?$AAm?$AAD?$AAo?$AAm?$AAa?$AAi?$AAn?$AAS?$AAe?$AAt?$AAP?$AAo?$AAw?$AAe?$AAr?$AAS?$AAt?$AAa?$AAt?$AAe?$AA?$CI?$AA?$CJ?$AA?$DN?$AA?$CF?$AAd?$AA?$AN?$AA?6?$AA?$AA@|
  00100		 |$LN18@PrcmDomain@6|
  00100	00000000	 DCD         |s_DomainTable|
  00104		 |$LN19@PrcmDomain@6|
  00104	00000000	 DCD         |??_C@_1HM@KLIMMIKC@?$AA?$CL?$AAP?$AAr?$AAc?$AAm?$AAD?$AAo?$AAm?$AAa?$AAi?$AAn?$AAS?$AAe?$AAt?$AAP?$AAo?$AAw?$AAe?$AAr?$AAS?$AAt?$AAa?$AAt?$AAe?$AA?$CI?$AAp?$AAo?$AAw?$AAe?$AAr?$AAD?$AAo@|
  00108		 |$LN20@PrcmDomain@6|
  00108	00000000	 DCD         |dpCurSettings|
  0010c		 |$M47752|

			 ENDP  ; |PrcmDomainSetPowerState|

	EXPORT	|PrcmDomainSetClockState|
	EXPORT	|??_C@_1EA@JEMFKOAK@?$AA?9?$AAP?$AAr?$AAc?$AAm?$AAD?$AAo?$AAm?$AAa?$AAi?$AAn?$AAS?$AAe?$AAt?$AAC?$AAl?$AAo?$AAc?$AAk?$AAS?$AAt?$AAa?$AAt?$AAe?$AA?$CI?$AA?$CJ?$AA?$DN?$AA?$CF?$AAd?$AA?$AN?$AA?6?$AA?$AA@| [ DATA ] ; `string'
	EXPORT	|??_C@_1JM@MEHAOEAE@?$AA?$CL?$AAP?$AAr?$AAc?$AAm?$AAD?$AAo?$AAm?$AAa?$AAi?$AAn?$AAS?$AAe?$AAt?$AAC?$AAl?$AAo?$AAc?$AAk?$AAS?$AAt?$AAa?$AAt?$AAe?$AA?$CI?$AAp?$AAo?$AAw?$AAe?$AAr?$AAD?$AAo@| [ DATA ] ; `string'

  00000			 AREA	 |.pdata|, PDATA
|$T47782| DCD	|$LN22@PrcmDomain@7|
	DCD	0x40004501

  00000			 AREA	 |.rdata|, DATA, READONLY
|??_C@_1EA@JEMFKOAK@?$AA?9?$AAP?$AAr?$AAc?$AAm?$AAD?$AAo?$AAm?$AAa?$AAi?$AAn?$AAS?$AAe?$AAt?$AAC?$AAl?$AAo?$AAc?$AAk?$AAS?$AAt?$AAa?$AAt?$AAe?$AA?$CI?$AA?$CJ?$AA?$DN?$AA?$CF?$AAd?$AA?$AN?$AA?6?$AA?$AA@| DCB "-"
	DCB	0x0, "P", 0x0, "r", 0x0, "c", 0x0, "m", 0x0, "D", 0x0, "o"
	DCB	0x0, "m", 0x0, "a", 0x0, "i", 0x0, "n", 0x0, "S", 0x0, "e"
	DCB	0x0, "t", 0x0, "C", 0x0, "l", 0x0, "o", 0x0, "c", 0x0, "k"
	DCB	0x0, "S", 0x0, "t", 0x0, "a", 0x0, "t", 0x0, "e", 0x0, "("
	DCB	0x0, ")", 0x0, "=", 0x0, "%", 0x0, "d", 0x0, 0xd, 0x0, 0xa
	DCB	0x0, 0x0, 0x0				; `string'

  00000			 AREA	 |.rdata|, DATA, READONLY
|??_C@_1JM@MEHAOEAE@?$AA?$CL?$AAP?$AAr?$AAc?$AAm?$AAD?$AAo?$AAm?$AAa?$AAi?$AAn?$AAS?$AAe?$AAt?$AAC?$AAl?$AAo?$AAc?$AAk?$AAS?$AAt?$AAa?$AAt?$AAe?$AA?$CI?$AAp?$AAo?$AAw?$AAe?$AAr?$AAD?$AAo@| DCB "+"
	DCB	0x0, "P", 0x0, "r", 0x0, "c", 0x0, "m", 0x0, "D", 0x0, "o"
	DCB	0x0, "m", 0x0, "a", 0x0, "i", 0x0, "n", 0x0, "S", 0x0, "e"
	DCB	0x0, "t", 0x0, "C", 0x0, "l", 0x0, "o", 0x0, "c", 0x0, "k"
	DCB	0x0, "S", 0x0, "t", 0x0, "a", 0x0, "t", 0x0, "e", 0x0, "("
	DCB	0x0, "p", 0x0, "o", 0x0, "w", 0x0, "e", 0x0, "r", 0x0, "D"
	DCB	0x0, "o", 0x0, "m", 0x0, "a", 0x0, "i", 0x0, "n", 0x0, "="
	DCB	0x0, "%", 0x0, "d", 0x0, ",", 0x0, " ", 0x0, "c", 0x0, "l"
	DCB	0x0, "o", 0x0, "c", 0x0, "k", 0x0, "D", 0x0, "o", 0x0, "m"
	DCB	0x0, "a", 0x0, "i", 0x0, "n", 0x0, "=", 0x0, "%", 0x0, "d"
	DCB	0x0, ",", 0x0, " ", 0x0, "c", 0x0, "l", 0x0, "o", 0x0, "c"
	DCB	0x0, "k", 0x0, "S", 0x0, "t", 0x0, "a", 0x0, "t", 0x0, "e"
	DCB	0x0, "=", 0x0, "0", 0x0, "x", 0x0, "%", 0x0, "0", 0x0, "8"
	DCB	0x0, "X", 0x0, ")", 0x0, 0xd, 0x0, 0xa, 0x0, 0x0, 0x0 ; `string'
; Function compile flags: /Ogspy

  00000			 AREA	 |.text|, CODE, ARM

  00000		 |PrcmDomainSetClockState| PROC

; 837  : {

  00000		 |$LN22@PrcmDomain@7|
  00000	e92d47f0	 stmdb       sp!, {r4 - r10, lr}
  00004		 |$M47779|
  00004	e1a0a002	 mov         r10, r2
  00008	e1a09001	 mov         r9, r1
  0000c	e1a06000	 mov         r6, r0

; 838  :     UINT i;
; 839  :     BOOL rc = FALSE;
; 840  :     ClockDomainInfo_t *pClockStates;
; 841  :     if (!g_bSingleThreaded)

  00010	e59f80f8	 ldr         r8, [pc, #0xF8]
  00014	e59f70f0	 ldr         r7, [pc, #0xF0]
  00018	e3a04000	 mov         r4, #0
  0001c	e5983000	 ldr         r3, [r8]
  00020	e3530000	 cmp         r3, #0
  00024	1a000006	 bne         |$LN19@PrcmDomain@7|

; 842  :         OALMSG(OAL_FUNC, (L"+PrcmDomainSetClockState"
; 843  :             L"(powerDomain=%d, clockDomain=%d, clockState=0x%08X)\r\n", 
; 844  :             powerDomain, clockDomain, clockState));

  00028	e5973440	 ldr         r3, [r7, #0x440]
  0002c	e3130004	 tst         r3, #4
  00030	159f00d0	 ldrne       r0, [pc, #0xD0]
  00034	11a0300a	 movne       r3, r10
  00038	11a02009	 movne       r2, r9
  0003c	11a01006	 movne       r1, r6
  00040	1b000000	 blne        NKDbgPrintfW
  00044		 |$LN19@PrcmDomain@7|

; 845  : 
; 846  :     if (powerDomain >= POWERDOMAIN_COUNT) goto cleanUp;

  00044	e356000c	 cmp         r6, #0xC
  00048	2a000021	 bcs         |$cleanUp$47234|

; 847  :     if ((s_DomainTable[powerDomain].ffValidationMask & DOMAIN_UPDATE_CLOCKSTATE) == 0) goto cleanUp;

  0004c	e59f20b0	 ldr         r2, [pc, #0xB0]
  00050	e0663186	 rsb         r3, r6, r6, lsl #3
  00054	e0822103	 add         r2, r2, r3, lsl #2
  00058	e5923004	 ldr         r3, [r2, #4]
  0005c	e3130008	 tst         r3, #8
  00060	0a00001b	 beq         |$cleanUp$47234|

; 848  : 
; 849  :     // update internal state information 
; 850  :     pClockStates = s_DomainTable[powerDomain].pClockStates;

  00064	e592300c	 ldr         r3, [r2, #0xC]
  00068	e1b05003	 movs        r5, r3

; 851  :     if (pClockStates == NULL) goto cleanUp;

  0006c	0a000018	 beq         |$cleanUp$47234|

; 852  : 
; 853  :     Lock(Mutex_Domain);

  00070	e3a00002	 mov         r0, #2
  00074	eb000000	 bl          Lock

; 854  :     for (i = 0; i < pClockStates->count; ++i)

  00078	e5953000	 ldr         r3, [r5]
  0007c	e3a01000	 mov         r1, #0
  00080	e1b00003	 movs        r0, r3
  00084	0a00000f	 beq         |$LN3@PrcmDomain@7|

; 852  : 
; 853  :     Lock(Mutex_Domain);

  00088	e1a02005	 mov         r2, r5
  0008c		 |$LL5@PrcmDomain@7|

; 855  :         {
; 856  :         if (pClockStates->rgClockDomains[i].clockDomain == (ClockDomain_e) clockDomain)

  0008c	e5923004	 ldr         r3, [r2, #4]
  00090	e1530009	 cmp         r3, r9
  00094	0a000004	 beq         |$LN17@PrcmDomain@7|
  00098	e2811001	 add         r1, r1, #1
  0009c	e1510000	 cmp         r1, r0
  000a0	e282200c	 add         r2, r2, #0xC
  000a4	3afffff8	 bcc         |$LL5@PrcmDomain@7|
  000a8	ea000006	 b           |$LN3@PrcmDomain@7|
  000ac		 |$LN17@PrcmDomain@7|

; 857  :             {
; 858  :             clockState &= CLKSTCTRL_MASK;
; 859  :             clockState >>= CLKSTCTRL_SHIFT;
; 860  :             pClockStates->rgClockDomains[i].clockState = clockState;

  000ac	e0813081	 add         r3, r1, r1, lsl #1
  000b0	e0852103	 add         r2, r5, r3, lsl #2
  000b4	e20a3003	 and         r3, r10, #3

; 861  :             _PrcmDomainHwUpdate(powerDomain, DOMAIN_UPDATE_CLOCKSTATE);

  000b8	e3a01008	 mov         r1, #8
  000bc	e1a00006	 mov         r0, r6
  000c0	e5823008	 str         r3, [r2, #8]
  000c4	eb000000	 bl          _PrcmDomainHwUpdate
  000c8		 |$LN3@PrcmDomain@7|

; 862  :             break;
; 863  :             }
; 864  :         }    
; 865  :     Unlock(Mutex_Domain);

  000c8	e3a00002	 mov         r0, #2
  000cc	eb000000	 bl          Unlock

; 866  :     rc = TRUE;

  000d0	e3a04001	 mov         r4, #1
  000d4		 |$cleanUp$47234|
  000d4	e5983000	 ldr         r3, [r8]

; 867  :     
; 868  : cleanUp:        
; 869  :     if (!g_bSingleThreaded)

  000d8	e3530000	 cmp         r3, #0
  000dc	1a000004	 bne         |$LN14@PrcmDomain@7|
  000e0	e5973440	 ldr         r3, [r7, #0x440]

; 870  :         OALMSG(OAL_FUNC, (L"-PrcmDomainSetClockState()=%d\r\n", rc));

  000e4	e3130004	 tst         r3, #4
  000e8	159f0010	 ldrne       r0, [pc, #0x10]
  000ec	11a01004	 movne       r1, r4
  000f0	1b000000	 blne        NKDbgPrintfW
  000f4		 |$LN14@PrcmDomain@7|

; 871  :     return rc;
; 872  : }

  000f4	e1a00004	 mov         r0, r4
  000f8	e8bd47f0	 ldmia       sp!, {r4 - r10, lr}
  000fc	e12fff1e	 bx          lr
  00100		 |$LN23@PrcmDomain@7|
  00100		 |$LN24@PrcmDomain@7|
  00100	00000000	 DCD         |??_C@_1EA@JEMFKOAK@?$AA?9?$AAP?$AAr?$AAc?$AAm?$AAD?$AAo?$AAm?$AAa?$AAi?$AAn?$AAS?$AAe?$AAt?$AAC?$AAl?$AAo?$AAc?$AAk?$AAS?$AAt?$AAa?$AAt?$AAe?$AA?$CI?$AA?$CJ?$AA?$DN?$AA?$CF?$AAd?$AA?$AN?$AA?6?$AA?$AA@|
  00104		 |$LN25@PrcmDomain@7|
  00104	00000000	 DCD         |s_DomainTable|
  00108		 |$LN26@PrcmDomain@7|
  00108	00000000	 DCD         |??_C@_1JM@MEHAOEAE@?$AA?$CL?$AAP?$AAr?$AAc?$AAm?$AAD?$AAo?$AAm?$AAa?$AAi?$AAn?$AAS?$AAe?$AAt?$AAC?$AAl?$AAo?$AAc?$AAk?$AAS?$AAt?$AAa?$AAt?$AAe?$AA?$CI?$AAp?$AAo?$AAw?$AAe?$AAr?$AAD?$AAo@|
  0010c		 |$LN27@PrcmDomain@7|
  0010c	00000000	 DCD         |dpCurSettings|
  00110		 |$LN28@PrcmDomain@7|
  00110	00000000	 DCD         |g_bSingleThreaded|
  00114		 |$M47780|

			 ENDP  ; |PrcmDomainSetClockState|

	EXPORT	|PrcmDomainSetClockStateKernel|

  00000			 AREA	 |.pdata|, PDATA
|$T47806| DCD	|$LN15@PrcmDomain@8|
	DCD	0x40002701
; Function compile flags: /Ogspy

  00000			 AREA	 |.text|, CODE, ARM

  00000		 |PrcmDomainSetClockStateKernel| PROC

; 884  : {

  00000		 |$LN15@PrcmDomain@8|
  00000	e92d40f0	 stmdb       sp!, {r4 - r7, lr}
  00004		 |$M47803|
  00004	e1a07002	 mov         r7, r2
  00008	e1a06000	 mov         r6, r0

; 885  :     UINT i;
; 886  :     BOOL rc = FALSE;

  0000c	e3a00000	 mov         r0, #0

; 887  :     ClockDomainInfo_t *pClockStates;
; 888  : 
; 889  :     if (powerDomain >= POWERDOMAIN_COUNT) goto cleanUp;

  00010	e356000c	 cmp         r6, #0xC
  00014	2a00001d	 bcs         |$cleanUp$47257|

; 890  :     if ((s_DomainTable[powerDomain].ffValidationMask & DOMAIN_UPDATE_CLOCKSTATE) == 0) goto cleanUp;

  00018	e59fe078	 ldr         lr, [pc, #0x78]
  0001c	e0663186	 rsb         r3, r6, r6, lsl #3
  00020	e08ee103	 add         lr, lr, r3, lsl #2
  00024	e59e3004	 ldr         r3, [lr, #4]
  00028	e3130008	 tst         r3, #8
  0002c	0a000017	 beq         |$cleanUp$47257|

; 891  : 
; 892  :     // update internal state information 
; 893  :     pClockStates = s_DomainTable[powerDomain].pClockStates;

  00030	e59e300c	 ldr         r3, [lr, #0xC]
  00034	e1b05003	 movs        r5, r3

; 894  :     if (pClockStates == NULL) goto cleanUp;

  00038	0a000014	 beq         |$cleanUp$47257|

; 895  : 
; 896  :     for (i = 0; i < pClockStates->count; ++i)

  0003c	e5953000	 ldr         r3, [r5]
  00040	e3a0e000	 mov         lr, #0
  00044	e1b00003	 movs        r0, r3
  00048	0a00000f	 beq         |$LN2@PrcmDomain@8|
  0004c	e1a04005	 mov         r4, r5
  00050		 |$LL4@PrcmDomain@8|

; 897  :         {
; 898  :         if (pClockStates->rgClockDomains[i].clockDomain == (ClockDomain_e) clockDomain)

  00050	e5943004	 ldr         r3, [r4, #4]
  00054	e1530001	 cmp         r3, r1
  00058	0a000004	 beq         |$LN11@PrcmDomain@8|
  0005c	e28ee001	 add         lr, lr, #1
  00060	e15e0000	 cmp         lr, r0
  00064	e284400c	 add         r4, r4, #0xC
  00068	3afffff8	 bcc         |$LL4@PrcmDomain@8|
  0006c	ea000006	 b           |$LN2@PrcmDomain@8|
  00070		 |$LN11@PrcmDomain@8|

; 899  :             {
; 900  :             clockState &= CLKSTCTRL_MASK;
; 901  :             clockState >>= CLKSTCTRL_SHIFT;
; 902  :             pClockStates->rgClockDomains[i].clockState = clockState;

  00070	e08e308e	 add         r3, lr, lr, lsl #1
  00074	e0852103	 add         r2, r5, r3, lsl #2
  00078	e2073003	 and         r3, r7, #3

; 903  :             _PrcmDomainHwUpdate(powerDomain, DOMAIN_UPDATE_CLOCKSTATE);

  0007c	e3a01008	 mov         r1, #8
  00080	e1a00006	 mov         r0, r6
  00084	e5823008	 str         r3, [r2, #8]
  00088	eb000000	 bl          _PrcmDomainHwUpdate
  0008c		 |$LN2@PrcmDomain@8|

; 904  :             break;
; 905  :             }
; 906  :         }    
; 907  :     rc = TRUE;

  0008c	e3a00001	 mov         r0, #1
  00090		 |$cleanUp$47257|

; 908  :     
; 909  : cleanUp:        
; 910  :     return rc;
; 911  : }

  00090	e8bd40f0	 ldmia       sp!, {r4 - r7, lr}
  00094	e12fff1e	 bx          lr
  00098		 |$LN16@PrcmDomain@8|
  00098		 |$LN17@PrcmDomain@8|
  00098	00000000	 DCD         |s_DomainTable|
  0009c		 |$M47804|

			 ENDP  ; |PrcmDomainSetClockStateKernel|

	EXPORT	|PrcmDomainSetMemoryState|
	EXPORT	|??_C@_1EC@GMFKPCKF@?$AA?9?$AAP?$AAr?$AAc?$AAm?$AAD?$AAo?$AAm?$AAa?$AAi?$AAn?$AAS?$AAe?$AAt?$AAM?$AAe?$AAm?$AAo?$AAr?$AAy?$AAS?$AAt?$AAa?$AAt?$AAe?$AA?$CI?$AA?$CJ?$AA?$DN?$AA?$CF?$AAd?$AA?$AN?$AA?6@| [ DATA ] ; `string'
	EXPORT	|??_C@_1LA@DDOCINBK@?$AA?$CL?$AAP?$AAr?$AAc?$AAm?$AAD?$AAo?$AAm?$AAa?$AAi?$AAn?$AAS?$AAe?$AAt?$AAM?$AAe?$AAm?$AAo?$AAr?$AAy?$AAS?$AAt?$AAa?$AAt?$AAe?$AA?$CI?$AAp?$AAo?$AAw?$AAe?$AAr?$AAD@| [ DATA ] ; `string'

  00000			 AREA	 |.pdata|, PDATA
|$T47827| DCD	|$LN11@PrcmDomain@9|
	DCD	0x40002e01

  00000			 AREA	 |.rdata|, DATA, READONLY
|??_C@_1EC@GMFKPCKF@?$AA?9?$AAP?$AAr?$AAc?$AAm?$AAD?$AAo?$AAm?$AAa?$AAi?$AAn?$AAS?$AAe?$AAt?$AAM?$AAe?$AAm?$AAo?$AAr?$AAy?$AAS?$AAt?$AAa?$AAt?$AAe?$AA?$CI?$AA?$CJ?$AA?$DN?$AA?$CF?$AAd?$AA?$AN?$AA?6@| DCB "-"
	DCB	0x0, "P", 0x0, "r", 0x0, "c", 0x0, "m", 0x0, "D", 0x0, "o"
	DCB	0x0, "m", 0x0, "a", 0x0, "i", 0x0, "n", 0x0, "S", 0x0, "e"
	DCB	0x0, "t", 0x0, "M", 0x0, "e", 0x0, "m", 0x0, "o", 0x0, "r"
	DCB	0x0, "y", 0x0, "S", 0x0, "t", 0x0, "a", 0x0, "t", 0x0, "e"
	DCB	0x0, "(", 0x0, ")", 0x0, "=", 0x0, "%", 0x0, "d", 0x0, 0xd
	DCB	0x0, 0xa, 0x0, 0x0, 0x0			; `string'

  00000			 AREA	 |.rdata|, DATA, READONLY
|??_C@_1LA@DDOCINBK@?$AA?$CL?$AAP?$AAr?$AAc?$AAm?$AAD?$AAo?$AAm?$AAa?$AAi?$AAn?$AAS?$AAe?$AAt?$AAM?$AAe?$AAm?$AAo?$AAr?$AAy?$AAS?$AAt?$AAa?$AAt?$AAe?$AA?$CI?$AAp?$AAo?$AAw?$AAe?$AAr?$AAD@| DCB "+"
	DCB	0x0, "P", 0x0, "r", 0x0, "c", 0x0, "m", 0x0, "D", 0x0, "o"
	DCB	0x0, "m", 0x0, "a", 0x0, "i", 0x0, "n", 0x0, "S", 0x0, "e"
	DCB	0x0, "t", 0x0, "M", 0x0, "e", 0x0, "m", 0x0, "o", 0x0, "r"
	DCB	0x0, "y", 0x0, "S", 0x0, "t", 0x0, "a", 0x0, "t", 0x0, "e"
	DCB	0x0, "(", 0x0, "p", 0x0, "o", 0x0, "w", 0x0, "e", 0x0, "r"
	DCB	0x0, "D", 0x0, "o", 0x0, "m", 0x0, "a", 0x0, "i", 0x0, "n"
	DCB	0x0, "=", 0x0, "%", 0x0, "d", 0x0, ",", 0x0, " ", 0x0, "m"
	DCB	0x0, "e", 0x0, "m", 0x0, "o", 0x0, "r", 0x0, "y", 0x0, "S"
	DCB	0x0, "t", 0x0, "a", 0x0, "t", 0x0, "e", 0x0, "=", 0x0, "0"
	DCB	0x0, "x", 0x0, "%", 0x0, "0", 0x0, "8", 0x0, "X", 0x0, ","
	DCB	0x0, " ", 0x0, "m", 0x0, "e", 0x0, "m", 0x0, "o", 0x0, "r"
	DCB	0x0, "y", 0x0, "S", 0x0, "t", 0x0, "a", 0x0, "t", 0x0, "e"
	DCB	0x0, "M", 0x0, "a", 0x0, "s", 0x0, "k", 0x0, "=", 0x0, "0"
	DCB	0x0, "x", 0x0, "%", 0x0, "0", 0x0, "8", 0x0, "X", 0x0, ")"
	DCB	0x0, 0xd, 0x0, 0xa, 0x0, 0x0, 0x0	; `string'
; Function compile flags: /Ogspy

  00000			 AREA	 |.text|, CODE, ARM

  00000		 |PrcmDomainSetMemoryState| PROC

; 915  : {

  00000		 |$LN11@PrcmDomain@9|
  00000	e92d43f0	 stmdb       sp!, {r4 - r9, lr}
  00004		 |$M47824|
  00004	e1a06002	 mov         r6, r2
  00008	e1a07001	 mov         r7, r1
  0000c	e1a05000	 mov         r5, r0

; 916  :     UINT val;    
; 917  :     BOOL rc = FALSE;
; 918  :     OMAP_PRM_REGS *pPrmRegs;
; 919  :     
; 920  :     OALMSG(OAL_FUNC, (L"+PrcmDomainSetMemoryState"
; 921  :         L"(powerDomain=%d, memoryState=0x%08X, memoryStateMask=0x%08X)\r\n", 
; 922  :         powerDomain, memoryState, memoryStateMask));

  00010	e59f809c	 ldr         r8, [pc, #0x9C]
  00014	e3a04000	 mov         r4, #0
  00018	e5983440	 ldr         r3, [r8, #0x440]
  0001c	e3130004	 tst         r3, #4
  00020	159f0088	 ldrne       r0, [pc, #0x88]
  00024	11a03006	 movne       r3, r6
  00028	11a02007	 movne       r2, r7
  0002c	11a01005	 movne       r1, r5
  00030	1b000000	 blne        NKDbgPrintfW

; 923  : 
; 924  :     pPrmRegs = GetPrmRegisterSet(powerDomain);

  00034	e1a00005	 mov         r0, r5
  00038	eb000000	 bl          GetPrmRegisterSet
  0003c	e1b09000	 movs        r9, r0

; 925  :     if (pPrmRegs == NULL) goto cleanUp;

  00040	0a000010	 beq         |$cleanUp$47280|

; 926  : 
; 927  :     Lock(Mutex_Domain);

  00044	e3a00002	 mov         r0, #2
  00048	eb000000	 bl          Lock

; 928  :     // update cached logic state
; 929  :     if (memoryStateMask & LOGICRETSTATE)

  0004c	e3160004	 tst         r6, #4

; 930  : 	{
; 931  :         s_DomainTable[powerDomain].pDomainState->logicState = memoryState & LOGICRETSTATE_MASK;

  00050	159f2054	 ldrne       r2, [pc, #0x54]
  00054	10653185	 rsbne       r3, r5, r5, lsl #3
  00058	12071004	 andne       r1, r7, #4
  0005c	10823103	 addne       r3, r2, r3, lsl #2
  00060	15933008	 ldrne       r3, [r3, #8]

; 932  : 	}
; 933  :     
; 934  :     memoryState &= memoryStateMask;
; 935  :     val = INREG32(&pPrmRegs->PM_PWSTCTRL_xxx) & ~memoryStateMask;

  00064	e0072006	 and         r2, r7, r6

; 936  :     val |= memoryState;
; 937  :     OUTREG32(&pPrmRegs->PM_PWSTCTRL_xxx, val);
; 938  :     Unlock(Mutex_Domain);

  00068	e3a00002	 mov         r0, #2
  0006c	15831004	 strne       r1, [r3, #4]
  00070	e59930e0	 ldr         r3, [r9, #0xE0]
  00074	e1c33006	 bic         r3, r3, r6
  00078	e1823003	 orr         r3, r2, r3
  0007c	e58930e0	 str         r3, [r9, #0xE0]
  00080	eb000000	 bl          Unlock

; 939  :     
; 940  :     rc = TRUE;

  00084	e3a04001	 mov         r4, #1
  00088		 |$cleanUp$47280|

; 941  :     
; 942  : cleanUp:        
; 943  :     OALMSG(OAL_FUNC, (L"-PrcmDomainSetMemoryState()=%d\r\n", rc));

  00088	e5983440	 ldr         r3, [r8, #0x440]
  0008c	e3130004	 tst         r3, #4
  00090	159f0010	 ldrne       r0, [pc, #0x10]
  00094	11a01004	 movne       r1, r4
  00098	1b000000	 blne        NKDbgPrintfW

; 944  :     return rc;
; 945  : }

  0009c	e1a00004	 mov         r0, r4
  000a0	e8bd43f0	 ldmia       sp!, {r4 - r9, lr}
  000a4	e12fff1e	 bx          lr
  000a8		 |$LN12@PrcmDomain@9|
  000a8		 |$LN13@PrcmDomain@9|
  000a8	00000000	 DCD         |??_C@_1EC@GMFKPCKF@?$AA?9?$AAP?$AAr?$AAc?$AAm?$AAD?$AAo?$AAm?$AAa?$AAi?$AAn?$AAS?$AAe?$AAt?$AAM?$AAe?$AAm?$AAo?$AAr?$AAy?$AAS?$AAt?$AAa?$AAt?$AAe?$AA?$CI?$AA?$CJ?$AA?$DN?$AA?$CF?$AAd?$AA?$AN?$AA?6@|
  000ac		 |$LN14@PrcmDomain@9|
  000ac	00000000	 DCD         |s_DomainTable|
  000b0		 |$LN15@PrcmDomain@9|
  000b0	00000000	 DCD         |??_C@_1LA@DDOCINBK@?$AA?$CL?$AAP?$AAr?$AAc?$AAm?$AAD?$AAo?$AAm?$AAa?$AAi?$AAn?$AAS?$AAe?$AAt?$AAM?$AAe?$AAm?$AAo?$AAr?$AAy?$AAS?$AAt?$AAa?$AAt?$AAe?$AA?$CI?$AAp?$AAo?$AAw?$AAe?$AAr?$AAD@|
  000b4		 |$LN16@PrcmDomain@9|
  000b4	00000000	 DCD         |dpCurSettings|
  000b8		 |$M47825|

			 ENDP  ; |PrcmDomainSetMemoryState|

	EXPORT	|PrcmDomainClearWakeupStatus|

  00000			 AREA	 |.pdata|, PDATA
|$T47846| DCD	|$LN7@PrcmDomain@10|
	DCD	0x40000f01
; Function compile flags: /Ogspy

  00000			 AREA	 |.text|, CODE, ARM

  00000		 |PrcmDomainClearWakeupStatus| PROC

; 957  : {

  00000		 |$LN7@PrcmDomain@10|
  00000	e92d4030	 stmdb       sp!, {r4, r5, lr}
  00004		 |$M47843|
  00004	e1a05000	 mov         r5, r0

; 958  :     UINT val;    
; 959  :     BOOL rc = FALSE;
; 960  :     OMAP_PRM_REGS *pPrmRegs;
; 961  :     //OALMSG(OAL_FUNC, (L"+PrcmDomainClearWakeupStatus"
; 962  :     //    L"(powerDomain=%d)\r\n", 
; 963  :     //    powerDomain)
; 964  :     //    );
; 965  : 
; 966  :     pPrmRegs = GetPrmRegisterSet(powerDomain);

  00008	e3a04000	 mov         r4, #0
  0000c	eb000000	 bl          GetPrmRegisterSet
  00010	e3500000	 cmp         r0, #0

; 967  :     if (pPrmRegs == NULL) goto cleanUp;

  00014	0a000005	 beq         |$cleanUp$47295|

; 968  : 
; 969  :     // This routine should only be called during system boot-up or
; 970  :     // from OEMIdle, OEMPowerOff.  Hence, serialization within this routine
; 971  :     // should not be performed.
; 972  : 
; 973  :     val = INREG32(&pPrmRegs->PM_WKST_xxx);

  00018	e59030b0	 ldr         r3, [r0, #0xB0]

; 974  :     OUTREG32(&pPrmRegs->PM_WKST_xxx, val);
; 975  :     if (powerDomain == POWERDOMAIN_CORE) 

  0001c	e3550001	 cmp         r5, #1

; 976  :         {
; 977  :         val = INREG32(&pPrmRegs->PM_WKST3_xxx);
; 978  :         OUTREG32(&pPrmRegs->PM_WKST3_xxx, val);
; 979  :         }
; 980  :     
; 981  :     rc = TRUE;

  00020	e3a04001	 mov         r4, #1
  00024	e58030b0	 str         r3, [r0, #0xB0]
  00028	059030b8	 ldreq       r3, [r0, #0xB8]
  0002c	058030b8	 streq       r3, [r0, #0xB8]
  00030		 |$cleanUp$47295|

; 982  :     
; 983  : cleanUp:        
; 984  :     //OALMSG(OAL_FUNC, (L"-PrcmDomainClearWakeupStatus()=%d\r\n", rc));
; 985  :     return rc;
; 986  : }

  00030	e1a00004	 mov         r0, r4
  00034	e8bd4030	 ldmia       sp!, {r4, r5, lr}
  00038	e12fff1e	 bx          lr
  0003c		 |$M47844|

			 ENDP  ; |PrcmDomainClearWakeupStatus|

	EXPORT	|PrcmDomainUpdateRefCount|
	IMPORT	|InterlockedDecrement|
	IMPORT	|InterlockedIncrement|

  00000			 AREA	 |.pdata|, PDATA
|$T47855| DCD	|$LN7@PrcmDomain@11|
	DCD	0x40000d01
; Function compile flags: /Ogspy

  00000			 AREA	 |.text|, CODE, ARM

  00000		 |PrcmDomainUpdateRefCount| PROC

; 994  : {    

  00000		 |$LN7@PrcmDomain@11|
  00000	e52de004	 str         lr, [sp, #-4]!
  00004		 |$M47852|
  00004	e3510000	 cmp         r1, #0

; 995  :     // update refcount
; 996  :     if (bEnable)
; 997  :         {
; 998  :         InterlockedIncrement((LONG*)&s_DomainTable[powerDomain].refCount);

  00008	e59f2020	 ldr         r2, [pc, #0x20]
  0000c	e0603180	 rsb         r3, r0, r0, lsl #3
  00010	e0820103	 add         r0, r2, r3, lsl #2
  00014	0a000002	 beq         |$LN2@PrcmDomain@11|
  00018	eb000000	 bl          InterlockedIncrement

; 1003 :         }
; 1004 : }

  0001c	e49de004	 ldr         lr, [sp], #4
  00020	e12fff1e	 bx          lr
  00024		 |$LN2@PrcmDomain@11|

; 999  :         }
; 1000 :     else
; 1001 :         {
; 1002 :         InterlockedDecrement((LONG*)&s_DomainTable[powerDomain].refCount);

  00024	eb000000	 bl          InterlockedDecrement

; 1003 :         }
; 1004 : }

  00028	e49de004	 ldr         lr, [sp], #4
  0002c	e12fff1e	 bx          lr
  00030		 |$LN8@PrcmDomain@11|
  00030		 |$LN9@PrcmDomain@11|
  00030	00000000	 DCD         |s_DomainTable|
  00034		 |$M47853|

			 ENDP  ; |PrcmDomainUpdateRefCount|

	EXPORT	|PrcmProcessPostMpuWakeup|
	IMPORT	|g_pPrcmPrm|

  00000			 AREA	 |.pdata|, PDATA
|$T47871| DCD	|$LN12@PrcmProces|
	DCD	0x40005600
; Function compile flags: /Ogspy

  00000			 AREA	 |.text|, CODE, ARM

  00000		 |PrcmProcessPostMpuWakeup| PROC

; 1009 : {

  00000		 |$LN12@PrcmProces|
  00000		 |$M47868|

; 1010 :     // NOTE:
; 1011 :     //  This routine should only be called in OEMIdle where IRQ's are disabled
; 1012 :     //
; 1013 :     DWORD val;
; 1014 : 
; 1015 :     // core
; 1016 :     OUTREG32(&g_pPrcmPrm->pOMAP_CORE_PRM->PM_WKST1_CORE,
; 1017 :         INREG32(&g_pPrcmPrm->pOMAP_CORE_PRM->PM_WKST1_CORE)
; 1018 :         );

  00000	e59f114c	 ldr         r1, [pc, #0x14C]

; 1019 : 
; 1020 :     OUTREG32(&g_pPrcmPrm->pOMAP_CORE_PRM->PM_WKST3_CORE,
; 1021 :         INREG32(&g_pPrcmPrm->pOMAP_CORE_PRM->PM_WKST3_CORE)
; 1022 :         );
; 1023 : 
; 1024 :     // peripheral
; 1025 :     OUTREG32(&g_pPrcmPrm->pOMAP_PER_PRM->PM_WKST_PER,
; 1026 :         INREG32(&g_pPrcmPrm->pOMAP_PER_PRM->PM_WKST_PER)
; 1027 :         );
; 1028 : 
; 1029 :     // usbhost
; 1030 :     OUTREG32(&g_pPrcmPrm->pOMAP_USBHOST_PRM->PM_WKST_USBHOST,
; 1031 :         INREG32(&g_pPrcmPrm->pOMAP_USBHOST_PRM->PM_WKST_USBHOST)
; 1032 :         );
; 1033 : 
; 1034 :     // clear irq status for mpu
; 1035 :     val = INREG32(&g_pPrcmPrm->pOMAP_OCP_SYSTEM_PRM->PRM_IRQSTATUS_MPU);
; 1036 :     OUTREG32(&g_pPrcmPrm->pOMAP_OCP_SYSTEM_PRM->PRM_IRQSTATUS_MPU, 
; 1037 :         val & PRM_IRQENABLE_WKUP_EN
; 1038 :         );
; 1039 : 
; 1040 :     // clear device context state table
; 1041 : 
; 1042 :     // core
; 1043 :     val = INREG32(&g_pPrcmPrm->pOMAP_CORE_PRM->PM_PREPWSTST_CORE);
; 1044 :     if (((val & POWERSTATE_MASK) == POWERSTATE_OFF) || \
; 1045 :         (((val & POWERSTATE_MASK) == POWERSTATE_RETENTION) && \
; 1046 :          ((val & LOGICRETSTATE_MASK) == LOGICRETSTATE_LOGICOFF_DOMAINRET)))

  00004	e59f0144	 ldr         r0, [pc, #0x144]
  00008	e5913000	 ldr         r3, [r1]
  0000c	e5932004	 ldr         r2, [r3, #4]
  00010	e59230b0	 ldr         r3, [r2, #0xB0]
  00014	e58230b0	 str         r3, [r2, #0xB0]
  00018	e5913000	 ldr         r3, [r1]
  0001c	e5932004	 ldr         r2, [r3, #4]
  00020	e59230b8	 ldr         r3, [r2, #0xB8]
  00024	e58230b8	 str         r3, [r2, #0xB8]
  00028	e5913000	 ldr         r3, [r1]
  0002c	e5932008	 ldr         r2, [r3, #8]
  00030	e59230b0	 ldr         r3, [r2, #0xB0]
  00034	e58230b0	 str         r3, [r2, #0xB0]
  00038	e5913000	 ldr         r3, [r1]
  0003c	e593200c	 ldr         r2, [r3, #0xC]
  00040	e59230b0	 ldr         r3, [r2, #0xB0]
  00044	e58230b0	 str         r3, [r2, #0xB0]
  00048	e5913000	 ldr         r3, [r1]
  0004c	e5932030	 ldr         r2, [r3, #0x30]
  00050	e5923018	 ldr         r3, [r2, #0x18]
  00054	e2033001	 and         r3, r3, #1
  00058	e5823018	 str         r3, [r2, #0x18]
  0005c	e5912000	 ldr         r2, [r1]
  00060	e5923004	 ldr         r3, [r2, #4]
  00064	e59330e8	 ldr         r3, [r3, #0xE8]
  00068	e2131003	 ands        r1, r3, #3
  0006c	0a000003	 beq         |$LN6@PrcmProces|
  00070	e3510001	 cmp         r1, #1
  00074	1a000007	 bne         |$LN7@PrcmProces|
  00078	e3130004	 tst         r3, #4
  0007c	1a000005	 bne         |$LN7@PrcmProces|
  00080		 |$LN6@PrcmProces|

; 1047 :         {
; 1048 :         // clear domain device context state
; 1049 :         s_DomainTable[POWERDOMAIN_CORE].rgDeviceContextState[0] = 0;

  00080	e3a03000	 mov         r3, #0
  00084	e580302c	 str         r3, [r0, #0x2C]

; 1050 :         s_DomainTable[POWERDOMAIN_CORE].rgDeviceContextState[1] = 0;

  00088	e3a03000	 mov         r3, #0
  0008c	e5803030	 str         r3, [r0, #0x30]

; 1051 :         s_DomainTable[POWERDOMAIN_CORE].rgDeviceContextState[2] = 0;

  00090	e3a03000	 mov         r3, #0
  00094	e5803034	 str         r3, [r0, #0x34]
  00098		 |$LN7@PrcmProces|

; 1052 :         }
; 1053 : 
; 1054 :     // peripheral
; 1055 :     val = INREG32(&g_pPrcmPrm->pOMAP_PER_PRM->PM_PREPWSTST_PER);

  00098	e5923008	 ldr         r3, [r2, #8]
  0009c	e59330e8	 ldr         r3, [r3, #0xE8]

; 1056 :     if ((val & POWERSTATE_MASK) == POWERSTATE_OFF)

  000a0	e3130003	 tst         r3, #3

; 1057 :         {
; 1058 :         // clear domain device context state
; 1059 :         s_DomainTable[POWERDOMAIN_PERIPHERAL].rgDeviceContextState[0] = 0;

  000a4	03a03000	 moveq       r3, #0
  000a8	05803048	 streq       r3, [r0, #0x48]

; 1060 :         s_DomainTable[POWERDOMAIN_PERIPHERAL].rgDeviceContextState[1] = 0;

  000ac	03a03000	 moveq       r3, #0
  000b0	0580304c	 streq       r3, [r0, #0x4C]

; 1061 :         s_DomainTable[POWERDOMAIN_PERIPHERAL].rgDeviceContextState[2] = 0;

  000b4	03a03000	 moveq       r3, #0
  000b8	05803050	 streq       r3, [r0, #0x50]

; 1062 :         }
; 1063 : 
; 1064 :     // dss
; 1065 :     val = INREG32(&g_pPrcmPrm->pOMAP_DSS_PRM->PM_PREPWSTST_DSS);

  000bc	e5923018	 ldr         r3, [r2, #0x18]
  000c0	e59330e8	 ldr         r3, [r3, #0xE8]

; 1066 :     if ((val & POWERSTATE_MASK) == POWERSTATE_OFF)

  000c4	e3130003	 tst         r3, #3

; 1067 :         {
; 1068 :         // clear domain device context state
; 1069 :         s_DomainTable[POWERDOMAIN_DSS].rgDeviceContextState[0] = 0;

  000c8	03a03000	 moveq       r3, #0
  000cc	058030b8	 streq       r3, [r0, #0xB8]

; 1070 :         s_DomainTable[POWERDOMAIN_DSS].rgDeviceContextState[1] = 0;

  000d0	03a03000	 moveq       r3, #0
  000d4	058030bc	 streq       r3, [r0, #0xBC]

; 1071 :         s_DomainTable[POWERDOMAIN_DSS].rgDeviceContextState[2] = 0;

  000d8	03a03000	 moveq       r3, #0
  000dc	058030c0	 streq       r3, [r0, #0xC0]

; 1072 :         }
; 1073 : 
; 1074 :     // usbhost
; 1075 :     val = INREG32(&g_pPrcmPrm->pOMAP_USBHOST_PRM->PM_PREPWSTST_USBHOST);

  000e0	e592300c	 ldr         r3, [r2, #0xC]
  000e4	e59330e8	 ldr         r3, [r3, #0xE8]

; 1076 :     if ((val & POWERSTATE_MASK) == POWERSTATE_OFF)

  000e8	e3130003	 tst         r3, #3

; 1077 :         {
; 1078 :         // clear domain device context state
; 1079 :         s_DomainTable[POWERDOMAIN_USBHOST].rgDeviceContextState[0] = 0;

  000ec	03a03000	 moveq       r3, #0
  000f0	05803064	 streq       r3, [r0, #0x64]

; 1080 :         s_DomainTable[POWERDOMAIN_USBHOST].rgDeviceContextState[1] = 0;

  000f4	03a03000	 moveq       r3, #0
  000f8	05803068	 streq       r3, [r0, #0x68]

; 1081 :         s_DomainTable[POWERDOMAIN_USBHOST].rgDeviceContextState[2] = 0;

  000fc	03a03000	 moveq       r3, #0
  00100	0580306c	 streq       r3, [r0, #0x6C]

; 1082 :         }
; 1083 : 
; 1084 :     // camera
; 1085 :     val = INREG32(&g_pPrcmPrm->pOMAP_CAM_PRM->PM_PREPWSTST_CAM);

  00104	e5923024	 ldr         r3, [r2, #0x24]
  00108	e59330e8	 ldr         r3, [r3, #0xE8]

; 1086 :     if ((val & POWERSTATE_MASK) == POWERSTATE_OFF)

  0010c	e3130003	 tst         r3, #3

; 1087 :         {
; 1088 :         // clear domain device context state
; 1089 :         s_DomainTable[POWERDOMAIN_CAMERA].rgDeviceContextState[0] = 0;

  00110	03a03000	 moveq       r3, #0
  00114	058030f0	 streq       r3, [r0, #0xF0]

; 1090 :         s_DomainTable[POWERDOMAIN_CAMERA].rgDeviceContextState[1] = 0;

  00118	03a03000	 moveq       r3, #0
  0011c	058030f4	 streq       r3, [r0, #0xF4]

; 1091 :         s_DomainTable[POWERDOMAIN_CAMERA].rgDeviceContextState[2] = 0;

  00120	03a03000	 moveq       r3, #0
  00124	058030f8	 streq       r3, [r0, #0xF8]

; 1092 :         }
; 1093 : 
; 1094 :     // sgx
; 1095 :     val = INREG32(&g_pPrcmPrm->pOMAP_SGX_PRM->PM_PREPWSTST_SGX);

  00128	e5923028	 ldr         r3, [r2, #0x28]
  0012c	e59330e8	 ldr         r3, [r3, #0xE8]

; 1096 :     if ((val & POWERSTATE_MASK) == POWERSTATE_OFF)

  00130	e3130003	 tst         r3, #3

; 1097 :         {
; 1098 :         // clear domain device context state
; 1099 :         s_DomainTable[POWERDOMAIN_SGX].rgDeviceContextState[0] = 0;

  00134	03a03000	 moveq       r3, #0
  00138	0580310c	 streq       r3, [r0, #0x10C]

; 1100 :         s_DomainTable[POWERDOMAIN_SGX].rgDeviceContextState[1] = 0;

  0013c	03a03000	 moveq       r3, #0
  00140	05803110	 streq       r3, [r0, #0x110]

; 1101 :         s_DomainTable[POWERDOMAIN_SGX].rgDeviceContextState[2] = 0;

  00144	03a03000	 moveq       r3, #0
  00148	05803114	 streq       r3, [r0, #0x114]

; 1102 :         }
; 1103 : 
; 1104 :     // IVA2
; 1105 :     /*val = INREG32(&g_pPrcmPrm->pOMAP_IVA2_PRM->PM_PREPWSTST_IVA2);
; 1106 :     if ((val & POWERSTATE_MASK) == POWERSTATE_OFF)
; 1107 :         {
; 1108 :         // clear domain device context state
; 1109 :         s_DomainTable[POWERDOMAIN_IVA2].rgDeviceContextState[0] = 0;
; 1110 :         s_DomainTable[POWERDOMAIN_IVA2].rgDeviceContextState[1] = 0;
; 1111 :         s_DomainTable[POWERDOMAIN_IVA2].rgDeviceContextState[2] = 0;
; 1112 :         }*/
; 1113 : 
; 1114 : }

  0014c	e12fff1e	 bx          lr
  00150		 |$LN13@PrcmProces|
  00150		 |$LN14@PrcmProces|
  00150	00000000	 DCD         |s_DomainTable|
  00154		 |$LN15@PrcmProces|
  00154	00000000	 DCD         |g_pPrcmPrm|
  00158		 |$M47869|

			 ENDP  ; |PrcmProcessPostMpuWakeup|

	EXPORT	|PrcmDomainClearReset|

  00000			 AREA	 |.pdata|, PDATA
|$T47881| DCD	|$LN5@PrcmDomain@12|
	DCD	0x40002300
; Function compile flags: /Ogspy

  00000			 AREA	 |.text|, CODE, ARM

  00000		 |PrcmDomainClearReset| PROC

; 1119 : {

  00000		 |$LN5@PrcmDomain@12|
  00000		 |$M47878|

; 1120 :     // Clear the Resest states
; 1121 :     OUTREG32(&g_pPrcmPrm->pOMAP_CORE_PRM->RM_RSTST_CORE, 
; 1122 :             INREG32(&g_pPrcmPrm->pOMAP_CORE_PRM->RM_RSTST_CORE)); 

  00000	e59f1080	 ldr         r1, [pc, #0x80]
  00004	e5913000	 ldr         r3, [r1]
  00008	e5932004	 ldr         r2, [r3, #4]
  0000c	e5923058	 ldr         r3, [r2, #0x58]
  00010	e5823058	 str         r3, [r2, #0x58]

; 1123 : 
; 1124 :     OUTREG32(&g_pPrcmPrm->pOMAP_MPU_PRM->RM_RSTST_MPU, 
; 1125 :             INREG32(&g_pPrcmPrm->pOMAP_MPU_PRM->RM_RSTST_MPU)); 

  00014	e5913000	 ldr         r3, [r1]
  00018	e5932014	 ldr         r2, [r3, #0x14]
  0001c	e5923058	 ldr         r3, [r2, #0x58]
  00020	e5823058	 str         r3, [r2, #0x58]

; 1126 : 
; 1127 :     OUTREG32(&g_pPrcmPrm->pOMAP_EMU_PRM->RM_RSTST_EMU, 
; 1128 :             INREG32(&g_pPrcmPrm->pOMAP_EMU_PRM->RM_RSTST_EMU)); 

  00024	e5913000	 ldr         r3, [r1]
  00028	e5932010	 ldr         r2, [r3, #0x10]
  0002c	e5923058	 ldr         r3, [r2, #0x58]
  00030	e5823058	 str         r3, [r2, #0x58]

; 1129 : 
; 1130 :     OUTREG32(&g_pPrcmPrm->pOMAP_PER_PRM->RM_RSTST_PER,
; 1131 :             INREG32(&g_pPrcmPrm->pOMAP_PER_PRM->RM_RSTST_PER)); 

  00034	e5913000	 ldr         r3, [r1]
  00038	e5932008	 ldr         r2, [r3, #8]
  0003c	e5923058	 ldr         r3, [r2, #0x58]
  00040	e5823058	 str         r3, [r2, #0x58]

; 1132 : 
; 1133 :     /*OUTREG32(&g_pPrcmPrm->pOMAP_IVA2_PRM->RM_RSTST_IVA2,
; 1134 :             INREG32(&g_pPrcmPrm->pOMAP_IVA2_PRM->RM_RSTST_IVA2)); */
; 1135 : 
; 1136 :     OUTREG32(&g_pPrcmPrm->pOMAP_SGX_PRM->RM_RSTST_SGX,
; 1137 :             INREG32(&g_pPrcmPrm->pOMAP_SGX_PRM->RM_RSTST_SGX)); 

  00044	e5913000	 ldr         r3, [r1]
  00048	e5932028	 ldr         r2, [r3, #0x28]
  0004c	e5923058	 ldr         r3, [r2, #0x58]
  00050	e5823058	 str         r3, [r2, #0x58]

; 1138 : 
; 1139 :     OUTREG32(&g_pPrcmPrm->pOMAP_DSS_PRM->RM_RSTST_DSS,
; 1140 :             INREG32(&g_pPrcmPrm->pOMAP_DSS_PRM->RM_RSTST_DSS)); 

  00054	e5913000	 ldr         r3, [r1]
  00058	e5932018	 ldr         r2, [r3, #0x18]
  0005c	e5923058	 ldr         r3, [r2, #0x58]
  00060	e5823058	 str         r3, [r2, #0x58]

; 1141 : 
; 1142 :     /*OUTREG32(&g_pPrcmPrm->pOMAP_CAM_PRM->RM_RSTST_CAM,
; 1143 :             INREG32(&g_pPrcmPrm->pOMAP_CAM_PRM->RM_RSTST_CAM)); */
; 1144 : 
; 1145 :     OUTREG32(&g_pPrcmPrm->pOMAP_NEON_PRM->RM_RSTST_NEON,
; 1146 :             INREG32(&g_pPrcmPrm->pOMAP_NEON_PRM->RM_RSTST_NEON)); 

  00064	e5913000	 ldr         r3, [r1]
  00068	e593201c	 ldr         r2, [r3, #0x1C]
  0006c	e5923058	 ldr         r3, [r2, #0x58]
  00070	e5823058	 str         r3, [r2, #0x58]

; 1147 : 
; 1148 :     OUTREG32(&g_pPrcmPrm->pOMAP_USBHOST_PRM->RM_RSTST_USBHOST,
; 1149 :             INREG32(&g_pPrcmPrm->pOMAP_USBHOST_PRM->RM_RSTST_USBHOST)); 

  00074	e5913000	 ldr         r3, [r1]
  00078	e593200c	 ldr         r2, [r3, #0xC]
  0007c	e5923058	 ldr         r3, [r2, #0x58]
  00080	e5823058	 str         r3, [r2, #0x58]

; 1150 : }

  00084	e12fff1e	 bx          lr
  00088		 |$LN6@PrcmDomain@12|
  00088		 |$LN7@PrcmDomain@12|
  00088	00000000	 DCD         |g_pPrcmPrm|
  0008c		 |$M47879|

			 ENDP  ; |PrcmDomainClearReset|

	END
