; Listing generated by Microsoft (R) Optimizing Compiler Version 14.01.60511.01 

	TTL	C:\WINCE600\PLATFORM\COMMON\SRC\SOC\COMMON_TI_V1\COMMON_TI\BLOCK\NAND\fmd.c
	CODE32

  00000			 AREA	 |.drectve|, DRECTVE
	DCB	"-defaultlib:LIBCMT "
	DCB	"-defaultlib:OLDNAMES "


  00000			 AREA	 |.bss|, NOINIT
|s_hNand| %	0x4

  00000			 AREA	 |.rdata|, DATA, READONLY
|EdbgVendorIds| DCW 0x0
	DCW	0x0
	DCD	0x4033
	DCB	0x1
	DCB	"AD", 0x0
	DCW	0x1050
	DCW	0x940
	DCD	0x4005
	DCB	0x1
	DCB	"LS", 0x0
	DCW	0x1050
	DCW	0x940
	DCD	0x2078
	DCB	0x1
	DCB	"LS", 0x0
	DCW	0x10ec
	DCW	0x8029
	DCD	0xc0f0
	DCB	0x1
	DCB	"KS", 0x0
	DCW	0x10ec
	DCW	0x8129
	DCD	0x0
	DCB	0x4
	DCB	"RT", 0x0
	DCW	0x10ec
	DCW	0x8139
	DCD	0x900b
	DCB	0x4
	DCB	"RT", 0x0
	DCW	0x10ec
	DCW	0x8139
	DCD	0xd0c9
	DCB	0x4
	DCB	"RT", 0x0
	DCW	0x10ec
	DCW	0x8139
	DCD	0xe04c
	DCB	0x4
	DCB	"RT", 0x0
	DCW	0x1186
	DCW	0x1300
	DCD	0x50ba
	DCB	0x4
	DCB	"DL", 0x0
	DCW	0x100b
	DCW	0x20
	DCD	0xa0cc
	DCB	0x5
	DCB	"NG", 0x0
	DCW	0x10b7
	DCW	0x9050
	DCD	0x6008
	DCB	0x6
	DCB	"3C", 0x0
	DCW	0x10b7
	DCW	0x9200
	DCD	0x476
	DCB	0x6
	DCB	"3C", 0x0
	EXPORT	|SectorAccess|
; File c:\wince600\platform\common\src\soc\common_ti_v1\common_ti\block\nand\fmd.c

  00000			 AREA	 |.pdata|, PDATA
|$T46630| DCD	|$LN5@SectorAcce|
	DCD	0x40001601
; Function compile flags: /Ogspy

  00000			 AREA	 |.text|, CODE, ARM

  00000		 |SectorAccess| PROC

; 217  : {

  00000		 |$LN5@SectorAcce|
  00000	e92d4010	 stmdb       sp!, {r4, lr}
  00004		 |$M46627|

; 218  :     
; 219  :     // Offset is provided to this function in bytes; NAND device requires words
; 220  :     offset = offset / 2;
; 221  :     WRITE_NAND(pDevice->pNandAddress, (offset & 0xFF));

  00004	e590e020	 ldr         lr, [r0, #0x20]
  00008	e1a040a2	 mov         r4, r2, lsr #1
  0000c	e20430ff	 and         r3, r4, #0xFF
  00010	e1ce30b0	 strh        r3, [lr]

; 222  :     WRITE_NAND(pDevice->pNandAddress, ((offset >> 8) & 0xFF));

  00014	e5902020	 ldr         r2, [r0, #0x20]
  00018	e1a03804	 mov         r3, r4, lsl #16
  0001c	e1a03c23	 mov         r3, r3, lsr #24
  00020	e1c230b0	 strh        r3, [r2]

; 223  :     WRITE_NAND(pDevice->pNandAddress, (sector & 0xFF));

  00024	e5902020	 ldr         r2, [r0, #0x20]
  00028	e20130ff	 and         r3, r1, #0xFF

; 224  :     WRITE_NAND(pDevice->pNandAddress, ((sector >> 8) & 0xFF));

  0002c	e1a0e801	 mov         lr, r1, lsl #16
  00030	e1c230b0	 strh        r3, [r2]
  00034	e5902020	 ldr         r2, [r0, #0x20]
  00038	e1a03c2e	 mov         r3, lr, lsr #24

; 225  :     WRITE_NAND(pDevice->pNandAddress, ((sector >> 16) & 0xFF));

  0003c	e1a01401	 mov         r1, r1, lsl #8
  00040	e1c230b0	 strh        r3, [r2]
  00044	e5902020	 ldr         r2, [r0, #0x20]
  00048	e1a03c21	 mov         r3, r1, lsr #24
  0004c	e1c230b0	 strh        r3, [r2]

; 226  : }

  00050	e8bd4010	 ldmia       sp!, {r4, lr}
  00054	e12fff1e	 bx          lr
  00058		 |$M46628|

			 ENDP  ; |SectorAccess|

	EXPORT	|BlockAccess|

  00000			 AREA	 |.pdata|, PDATA
|$T46640| DCD	|$LN5@BlockAcces|
	DCD	0x40000e00
; Function compile flags: /Ogspy

  00000			 AREA	 |.text|, CODE, ARM

  00000		 |BlockAccess| PROC

; 235  : {

  00000		 |$LN5@BlockAcces|
  00000		 |$M46637|

; 236  :     blockId *= pDevice->nandInfo.sectorsPerBlock;

  00000	e590304c	 ldr         r3, [r0, #0x4C]

; 237  :     WRITE_NAND(pDevice->pNandAddress, (blockId & 0xFF));

  00004	e5902020	 ldr         r2, [r0, #0x20]
  00008	e0010193	 mul         r1, r3, r1
  0000c	e20130ff	 and         r3, r1, #0xFF
  00010	e1c230b0	 strh        r3, [r2]

; 238  :     WRITE_NAND(pDevice->pNandAddress, ((blockId >> 8) & 0xFF));

  00014	e5902020	 ldr         r2, [r0, #0x20]
  00018	e1a03801	 mov         r3, r1, lsl #16
  0001c	e1a03c23	 mov         r3, r3, lsr #24
  00020	e1c230b0	 strh        r3, [r2]

; 239  :     WRITE_NAND(pDevice->pNandAddress, ((blockId >> 16) & 0xFF));

  00024	e5902020	 ldr         r2, [r0, #0x20]
  00028	e1a03401	 mov         r3, r1, lsl #8
  0002c	e1a03c23	 mov         r3, r3, lsr #24
  00030	e1c230b0	 strh        r3, [r2]

; 240  : }

  00034	e12fff1e	 bx          lr
  00038		 |$M46638|

			 ENDP  ; |BlockAccess|

	EXPORT	|WaitOnEmptyWriteBufferStatus|

  00000			 AREA	 |.pdata|, PDATA
|$T46650| DCD	|$LN9@WaitOnEmpt|
	DCD	0x40000500
; Function compile flags: /Ogspy

  00000			 AREA	 |.text|, CODE, ARM

  00000		 |WaitOnEmptyWriteBufferStatus| PROC

; 249  : {

  00000		 |$LN9@WaitOnEmpt|
  00000		 |$M46647|
  00000	e590202c	 ldr         r2, [r0, #0x2C]
  00004		 |$LL3@WaitOnEmpt|

; 250  :     UINT status;
; 251  :     do
; 252  :     {
; 253  :         status = INREG32(&pDevice->pGpmcRegs->GPMC_STATUS);

  00004	e5923054	 ldr         r3, [r2, #0x54]

; 254  :     } while ((status & GPMC_STATUS_EMPTYWRITEBUFFER) == 0);

  00008	e3130001	 tst         r3, #1
  0000c	0afffffc	 beq         |$LL3@WaitOnEmpt|

; 255  : }

  00010	e12fff1e	 bx          lr
  00014		 |$M46648|

			 ENDP  ; |WaitOnEmptyWriteBufferStatus|

	EXPORT	|InitializePointers|

  00000			 AREA	 |.pdata|, PDATA
|$T46659| DCD	|$LN5@Initialize|
	DCD	0x40000200
; Function compile flags: /Ogspy

  00000			 AREA	 |.text|, CODE, ARM

  00000		 |InitializePointers| PROC

; 263  : {

  00000		 |$LN5@Initialize|
  00000		 |$M46656|

; 264  : #ifdef BOOT_MODE
; 265  :     UNREFERENCED_PARAMETER(szContext);
; 266  :     UNREFERENCED_PARAMETER(pDevice);
; 267  : #else
; 268  :     PHYSICAL_ADDRESS pa;
; 269  :     InitializeCriticalSection(&pDevice->cs);
; 270  : 
; 271  :     // Read device parameters
; 272  :     if (GetDeviceRegistryParams(
; 273  :             szContext, pDevice, dimof(g_deviceRegParams), g_deviceRegParams
; 274  :             ) != ERROR_SUCCESS)
; 275  :         {
; 276  :         DEBUGMSG(ZONE_ERROR, (L"ERROR: FMD_Init: "
; 277  :             L"Failed read FMD registry parameters\r\n"
; 278  :             ));
; 279  :         return FALSE;
; 280  :         }
; 281  : 
; 282  :     pa.QuadPart = pDevice->memBase[0];
; 283  :     pDevice->pGpmcRegs = MmMapIoSpace(pa, pDevice->memLen[0], FALSE);
; 284  :     if (pDevice->pGpmcRegs == NULL)
; 285  :         {
; 286  :         DEBUGMSG(ZONE_ERROR, (L"ERROR: FMD_Init: "
; 287  :             L"Failed map FMD registers (0x%08x/0x%08x)\r\n",
; 288  :             pDevice->memBase[0], pDevice->memLen[0]
; 289  :             ));
; 290  :         return FALSE;
; 291  :         }
; 292  : 
; 293  :     pa.QuadPart = pDevice->memBase[1];
; 294  :     pDevice->pFifo = (NANDREG*)MmMapIoSpace(pa, pDevice->memLen[1], FALSE);
; 295  :     if (pDevice->pFifo == NULL)
; 296  :         {
; 297  :         DEBUGMSG(ZONE_ERROR, (L"ERROR: FMD_Init: "
; 298  :             L"Failed map FMD registers (0x%08x/0x%08x)\r\n",
; 299  :             pDevice->memBase[0], pDevice->memLen[0]
; 300  :             ));
; 301  :         return FALSE;
; 302  :         }
; 303  : #endif
; 304  :      return TRUE;

  00000	e3a00001	 mov         r0, #1

; 305  : }

  00004	e12fff1e	 bx          lr
  00008		 |$M46657|

			 ENDP  ; |InitializePointers|

	EXPORT	|NAND_GetGpmcRegs|

  00000			 AREA	 |.pdata|, PDATA
|$T46669| DCD	|$LN5@NAND_GetGp|
	DCD	0x40000200
; Function compile flags: /Ogspy

  00000			 AREA	 |.text|, CODE, ARM

  00000		 |NAND_GetGpmcRegs| PROC

; 313  : {

  00000		 |$LN5@NAND_GetGp|
  00000		 |$M46666|

; 314  :     return ((NandDevice_t*)hNand)->pGpmcRegs;

  00000	e590002c	 ldr         r0, [r0, #0x2C]

; 315  : }

  00004	e12fff1e	 bx          lr
  00008		 |$M46667|

			 ENDP  ; |NAND_GetGpmcRegs|

	EXPORT	|NAND_GetGeometry|

  00000			 AREA	 |.pdata|, PDATA
|$T46679| DCD	|$LN5@NAND_GetGe|
	DCD	0x40000200
; Function compile flags: /Ogspy

  00000			 AREA	 |.text|, CODE, ARM

  00000		 |NAND_GetGeometry| PROC

; 324  : {

  00000		 |$LN5@NAND_GetGe|
  00000		 |$M46676|

; 325  :     return &(((NandDevice_t*)hNand)->nandInfo);

  00000	e2800044	 add         r0, r0, #0x44

; 326  : }

  00004	e12fff1e	 bx          lr
  00008		 |$M46677|

			 ENDP  ; |NAND_GetGeometry|


  00000			 AREA	 |.pdata|, PDATA
|$T46692| DCD	|$LN9@NAND_LockB|
	DCD	0x40000b00
; Function compile flags: /Ogspy

  00000			 AREA	 |.text|, CODE, ARM

  00000		 |NAND_LockBlocks| PROC

; 336  : {

  00000		 |$LN9@NAND_LockB|
  00000		 |$M46689|
  00000	e1b02000	 movs        r2, r0

; 337  :     BOOL rc = FALSE; 

  00004	e3a00000	 mov         r0, #0

; 338  :     NandDevice_t *pDevice = (NandDevice_t*)hNand;
; 339  : 
; 340  :     UNREFERENCED_PARAMETER(blockEnd);
; 341  :     UNREFERENCED_PARAMETER(blockStart);
; 342  : 
; 343  :     if (pDevice == NULL) goto cleanUp;

  00008	0a000006	 beq         |$cleanUp$46024|

; 344  : 
; 345  :     if (bLock)
; 346  :         {
; 347  :         CLRREG32(&pDevice->pGpmcRegs->GPMC_CONFIG, GPMC_CONFIG_WRITEPROTECT);        

  0000c	e592202c	 ldr         r2, [r2, #0x2C]
  00010	e3530000	 cmp         r3, #0

; 348  :         }
; 349  :     else
; 350  :         {
; 351  :         SETREG32(&pDevice->pGpmcRegs->GPMC_CONFIG, GPMC_CONFIG_WRITEPROTECT);
; 352  :         }
; 353  :     rc = TRUE;

  00014	e3a00001	 mov         r0, #1
  00018	e5923050	 ldr         r3, [r2, #0x50]
  0001c	13c33010	 bicne       r3, r3, #0x10
  00020	03833010	 orreq       r3, r3, #0x10
  00024	e5823050	 str         r3, [r2, #0x50]
  00028		 |$cleanUp$46024|

; 354  : 
; 355  : cleanUp:
; 356  :     return rc;
; 357  : }

  00028	e12fff1e	 bx          lr
  0002c		 |$M46690|

			 ENDP  ; |NAND_LockBlocks|


  00000			 AREA	 |.pdata|, PDATA
|$T46699| DCD	|$LN5@NAND_Unini|
	DCD	0x40000100
; Function compile flags: /Ogspy

  00000			 AREA	 |.text|, CODE, ARM

  00000		 |NAND_Uninitialize| PROC

; 364  : {

  00000		 |$LN5@NAND_Unini|
  00000		 |$M46696|

; 365  : #ifdef BOOT_MODE
; 366  :     UNREFERENCED_PARAMETER(hNand);
; 367  : #else
; 368  :     NandDevice_t *pDevice = (NandDevice_t*)hNand;
; 369  : 
; 370  :     if (pDevice->pGpmcRegs != NULL)
; 371  :         {
; 372  :         MmUnmapIoSpace((void*)pDevice->pGpmcRegs, pDevice->memLen[0]);
; 373  :         }
; 374  : 
; 375  :     if (pDevice->pFifo != NULL)
; 376  :         {
; 377  :         MmUnmapIoSpace((void*)pDevice->pFifo, pDevice->memLen[1]);
; 378  :         }
; 379  : #endif
; 380  : }

  00000	e12fff1e	 bx          lr
  00004		 |$M46697|

			 ENDP  ; |NAND_Uninitialize|


  00000			 AREA	 |.pdata|, PDATA
|$T46716| DCD	|$LN7@NAND_Seek|
	DCD	0x40001701
; Function compile flags: /Ogspy

  00000			 AREA	 |.text|, CODE, ARM

  00000		 |NAND_Seek| PROC

; 533  : {

  00000		 |$LN7@NAND_Seek|
  00000	e92d4010	 stmdb       sp!, {r4, lr}
  00004		 |$M46713|

; 534  :     // seek to address
; 535  :     NandDevice_t *pDevice = (NandDevice_t*)hNand;
; 536  :     SectorAccess(pDevice, sector, offset);

  00004	e590e020	 ldr         lr, [r0, #0x20]
  00008	e1a040a2	 mov         r4, r2, lsr #1
  0000c	e20430ff	 and         r3, r4, #0xFF
  00010	e1ce30b0	 strh        r3, [lr]
  00014	e5902020	 ldr         r2, [r0, #0x20]
  00018	e1a03804	 mov         r3, r4, lsl #16
  0001c	e1a03c23	 mov         r3, r3, lsr #24
  00020	e1c230b0	 strh        r3, [r2]
  00024	e5902020	 ldr         r2, [r0, #0x20]
  00028	e20130ff	 and         r3, r1, #0xFF
  0002c	e1a0e801	 mov         lr, r1, lsl #16
  00030	e1c230b0	 strh        r3, [r2]
  00034	e5902020	 ldr         r2, [r0, #0x20]
  00038	e1a03c2e	 mov         r3, lr, lsr #24
  0003c	e1a01401	 mov         r1, r1, lsl #8
  00040	e1c230b0	 strh        r3, [r2]
  00044	e5902020	 ldr         r2, [r0, #0x20]
  00048	e1a03c21	 mov         r3, r1, lsr #24

; 537  :     return TRUE;

  0004c	e3a00001	 mov         r0, #1
  00050	e1c230b0	 strh        r3, [r2]

; 538  : }

  00054	e8bd4010	 ldmia       sp!, {r4, lr}
  00058	e12fff1e	 bx          lr
  0005c		 |$M46714|

			 ENDP  ; |NAND_Seek|

	IMPORT	|ECC_Result|
	IMPORT	|ECC_Reset|
	IMPORT	|ECC_Init|
	IMPORT	|memcpy|

  00000			 AREA	 |.pdata|, PDATA
|$T46737| DCD	|$LN25@NAND_Read|
	DCD	0x40004001
; Function compile flags: /Ogspy

  00000			 AREA	 |.text|, CODE, ARM

  00000		 |NAND_Read| PROC

; 548  : {

  00000		 |$LN25@NAND_Read|
  00000	e92d41f0	 stmdb       sp!, {r4 - r8, lr}
  00004		 |$M46734|
  00004	e1b08003	 movs        r8, r3
  00008	e1a06002	 mov         r6, r2
  0000c	e1a07001	 mov         r7, r1
  00010	e1a05000	 mov         r5, r0

; 549  :     UINT32 fifoLevel;
; 550  :     NandDevice_t *pDevice = (NandDevice_t*)hNand;
; 551  : 
; 552  :     // Start ECC if a valid ECC buffer is passed in
; 553  :     if (pEcc != NULL)
; 554  :         {
; 555  :         ECC_Init(pDevice->pGpmcRegs, pDevice->ECCCfg, pDevice->ECCtype, NAND_ECC_READ);

  00014	15952060	 ldrne       r2, [r5, #0x60]
  00018	15951058	 ldrne       r1, [r5, #0x58]
  0001c	1595002c	 ldrne       r0, [r5, #0x2C]
  00020	13a03000	 movne       r3, #0
  00024	1b000000	 blne        ECC_Init

; 556  :         }
; 557  : 
; 558  :     // enable prefetch if it's been properly configured
; 559  :     if (pDevice->prefetchMode == kPrefetchRead )

  00028	e595e018	 ldr         lr, [r5, #0x18]
  0002c	e35e0001	 cmp         lr, #1
  00030	1a000025	 bne         |$LN22@NAND_Read|

; 560  :         {
; 561  :         SETREG32(&pDevice->pGpmcRegs->GPMC_PREFETCH_CONTROL, 
; 562  :             GPMC_PREFETCH_CONTROL_STARTENGINE
; 563  :             );

  00034	e595402c	 ldr         r4, [r5, #0x2C]

; 564  : 
; 565  :         // start copying data into passed in buffer
; 566  :         while (size > 0)

  00038	e3560000	 cmp         r6, #0
  0003c	e594e1ec	 ldr         lr, [r4, #0x1EC]
  00040	e38ee001	 orr         lr, lr, #1
  00044	e584e1ec	 str         lr, [r4, #0x1EC]
  00048	da00000e	 ble         |$LN11@NAND_Read|
  0004c	e2463001	 sub         r3, r6, #1
  00050	e1a03323	 mov         r3, r3, lsr #6
  00054	e2834001	 add         r4, r3, #1
  00058		 |$LL12@NAND_Read|
  00058	e595202c	 ldr         r2, [r5, #0x2C]
  0005c		 |$LL10@NAND_Read|

; 567  :             {
; 568  :             // wait for fifo threshold to be reached
; 569  :             fifoLevel = 0;
; 570  :             while (fifoLevel < FIFO_THRESHOLD)
; 571  :                 {
; 572  :                 fifoLevel = INREG32(&pDevice->pGpmcRegs->GPMC_PREFETCH_STATUS);

  0005c	e59231f0	 ldr         r3, [r2, #0x1F0]
  00060	e203347f	 and         r3, r3, #0x7F, 8
  00064	e3530101	 cmp         r3, #1, 2
  00068	3afffffb	 bcc         |$LL10@NAND_Read|

; 573  :                 fifoLevel &= GPMC_PREFETCH_STATUS_FIFOMASK;
; 574  :                 fifoLevel >>= GPMC_PREFETCH_STATUS_FIFOSHIFT;
; 575  :                 }
; 576  : 
; 577  :             // copy data to buffer
; 578  :             memcpy(pData, (BYTE*)pDevice->pFifo, FIFO_THRESHOLD);

  0006c	e5951028	 ldr         r1, [r5, #0x28]
  00070	e3a02040	 mov         r2, #0x40
  00074	e1a00007	 mov         r0, r7
  00078	eb000000	 bl          memcpy

; 579  :             pData += FIFO_THRESHOLD;

  0007c	e2877040	 add         r7, r7, #0x40
  00080	e2544001	 subs        r4, r4, #1
  00084	1afffff3	 bne         |$LL12@NAND_Read|
  00088		 |$LN11@NAND_Read|

; 580  :             size -= FIFO_THRESHOLD;        
; 581  :             }
; 582  : 
; 583  :         // NOTE:
; 584  :         //  Prefetch engine will automatically stop on the completion
; 585  :         // of data transfer
; 586  :         pDevice->prefetchMode = kPrefetchOff;

  00088	e3a03000	 mov         r3, #0
  0008c	e5853018	 str         r3, [r5, #0x18]

; 587  :         }
; 588  :     else

  00090	ea00000f	 b           |$LN6@NAND_Read|
  00094		 |$LL7@NAND_Read|

; 593  :             {
; 594  :             *(NANDREG*)pData = READ_NAND(pDevice->pNandData);

  00094	e5953024	 ldr         r3, [r5, #0x24]

; 595  :             pData += sizeof(NANDREG);
; 596  :             size -= sizeof(NANDREG);

  00098	e2466002	 sub         r6, r6, #2
  0009c	e1d330b0	 ldrh        r3, [r3]
  000a0	e0c730b2	 strh        r3, [r7], #2

; 597  : 
; 598  : 	     /* workaround for BCH engine when ECC is not put at the end of OOB area.  
; 599  : 		  the checking is based on puting ECC at the BootROM expected location -
; 600  : 		  with 2 bytes offset from the start of the OOB area */
; 601  :             if(pDevice->ECCtype == BCH4bit || pDevice->ECCtype == BCH8bit)

  000a4	e5953060	 ldr         r3, [r5, #0x60]
  000a8	e3530001	 cmp         r3, #1
  000ac	0a000001	 beq         |$LN4@NAND_Read|
  000b0	e3530002	 cmp         r3, #2
  000b4	1a000004	 bne         |$LN22@NAND_Read|
  000b8		 |$LN4@NAND_Read|

; 602  :                 if (size == (int)(sizeof(NAND_SPARE_AREA) - ECC_OFFSET - pDevice->ECCsize))

  000b8	e5953064	 ldr         r3, [r5, #0x64]
  000bc	e263303e	 rsb         r3, r3, #0x3E
  000c0	e1560003	 cmp         r6, r3

; 603  :         	         ECC_Reset(pDevice->pGpmcRegs);  

  000c4	0595002c	 ldreq       r0, [r5, #0x2C]
  000c8	0b000000	 bleq        ECC_Reset
  000cc		 |$LN22@NAND_Read|

; 589  :         {
; 590  :         // NOTE:
; 591  :         //  Code assumes the entire page is read at once
; 592  :         while (size >= sizeof(NANDREG))

  000cc	e3560002	 cmp         r6, #2
  000d0	2affffef	 bcs         |$LL7@NAND_Read|
  000d4		 |$LN6@NAND_Read|

; 604  :                 }
; 605  :         }
; 606  : 
; 607  :     // get ECC result
; 608  :     if (pEcc != NULL)
; 609  :         {
; 610  :         // UNDONE:
; 611  :         //  should pass in sector size???
; 612  :         ECC_Result(pDevice->pGpmcRegs, pEcc, pDevice->ECCsize);

  000d4	e595002c	 ldr         r0, [r5, #0x2C]
  000d8	e3580000	 cmp         r8, #0
  000dc	0a000003	 beq         |$LN2@NAND_Read|
  000e0	e5952064	 ldr         r2, [r5, #0x64]
  000e4	e1a01008	 mov         r1, r8
  000e8	eb000000	 bl          ECC_Result

; 613  :         }
; 614  :     else

  000ec	ea000000	 b           |$LN1@NAND_Read|
  000f0		 |$LN2@NAND_Read|

; 615  :     	{
; 616  :     	ECC_Reset(pDevice->pGpmcRegs);

  000f0	eb000000	 bl          ECC_Reset
  000f4		 |$LN1@NAND_Read|

; 617  :     	}
; 618  :     return TRUE;

  000f4	e3a00001	 mov         r0, #1

; 619  : }

  000f8	e8bd41f0	 ldmia       sp!, {r4 - r8, lr}
  000fc	e12fff1e	 bx          lr
  00100		 |$M46735|

			 ENDP  ; |NAND_Read|


  00000			 AREA	 |.pdata|, PDATA
|$T46766| DCD	|$LN28@NAND_Write|
	DCD	0x40004201
; Function compile flags: /Ogspy

  00000			 AREA	 |.text|, CODE, ARM

  00000		 |NAND_Write| PROC

; 630  : {

  00000		 |$LN28@NAND_Write|
  00000	e92d41f0	 stmdb       sp!, {r4 - r8, lr}
  00004		 |$M46763|
  00004	e1b08003	 movs        r8, r3
  00008	e1a06002	 mov         r6, r2
  0000c	e1a07001	 mov         r7, r1
  00010	e1a05000	 mov         r5, r0

; 631  :     UINT32 fifoLevel;
; 632  :     NandDevice_t *pDevice = (NandDevice_t*)hNand;
; 633  : 
; 634  :     // Start ECC if a valid ECC buffer is passed in
; 635  :     if (pEcc != NULL)
; 636  :         {
; 637  :         ECC_Init(pDevice->pGpmcRegs, pDevice->ECCCfg, pDevice->ECCtype, NAND_ECC_WRITE);

  00014	15952060	 ldrne       r2, [r5, #0x60]
  00018	15951058	 ldrne       r1, [r5, #0x58]
  0001c	1595002c	 ldrne       r0, [r5, #0x2C]
  00020	13a03001	 movne       r3, #1
  00024	1b000000	 blne        ECC_Init

; 638  :         }
; 639  : 
; 640  :     // enable prefetch if it's been properly configured
; 641  :     if (pDevice->prefetchMode == kPrefetchWrite )

  00028	e595e018	 ldr         lr, [r5, #0x18]
  0002c	e35e0002	 cmp         lr, #2
  00030	1a000017	 bne         |$LN11@NAND_Write|

; 642  :         {
; 643  :         SETREG32(&pDevice->pGpmcRegs->GPMC_PREFETCH_CONTROL, 
; 644  :             GPMC_PREFETCH_CONTROL_STARTENGINE
; 645  :             );

  00034	e595402c	 ldr         r4, [r5, #0x2C]

; 646  :         // start copying data into passed in buffer
; 647  :         while (size > 0)

  00038	e3560000	 cmp         r6, #0
  0003c	e594e1ec	 ldr         lr, [r4, #0x1EC]
  00040	e38ee001	 orr         lr, lr, #1
  00044	e584e1ec	 str         lr, [r4, #0x1EC]
  00048	da00000e	 ble         |$LN9@NAND_Write|
  0004c	e2463001	 sub         r3, r6, #1
  00050	e1a03323	 mov         r3, r3, lsr #6
  00054	e2834001	 add         r4, r3, #1
  00058		 |$LL10@NAND_Write|

; 648  :             {
; 649  :             // copy data to buffer
; 650  :             memcpy((BYTE*)pDevice->pFifo, pData, FIFO_THRESHOLD);

  00058	e5950028	 ldr         r0, [r5, #0x28]
  0005c	e3a02040	 mov         r2, #0x40
  00060	e1a01007	 mov         r1, r7
  00064	eb000000	 bl          memcpy

; 651  :             pData += FIFO_THRESHOLD;

  00068	e595202c	 ldr         r2, [r5, #0x2C]
  0006c	e2877040	 add         r7, r7, #0x40
  00070		 |$LL8@NAND_Write|

; 652  :             size -= FIFO_THRESHOLD;  
; 653  :             
; 654  :             // wait for fifo threshold to be reached
; 655  :             fifoLevel = 0;
; 656  :             while (fifoLevel < FIFO_THRESHOLD)
; 657  :                 {
; 658  :                 fifoLevel = INREG32(&pDevice->pGpmcRegs->GPMC_PREFETCH_STATUS);

  00070	e59231f0	 ldr         r3, [r2, #0x1F0]
  00074	e203347f	 and         r3, r3, #0x7F, 8
  00078	e3530101	 cmp         r3, #1, 2
  0007c	3afffffb	 bcc         |$LL8@NAND_Write|

; 646  :         // start copying data into passed in buffer
; 647  :         while (size > 0)

  00080	e2544001	 subs        r4, r4, #1
  00084	1afffff3	 bne         |$LL10@NAND_Write|
  00088		 |$LN9@NAND_Write|

; 659  :                 fifoLevel &= GPMC_PREFETCH_STATUS_FIFOMASK;
; 660  :                 fifoLevel >>= GPMC_PREFETCH_STATUS_FIFOSHIFT;
; 661  :                 }
; 662  :             }
; 663  : 
; 664  :         // NOTE:
; 665  :         //  Prefetch engine will automatically stop on the completion
; 666  :         // of data transfer
; 667  :         pDevice->prefetchMode = kPrefetchOff;

  00088	e3a03000	 mov         r3, #0
  0008c	e5853018	 str         r3, [r5, #0x18]

; 668  :         }
; 669  :     else

  00090	ea000011	 b           |$LN4@NAND_Write|
  00094		 |$LN11@NAND_Write|

; 670  :         {
; 671  :         int writeCount = 0;

  00094	e3a01000	 mov         r1, #0

; 672  : 		
; 673  :         while (size >= sizeof(NANDREG))

  00098	e3560002	 cmp         r6, #2
  0009c	3a00000e	 bcc         |$LN4@NAND_Write|

; 670  :         {
; 671  :         int writeCount = 0;

  000a0	e1a000a6	 mov         r0, r6, lsr #1
  000a4		 |$LL5@NAND_Write|

; 674  :             {
; 675  :             WRITE_NAND(pDevice->pNandData, *(NANDREG*)pData);

  000a4	e5952024	 ldr         r2, [r5, #0x24]
  000a8	e1d730b0	 ldrh        r3, [r7]

; 676  : 
; 677  :             // Workaround Errata 1.53
; 678  :             // need to check on EMPTYWRITEBUFFERSTATUS on every
; 679  :             // 255 bytes
; 680  :             if (++writeCount >= 255)

  000ac	e2811001	 add         r1, r1, #1
  000b0	e35100ff	 cmp         r1, #0xFF
  000b4	e1c230b0	 strh        r3, [r2]
  000b8	ba000004	 blt         |$LN3@NAND_Write|
  000bc	e595202c	 ldr         r2, [r5, #0x2C]

; 681  :                 {
; 682  :                 WaitOnEmptyWriteBufferStatus(pDevice);

  000c0		 |$LL17@NAND_Write|
  000c0	e5923054	 ldr         r3, [r2, #0x54]
  000c4	e3130001	 tst         r3, #1
  000c8	0afffffc	 beq         |$LL17@NAND_Write|

; 683  :                 writeCount = 0;

  000cc	e3a01000	 mov         r1, #0
  000d0		 |$LN3@NAND_Write|

; 684  :                 }
; 685  :             
; 686  :             pData += sizeof(NANDREG);

  000d0	e2877002	 add         r7, r7, #2
  000d4	e2500001	 subs        r0, r0, #1
  000d8	1afffff1	 bne         |$LL5@NAND_Write|
  000dc		 |$LN4@NAND_Write|

; 687  :             size -= sizeof(NANDREG);
; 688  :             }
; 689  : 		
; 690  :         }
; 691  : 
; 692  :     // get ECC result
; 693  :     if (pEcc != NULL)
; 694  :         {
; 695  :         ECC_Result(pDevice->pGpmcRegs, pEcc, pDevice->ECCsize);

  000dc	e595002c	 ldr         r0, [r5, #0x2C]
  000e0	e3580000	 cmp         r8, #0
  000e4	0a000003	 beq         |$LN2@NAND_Write|
  000e8	e5952064	 ldr         r2, [r5, #0x64]
  000ec	e1a01008	 mov         r1, r8
  000f0	eb000000	 bl          ECC_Result

; 696  :         }
; 697  :     else

  000f4	ea000000	 b           |$LN1@NAND_Write|
  000f8		 |$LN2@NAND_Write|

; 698  :     	{
; 699  : 	 ECC_Reset(pDevice->pGpmcRegs);

  000f8	eb000000	 bl          ECC_Reset
  000fc		 |$LN1@NAND_Write|

; 700  :     	}
; 701  :     return TRUE;

  000fc	e3a00001	 mov         r0, #1

; 702  : }

  00100	e8bd41f0	 ldmia       sp!, {r4 - r8, lr}
  00104	e12fff1e	 bx          lr
  00108		 |$M46764|

			 ENDP  ; |NAND_Write|


  00000			 AREA	 |.pdata|, PDATA
|$T46776| DCD	|$LN5@NAND_GetSt|
	DCD	0x40000600
; Function compile flags: /Ogspy

  00000			 AREA	 |.text|, CODE, ARM

  00000		 |NAND_GetStatus| PROC

; 709  : {

  00000		 |$LN5@NAND_GetSt|
  00000		 |$M46773|

; 710  :     NandDevice_t *pDevice = (NandDevice_t*)hNand;
; 711  : 
; 712  :     // request status
; 713  :     WRITE_NAND(pDevice->pNandCmd, NAND_CMD_STATUS);

  00000	e590301c	 ldr         r3, [r0, #0x1C]
  00004	e3a02070	 mov         r2, #0x70
  00008	e1c320b0	 strh        r2, [r3]

; 714  :     return READ_NAND(pDevice->pNandData);

  0000c	e5903024	 ldr         r3, [r0, #0x24]
  00010	e1d300b0	 ldrh        r0, [r3]

; 715  : }

  00014	e12fff1e	 bx          lr
  00018		 |$M46774|

			 ENDP  ; |NAND_GetStatus|


  00000			 AREA	 |.pdata|, PDATA
|$T46787| DCD	|$LN8@NAND_Enabl|
	DCD	0x40001b01
; Function compile flags: /Ogspy

  00000			 AREA	 |.text|, CODE, ARM

  00000		 |NAND_Enable| PROC

; 740  : {

  00000		 |$LN8@NAND_Enabl|
  00000	e52de004	 str         lr, [sp, #-4]!
  00004		 |$M46784|

; 741  :     NandDevice_t *pDevice = (NandDevice_t*)hNand;
; 742  : 
; 743  :     if (pDevice->IrqWait)

  00004	e590305c	 ldr         r3, [r0, #0x5C]
  00008	e1b0e003	 movs        lr, r3
  0000c	0a000013	 beq         |$LN1@NAND_Enabl|

; 744  :     {
; 745  :         if( bEnable )
; 746  :         {
; 747  :             // Enable GPMC wait-to-nowait edge detection mechanism on NAND R/B pin
; 748  :             SETREG32 (&pDevice->pGpmcRegs->GPMC_IRQENABLE, pDevice->IrqWait);

  00010	e590202c	 ldr         r2, [r0, #0x2C]
  00014	e3510000	 cmp         r1, #0
  00018	0a000008	 beq         |$LN2@NAND_Enabl|
  0001c	e592301c	 ldr         r3, [r2, #0x1C]
  00020	e183300e	 orr         r3, r3, lr
  00024	e582301c	 str         r3, [r2, #0x1C]

; 749  : 
; 750  :             //  Reset IRQ status
; 751  :             SETREG32 (&pDevice->pGpmcRegs->GPMC_IRQSTATUS, pDevice->IrqWait);

  00028	e590102c	 ldr         r1, [r0, #0x2C]
  0002c	e590205c	 ldr         r2, [r0, #0x5C]
  00030	e5913018	 ldr         r3, [r1, #0x18]
  00034	e1833002	 orr         r3, r3, r2
  00038	e5813018	 str         r3, [r1, #0x18]

; 752  :         }
; 753  :         else

  0003c	ea000007	 b           |$LN1@NAND_Enabl|
  00040		 |$LN2@NAND_Enabl|

; 754  :         {
; 755  :             //  Reset IRQ status
; 756  :             SETREG32 (&pDevice->pGpmcRegs->GPMC_IRQSTATUS, pDevice->IrqWait);

  00040	e5923018	 ldr         r3, [r2, #0x18]
  00044	e183300e	 orr         r3, r3, lr
  00048	e5823018	 str         r3, [r2, #0x18]

; 757  : 
; 758  :             // Disable GPMC wait-to-nowait edge detection mechanism on NAND R/B pin
; 759  :             CLRREG32 (&pDevice->pGpmcRegs->GPMC_IRQENABLE, pDevice->IrqWait);

  0004c	e590102c	 ldr         r1, [r0, #0x2C]
  00050	e590205c	 ldr         r2, [r0, #0x5C]
  00054	e591301c	 ldr         r3, [r1, #0x1C]
  00058	e1c33002	 bic         r3, r3, r2
  0005c	e581301c	 str         r3, [r1, #0x1C]
  00060		 |$LN1@NAND_Enabl|

; 760  :         }
; 761  :     }
; 762  :     return TRUE;

  00060	e3a00001	 mov         r0, #1

; 763  : }

  00064	e49de004	 ldr         lr, [sp], #4
  00068	e12fff1e	 bx          lr
  0006c		 |$M46785|

			 ENDP  ; |NAND_Enable|


  00000			 AREA	 |.pdata|, PDATA
|$T46796| DCD	|$LN5@NAND_Mutex|
	DCD	0x40000200
; Function compile flags: /Ogspy

  00000			 AREA	 |.text|, CODE, ARM

  00000		 |NAND_MutexEnter| PROC

; 770  : {   

  00000		 |$LN5@NAND_Mutex|
  00000		 |$M46793|

; 771  : #ifdef DEVICE_MODE
; 772  :     NandDevice_t *pDevice = (NandDevice_t*)hNand;
; 773  :     EnterCriticalSection(&pDevice->cs); 
; 774  :     return pDevice->cs.LockCount;
; 775  : #else
; 776  :     UNREFERENCED_PARAMETER(hNand);
; 777  :     return 0;

  00000	e3a00000	 mov         r0, #0

; 778  : #endif
; 779  : }

  00004	e12fff1e	 bx          lr
  00008		 |$M46794|

			 ENDP  ; |NAND_MutexEnter|


  00000			 AREA	 |.pdata|, PDATA
|$T46805| DCD	|$LN5@NAND_Mutex@2|
	DCD	0x40000200
; Function compile flags: /Ogspy

  00000			 AREA	 |.text|, CODE, ARM

  00000		 |NAND_MutexExit| PROC

; 786  : {

  00000		 |$LN5@NAND_Mutex@2|
  00000		 |$M46802|

; 787  : #ifdef DEVICE_MODE
; 788  :     NandDevice_t *pDevice = (NandDevice_t*)hNand;
; 789  :     LeaveCriticalSection(&pDevice->cs); 
; 790  :     return pDevice->cs.LockCount;
; 791  : #else
; 792  :     UNREFERENCED_PARAMETER(hNand);
; 793  :     return 0;

  00000	e3a00000	 mov         r0, #0

; 794  : #endif
; 795  : }

  00004	e12fff1e	 bx          lr
  00008		 |$M46803|

			 ENDP  ; |NAND_MutexExit|


  00000			 AREA	 |.pdata|, PDATA
|$T46816| DCD	|$LN5@NAND_SendC|
	DCD	0x40000500
; Function compile flags: /Ogspy

  00000			 AREA	 |.text|, CODE, ARM

  00000		 |NAND_SendCommand| PROC

; 803  : {

  00000		 |$LN5@NAND_SendC|
  00000		 |$M46813|
  00000	e1a02001	 mov         r2, r1

; 804  :     NandDevice_t *pDevice = (NandDevice_t*)hNand;
; 805  :     WRITE_NAND(pDevice->pNandCmd, cmd);

  00004	e590301c	 ldr         r3, [r0, #0x1C]

; 806  :     return TRUE;

  00008	e3a00001	 mov         r0, #1
  0000c	e1c320b0	 strh        r2, [r3]

; 807  : }

  00010	e12fff1e	 bx          lr
  00014		 |$M46814|

			 ENDP  ; |NAND_SendCommand|

	IMPORT	|BSPGetNandCS|

  00000			 AREA	 |.pdata|, PDATA
|$T46830| DCD	|$LN8@NAND_Confi|
	DCD	0x40001d01
; Function compile flags: /Ogspy

  00000			 AREA	 |.text|, CODE, ARM

  00000		 |NAND_ConfigurePrefetch| PROC

; 815  : {

  00000		 |$LN8@NAND_Confi|
  00000	e92d4030	 stmdb       sp!, {r4, r5, lr}
  00004		 |$M46827|
  00004	e1a04001	 mov         r4, r1
  00008	e1a05000	 mov         r5, r0

; 816  :     DWORD chipSelect = BSPGetNandCS();

  0000c	eb000000	 bl          BSPGetNandCS

; 817  :     UINT ffPrefetchMode = 0;
; 818  :     NandDevice_t *pDevice = (NandDevice_t*)hNand;
; 819  : 
; 820  :     // disable prefetch engine
; 821  :     pDevice->prefetchMode = kPrefetchOff;
; 822  :     
; 823  :     OUTREG32(&pDevice->pGpmcRegs->GPMC_PREFETCH_CONTROL, 0);
; 824  : 
; 825  :     // set prefetch mask
; 826  :     ffPrefetchMode = GPMC_PREFETCH_CONFIG_PFPWENROUNDROBIN |
; 827  :                      GPMC_PREFETCH_CONFIG_ENABLEOPTIMIZEDACCESS |
; 828  :                      GPMC_PREFETCH_CONFIG_WAITPINSELECTOR(chipSelect) |
; 829  :                      GPMC_PREFETCH_CONFIG_FIFOTHRESHOLD(FIFO_THRESHOLD) |
; 830  :                      GPMC_PREFETCH_CONFIG_ENGINECSSELECTOR(chipSelect);

  00010	e2002007	 and         r2, r0, #7
  00014	e2003003	 and         r3, r0, #3
  00018	e3a01722	 mov         r1, #0x22, 14
  0001c	e1832a02	 orr         r2, r3, r2, lsl #20
  00020	e3813b01	 orr         r3, r1, #1, 22
  00024	e595e02c	 ldr         lr, [r5, #0x2C]
  00028	e1823003	 orr         r3, r2, r3

; 831  : 
; 832  :     if (accessType == NAND_DATA_WRITE)

  0002c	e3540002	 cmp         r4, #2
  00030	e1a02203	 mov         r2, r3, lsl #4
  00034	e3a01000	 mov         r1, #0

; 833  :         {
; 834  :         pDevice->prefetchMode = kPrefetchWrite;

  00038	03a03002	 moveq       r3, #2

; 835  :         ffPrefetchMode |= GPMC_PREFETCH_CONFIG_WRITEPOST;
; 836  :         }
; 837  :     else
; 838  :         {
; 839  :         pDevice->prefetchMode = kPrefetchRead;

  0003c	13a03001	 movne       r3, #1
  00040	e5851018	 str         r1, [r5, #0x18]
  00044	e58e11ec	 str         r1, [lr, #0x1EC]
  00048	e5853018	 str         r3, [r5, #0x18]

; 840  :         }
; 841  :         
; 842  :     OUTREG32(&pDevice->pGpmcRegs->GPMC_PREFETCH_CONFIG1, ffPrefetchMode);

  0004c	e595302c	 ldr         r3, [r5, #0x2C]
  00050	03822001	 orreq       r2, r2, #1

; 843  : 
; 844  :     SETREG32(&pDevice->pGpmcRegs->GPMC_PREFETCH_CONFIG1, 
; 845  :         GPMC_PREFETCH_CONFIG_ENABLEENGINE
; 846  :         );
; 847  : 
; 848  :     return TRUE;

  00054	e3a00001	 mov         r0, #1
  00058	e58321e0	 str         r2, [r3, #0x1E0]
  0005c	e595202c	 ldr         r2, [r5, #0x2C]
  00060	e59231e0	 ldr         r3, [r2, #0x1E0]
  00064	e3833080	 orr         r3, r3, #0x80
  00068	e58231e0	 str         r3, [r2, #0x1E0]

; 849  : }

  0006c	e8bd4030	 ldmia       sp!, {r4, r5, lr}
  00070	e12fff1e	 bx          lr
  00074		 |$M46828|

			 ENDP  ; |NAND_ConfigurePrefetch|

	EXPORT	|NAND_CorrectEccData|
	IMPORT	|ECC_CorrectData|
	IMPORT	|memcmp|

  00000			 AREA	 |.pdata|, PDATA
|$T46846| DCD	|$LN7@NAND_Corre|
	DCD	0x40001b02
; Function compile flags: /Ogspy

  00000			 AREA	 |.text|, CODE, ARM

  00000		 |NAND_CorrectEccData| PROC

; 861  : {

  00000		 |$LN7@NAND_Corre|
  00000	e92d43f0	 stmdb       sp!, {r4 - r9, lr}
  00004	e24dd004	 sub         sp, sp, #4
  00008		 |$M46843|
  00008	e1a05003	 mov         r5, r3
  0000c	e1a08002	 mov         r8, r2
  00010	e1a09001	 mov         r9, r1
  00014	e1a06000	 mov         r6, r0

; 862  :     BOOL rc = FALSE;
; 863  :     NandDevice_t *pDevice = (NandDevice_t*)hNand;
; 864  :     
; 865  :     // this call assumes the array size of pEccOld and pEccNew are of the 
; 866  :     // correct size to hold all the parity bits of the given size    
; 867  :     if (memcmp(pEccOld, pEccNew, pDevice->ECCsize) != 0)

  00018	e59d7020	 ldr         r7, [sp, #0x20]
  0001c	e5962064	 ldr         r2, [r6, #0x64]
  00020	e1a00005	 mov         r0, r5
  00024	e1a01007	 mov         r1, r7
  00028	e3a04000	 mov         r4, #0
  0002c	eb000000	 bl          memcmp
  00030	e3500000	 cmp         r0, #0
  00034	0a000007	 beq         |$LN1@NAND_Corre|

; 868  :         {
; 869  :         
; 870  :         // check if data is correctable        
; 871  :         if (ECC_CorrectData(pDevice->pGpmcRegs, pData, size, pEccOld, pEccNew) == FALSE)

  00038	e596002c	 ldr         r0, [r6, #0x2C]
  0003c	e1a03005	 mov         r3, r5
  00040	e1a02008	 mov         r2, r8
  00044	e1a01009	 mov         r1, r9
  00048	e58d7000	 str         r7, [sp]
  0004c	eb000000	 bl          ECC_CorrectData
  00050	e3500000	 cmp         r0, #0
  00054	0a000000	 beq         |$cleanUp$46276|
  00058		 |$LN1@NAND_Corre|

; 872  :             {
; 873  :             goto cleanUp;
; 874  :             }
; 875  :         }    
; 876  : 
; 877  :     rc = TRUE;

  00058	e3a04001	 mov         r4, #1
  0005c		 |$cleanUp$46276|

; 878  :     
; 879  : cleanUp:
; 880  :     return rc;
; 881  : }

  0005c	e1a00004	 mov         r0, r4
  00060	e28dd004	 add         sp, sp, #4
  00064	e8bd43f0	 ldmia       sp!, {r4 - r9, lr}
  00068	e12fff1e	 bx          lr
  0006c		 |$M46844|

			 ENDP  ; |NAND_CorrectEccData|

	EXPORT	|WaitForReadyStatus|

  00000			 AREA	 |.pdata|, PDATA
|$T46859| DCD	|$LN10@WaitForRea|
	DCD	0x40000800
; Function compile flags: /Ogspy

  00000			 AREA	 |.text|, CODE, ARM

  00000		 |WaitForReadyStatus| PROC

; 892  : {

  00000		 |$LN10@WaitForRea|
  00000		 |$M46856|
  00000	e3a02070	 mov         r2, #0x70
  00004		 |$LL2@WaitForRea|

; 893  :     //  Wait for a Ready status
; 894  :     while ((NAND_GetStatus(hNand) & NAND_STATUS_READY) == 0); 

  00004	e590301c	 ldr         r3, [r0, #0x1C]
  00008	e1c320b0	 strh        r2, [r3]
  0000c	e5903024	 ldr         r3, [r0, #0x24]
  00010	e1d330b0	 ldrh        r3, [r3]
  00014	e3130040	 tst         r3, #0x40
  00018	0afffff9	 beq         |$LL2@WaitForRea|

; 895  : }

  0001c	e12fff1e	 bx          lr
  00020		 |$M46857|

			 ENDP  ; |WaitForReadyStatus|

	EXPORT	|FMD_Deinit|

  00000			 AREA	 |.pdata|, PDATA
|$T46905| DCD	|$LN24@FMD_Deinit|
	DCD	0x40002101
; Function compile flags: /Ogspy

  00000			 AREA	 |.text|, CODE, ARM

  00000		 |FMD_Deinit| PROC

; 931  : {

  00000		 |$LN24@FMD_Deinit|
  00000	e92d4030	 stmdb       sp!, {r4, r5, lr}
  00004		 |$M46902|

; 932  :     BOOL rc = FALSE;
; 933  :     if (pContext != s_hNand) goto cleanUp;

  00004	e59f5074	 ldr         r5, [pc, #0x74]
  00008	e5954000	 ldr         r4, [r5]
  0000c	e1500004	 cmp         r0, r4
  00010	1a000017	 bne         |$cleanUp$46301|

; 934  : 
; 935  :     //  Only enable during NAND read/write/erase operations
; 936  :     NAND_Enable(s_hNand, TRUE);

  00014	e3a01001	 mov         r1, #1
  00018	e1a00004	 mov         r0, r4
  0001c	eb000000	 bl          NAND_Enable
  00020	e3a01070	 mov         r1, #0x70

; 937  : 
; 938  :     // Wait for NAND    
; 939  :     // the next command may not work if you remove this wait on the status, 
; 940  :     // because if the R/B pin is asserted during the reset, its deassertion 
; 941  :     // isn't guaranteed to mean that the device is ready
; 942  :     WaitForReadyStatus(s_hNand);   

  00024		 |$LL5@FMD_Deinit|
  00024	e594301c	 ldr         r3, [r4, #0x1C]
  00028	e1c310b0	 strh        r1, [r3]
  0002c	e5943024	 ldr         r3, [r4, #0x24]
  00030	e1d330b0	 ldrh        r3, [r3]
  00034	e3130040	 tst         r3, #0x40
  00038	0afffff9	 beq         |$LL5@FMD_Deinit|

; 943  : 
; 944  :     // Write RESET command
; 945  :     // (a reset aborts any current READ, WRITE (PROGRAM) or ERASE operation)
; 946  :     NAND_SendCommand(s_hNand, NAND_CMD_RESET);

  0003c	e594301c	 ldr         r3, [r4, #0x1C]
  00040	e3a020ff	 mov         r2, #0xFF
  00044	e1c320b0	 strh        r2, [r3]

; 947  : 
; 948  :     // Wait for NAND
; 949  :     WaitForReadyStatus(s_hNand);

  00048		 |$LL13@FMD_Deinit|
  00048	e594301c	 ldr         r3, [r4, #0x1C]
  0004c	e1c310b0	 strh        r1, [r3]
  00050	e5943024	 ldr         r3, [r4, #0x24]
  00054	e1d330b0	 ldrh        r3, [r3]
  00058	e3130040	 tst         r3, #0x40
  0005c	0afffff9	 beq         |$LL13@FMD_Deinit|

; 950  : 
; 951  :     // Clear GPMC wait-to-nowait edge detection mechanism on NAND R/B pin
; 952  :     NAND_Enable(s_hNand, FALSE);

  00060	e3a01000	 mov         r1, #0
  00064	e1a00004	 mov         r0, r4
  00068	eb000000	 bl          NAND_Enable

; 953  : 
; 954  :     // uninitialize and release allocated resources
; 955  :     NAND_Uninitialize(s_hNand);
; 956  :     s_hNand = NULL;

  0006c	e3a03000	 mov         r3, #0
  00070	e5853000	 str         r3, [r5]
  00074		 |$cleanUp$46301|

; 957  :     
; 958  : cleanUp:
; 959  :     return rc;

  00074	e3a00000	 mov         r0, #0

; 960  : }

  00078	e8bd4030	 ldmia       sp!, {r4, r5, lr}
  0007c	e12fff1e	 bx          lr
  00080		 |$LN25@FMD_Deinit|
  00080		 |$LN26@FMD_Deinit|
  00080	00000000	 DCD         |s_hNand|
  00084		 |$M46903|

			 ENDP  ; |FMD_Deinit|

	EXPORT	|FMD_GetInfo|

  00000			 AREA	 |.pdata|, PDATA
|$T46933| DCD	|$LN16@FMD_GetInf|
	DCD	0x40001801
; Function compile flags: /Ogspy

  00000			 AREA	 |.text|, CODE, ARM

  00000		 |FMD_GetInfo| PROC

; 972  : {

  00000		 |$LN16@FMD_GetInf|
  00000	e52de004	 str         lr, [sp, #-4]!
  00004		 |$M46930|
  00004	e1a0e000	 mov         lr, r0

; 973  :     BOOL rc = FALSE;
; 974  : 
; 975  :     // If we don't support NAND, fail...
; 976  :     if (s_hNand == NULL) goto cleanUp;

  00008	e59f304c	 ldr         r3, [pc, #0x4C]
  0000c	e3a00000	 mov         r0, #0
  00010	e5931000	 ldr         r1, [r3]
  00014	e3510000	 cmp         r1, #0
  00018	0a00000d	 beq         |$cleanUp$46309|

; 977  : 
; 978  :     // Memory type is NAND
; 979  :     pFlashInfo->flashType = NAND;

  0001c	e3a03000	 mov         r3, #0
  00020	e58e3000	 str         r3, [lr]

; 980  :     pFlashInfo->dwNumBlocks = NAND_GetGeometry(s_hNand)->blocks;

  00024	e5913048	 ldr         r3, [r1, #0x48]

; 981  :     pFlashInfo->wSectorsPerBlock = (WORD) NAND_GetGeometry(s_hNand)->sectorsPerBlock;
; 982  :     pFlashInfo->wDataBytesPerSector = (WORD) NAND_GetGeometry(s_hNand)->sectorSize;
; 983  :     pFlashInfo->dwBytesPerBlock = NAND_GetGeometry(s_hNand)->sectorSize;
; 984  :     pFlashInfo->dwBytesPerBlock *= NAND_GetGeometry(s_hNand)->sectorsPerBlock;
; 985  : 
; 986  :     // Done
; 987  :     rc = TRUE;

  00028	e3a00001	 mov         r0, #1
  0002c	e58e3004	 str         r3, [lr, #4]
  00030	e591304c	 ldr         r3, [r1, #0x4C]
  00034	e1ce30bc	 strh        r3, [lr, #0xC]
  00038	e5913050	 ldr         r3, [r1, #0x50]
  0003c	e1ce30be	 strh        r3, [lr, #0xE]
  00040	e5912050	 ldr         r2, [r1, #0x50]
  00044	e58e2008	 str         r2, [lr, #8]
  00048	e591304c	 ldr         r3, [r1, #0x4C]
  0004c	e0020293	 mul         r2, r3, r2
  00050	e58e2008	 str         r2, [lr, #8]
  00054		 |$cleanUp$46309|

; 988  : 
; 989  : cleanUp:
; 990  :     return rc;
; 991  : }

  00054	e49de004	 ldr         lr, [sp], #4
  00058	e12fff1e	 bx          lr
  0005c		 |$LN17@FMD_GetInf|
  0005c		 |$LN18@FMD_GetInf|
  0005c	00000000	 DCD         |s_hNand|
  00060		 |$M46931|

			 ENDP  ; |FMD_GetInfo|

	EXPORT	|FMD_ReadSectorOOB|

  00000			 AREA	 |.pdata|, PDATA
|$T47025| DCD	|$LN43@FMD_ReadSe|
	DCD	0x40004701
; Function compile flags: /Ogspy

  00000			 AREA	 |.text|, CODE, ARM

  00000		 |FMD_ReadSectorOOB| PROC

; 1004 : {

  00000		 |$LN43@FMD_ReadSe|
  00000	e92d47f0	 stmdb       sp!, {r4 - r10, lr}
  00004		 |$M47022|
  00004	e1a06001	 mov         r6, r1
  00008	e1a07000	 mov         r7, r0

; 1005 :     BOOL rc = FALSE;
; 1006 :     UINT32 oldIdleMode;
; 1007 :     UINT32 sectorSize;
; 1008 : 
; 1009 :     // Fail if FMD wasn't opened
; 1010 :     if (s_hNand == NULL) goto cleanUp;

  0000c	e59f5104	 ldr         r5, [pc, #0x104]
  00010	e3a00000	 mov         r0, #0
  00014	e5954000	 ldr         r4, [r5]
  00018	e3540000	 cmp         r4, #0
  0001c	0a00003b	 beq         |$cleanUp$46323|

; 1011 :     
; 1012 :     NAND_MutexEnter(s_hNand);
; 1013 : 
; 1014 :     //  Change idle mode to no-idle to ensure access to GPMC registers
; 1015 :     sectorSize = NAND_GetGeometry(s_hNand)->sectorSize;
; 1016 :     oldIdleMode = INREG32(&(NAND_GetGpmcRegs(s_hNand)->GPMC_SYSCONFIG));

  00020	e594302c	 ldr         r3, [r4, #0x2C]

; 1017 :     OUTREG32(&(NAND_GetGpmcRegs(s_hNand)->GPMC_SYSCONFIG), SYSCONFIG_NOIDLE);

  00024	e5949050	 ldr         r9, [r4, #0x50]
  00028	e3a02008	 mov         r2, #8
  0002c	e5938010	 ldr         r8, [r3, #0x10]

; 1018 :     
; 1019 :         {
; 1020 :         //  Only enable during NAND read/write/erase operations
; 1021 :         NAND_Enable(s_hNand, TRUE);

  00030	e3a01001	 mov         r1, #1
  00034	e1a00004	 mov         r0, r4
  00038	e5832010	 str         r2, [r3, #0x10]
  0003c	eb000000	 bl          NAND_Enable
  00040	e3a00070	 mov         r0, #0x70

; 1022 : 
; 1023 :         // Make sure of the NAND status
; 1024 :         WaitForReadyStatus(s_hNand);

  00044		 |$LL14@FMD_ReadSe|
  00044	e594301c	 ldr         r3, [r4, #0x1C]
  00048	e1c300b0	 strh        r0, [r3]
  0004c	e5943024	 ldr         r3, [r4, #0x24]
  00050	e1d330b0	 ldrh        r3, [r3]
  00054	e3130040	 tst         r3, #0x40
  00058	0afffff9	 beq         |$LL14@FMD_ReadSe|

; 1025 : 
; 1026 :         // Send the command
; 1027 :         NAND_SendCommand(s_hNand, NAND_CMD_READ1);

  0005c	e594301c	 ldr         r3, [r4, #0x1C]
  00060	e3a0a000	 mov         r10, #0

; 1028 : 
; 1029 :         // Send the address
; 1030 :         NAND_Seek(s_hNand, sector, sectorSize);

  00064	e1a010a9	 mov         r1, r9, lsr #1
  00068	e1c3a0b0	 strh        r10, [r3]
  0006c	e5942020	 ldr         r2, [r4, #0x20]
  00070	e20130ff	 and         r3, r1, #0xFF
  00074	e1a01801	 mov         r1, r1, lsl #16
  00078	e1c230b0	 strh        r3, [r2]
  0007c	e5942020	 ldr         r2, [r4, #0x20]
  00080	e1a03c21	 mov         r3, r1, lsr #24
  00084	e20710ff	 and         r1, r7, #0xFF
  00088	e1c230b0	 strh        r3, [r2]
  0008c	e5942020	 ldr         r2, [r4, #0x20]
  00090	e1a03807	 mov         r3, r7, lsl #16
  00094	e1a0ec23	 mov         lr, r3, lsr #24
  00098	e1c210b0	 strh        r1, [r2]
  0009c	e5942020	 ldr         r2, [r4, #0x20]
  000a0	e1a03407	 mov         r3, r7, lsl #8
  000a4	e1a01c23	 mov         r1, r3, lsr #24
  000a8	e1c2e0b0	 strh        lr, [r2]
  000ac	e5943020	 ldr         r3, [r4, #0x20]

; 1031 : 
; 1032 :         // Send the command
; 1033 :         NAND_SendCommand(s_hNand, NAND_CMD_READ2);

  000b0	e3a02030	 mov         r2, #0x30
  000b4	e1c310b0	 strh        r1, [r3]
  000b8	e594301c	 ldr         r3, [r4, #0x1C]
  000bc	e1c320b0	 strh        r2, [r3]

; 1034 : 
; 1035 :         // Wait for the action to finish
; 1036 :         WaitForReadyStatus(s_hNand);

  000c0		 |$LL28@FMD_ReadSe|
  000c0	e594301c	 ldr         r3, [r4, #0x1C]
  000c4	e1c300b0	 strh        r0, [r3]
  000c8	e5943024	 ldr         r3, [r4, #0x24]
  000cc	e1d330b0	 ldrh        r3, [r3]
  000d0	e3130040	 tst         r3, #0x40
  000d4	0afffff9	 beq         |$LL28@FMD_ReadSe|

; 1037 : 
; 1038 :         //Force a read here, else we will read the status again
; 1039 :         NAND_SendCommand (s_hNand, NAND_CMD_READ1);

  000d8	e594101c	 ldr         r1, [r4, #0x1C]

; 1040 : 
; 1041 :         // read spare area
; 1042 :         NAND_Read(s_hNand, (BYTE*)pBuffer, 64, NULL);

  000dc	e3a03000	 mov         r3, #0
  000e0	e3a02040	 mov         r2, #0x40
  000e4	e1c1a0b0	 strh        r10, [r1]
  000e8	e1a01006	 mov         r1, r6
  000ec	e1a00004	 mov         r0, r4
  000f0	eb000000	 bl          NAND_Read

; 1043 :         
; 1044 :         //  Only enable during NAND read/write/erase operations
; 1045 :         NAND_Enable(s_hNand, FALSE);

  000f4	e5954000	 ldr         r4, [r5]
  000f8	e3a01000	 mov         r1, #0
  000fc	e1a00004	 mov         r0, r4
  00100	eb000000	 bl          NAND_Enable

; 1046 : 
; 1047 :         }
; 1048 : 
; 1049 :     //  Change idle mode back
; 1050 :     OUTREG32(&(NAND_GetGpmcRegs(s_hNand)->GPMC_SYSCONFIG), oldIdleMode);

  00104	e594302c	 ldr         r3, [r4, #0x2C]

; 1051 :     
; 1052 :     // Done
; 1053 :     rc = TRUE;

  00108	e3a00001	 mov         r0, #1
  0010c	e5838010	 str         r8, [r3, #0x10]
  00110		 |$cleanUp$46323|

; 1054 : 
; 1055 : cleanUp:
; 1056 :     // Release hardware lock
; 1057 :     if (s_hNand != NULL) NAND_MutexExit(s_hNand);
; 1058 :     
; 1059 :     ASSERT(rc);
; 1060 :     return rc;
; 1061 : }

  00110	e8bd47f0	 ldmia       sp!, {r4 - r10, lr}
  00114	e12fff1e	 bx          lr
  00118		 |$LN44@FMD_ReadSe|
  00118		 |$LN45@FMD_ReadSe|
  00118	00000000	 DCD         |s_hNand|
  0011c		 |$M47023|

			 ENDP  ; |FMD_ReadSectorOOB|

	EXPORT	|__$ArrayPad$| [ DATA ]
	EXPORT	|FMD_ReadSector|
	IMPORT	|__GSHandlerCheck|
	IMPORT	|__security_cookie|
	IMPORT	|__security_check_cookie|

  00000			 AREA	 |.pdata|, PDATA
|$T47252| DCD	|$LN129@FMD_ReadSe@2|
	DCD	0xc000fc02

  00000			 AREA	 |.xdata|, DATA
|$T47248| DCD	0xffffffd8
; Function compile flags: /Ogspy

  00000			 AREA	 |.text|, CODE, ARM

  00000	00000000	 DCD         |__GSHandlerCheck|
  00004	00000000	 DCD         |$T47248|

  00008		 |FMD_ReadSector| PROC

; 1076 : {

  00008		 |$LN129@FMD_ReadSe@2|
  00008	e92d4ff0	 stmdb       sp!, {r4 - r11, lr}
  0000c	e24dd08c	 sub         sp, sp, #0x8C
  00010		 |$M47249|
  00010	e1a05003	 mov         r5, r3
  00014	e1a06002	 mov         r6, r2
  00018	e58d5008	 str         r5, [sp, #8]
  0001c	e58d600c	 str         r6, [sp, #0xC]
  00020	e1a08001	 mov         r8, r1
  00024	e1a0b000	 mov         r11, r0
  00028	e59fe3c4	 ldr         lr, [pc, #0x3C4]
  0002c	e59ee000	 ldr         lr, [lr]
  00030	e58de088	 str         lr, [sp, #0x88]

; 1077 :     BOOL rc = FALSE;
; 1078 :     NAND_SPARE_AREA sa;
; 1079 :     UINT32 oldIdleMode;
; 1080 :     UINT32 sectorSize;
; 1081 :     BYTE rgEcc[ECC_BYTES];
; 1082 : 
; 1083 :     // Fail if FMD wasn't opened
; 1084 :     if (s_hNand == NULL) goto cleanUp;

  00034	e59fa3b4	 ldr         r10, [pc, #0x3B4]
  00038	e59a7000	 ldr         r7, [r10]
  0003c	e3570000	 cmp         r7, #0
  00040	0a0000e3	 beq         |$LN125@FMD_ReadSe@2|

; 1085 :     
; 1086 :     NAND_MutexEnter(s_hNand);
; 1087 : 
; 1088 :     //  Change idle mode to no-idle to ensure access to GPMC registers
; 1089 :     sectorSize = NAND_GetGeometry(s_hNand)->sectorSize;
; 1090 :     oldIdleMode = INREG32(&(NAND_GetGpmcRegs(s_hNand)->GPMC_SYSCONFIG));

  00044	e597e02c	 ldr         lr, [r7, #0x2C]

; 1091 :     OUTREG32(&(NAND_GetGpmcRegs(s_hNand)->GPMC_SYSCONFIG), SYSCONFIG_NOIDLE);

  00048	e5979050	 ldr         r9, [r7, #0x50]
  0004c	e3a02008	 mov         r2, #8
  00050	e59e3010	 ldr         r3, [lr, #0x10]
  00054	e58e2010	 str         r2, [lr, #0x10]

; 1092 : 	
; 1093 :     while (sectors > 0)

  00058	e3550000	 cmp         r5, #0
  0005c	e58d3010	 str         r3, [sp, #0x10]
  00060	0a0000d6	 beq         |$LN16@FMD_ReadSe@2|
  00064	e1a020a9	 mov         r2, r9, lsr #1
  00068	e1a03802	 mov         r3, r2, lsl #16
  0006c	e1a04c23	 mov         r4, r3, lsr #24
  00070	e20230ff	 and         r3, r2, #0xFF
  00074	e1cd30b4	 strh        r3, [sp, #4]
  00078	e1cd40b6	 strh        r4, [sp, #6]
  0007c		 |$LL17@FMD_ReadSe@2|

; 1094 :         {
; 1095 :         //  Only enable during NAND read/write/erase operations
; 1096 :         NAND_Enable(s_hNand, TRUE);

  0007c	e3a01001	 mov         r1, #1
  00080	e1a00007	 mov         r0, r7
  00084	eb000000	 bl          NAND_Enable

; 1097 :         
; 1098 :         // Read sector from A
; 1099 :         if (pBuffer != NULL)

  00088	e3580000	 cmp         r8, #0
  0008c	e3a02070	 mov         r2, #0x70
  00090	0a000048	 beq         |$LL62@FMD_ReadSe@2|

; 1100 :             {
; 1101 :             // be sure to do this before sending the READ command and not after ! or the
; 1102 :             // status register would remain at status read mode, which would have to be changed
; 1103 :             // before retreiving the data
; 1104 :             WaitForReadyStatus(s_hNand);

  00094		 |$LL30@FMD_ReadSe@2|
  00094	e597301c	 ldr         r3, [r7, #0x1C]
  00098	e1c320b0	 strh        r2, [r3]
  0009c	e5973024	 ldr         r3, [r7, #0x24]
  000a0	e1d330b0	 ldrh        r3, [r3]
  000a4	e3130040	 tst         r3, #0x40
  000a8	0afffff9	 beq         |$LL30@FMD_ReadSe@2|

; 1105 : 
; 1106 : 			
; 1107 :             // configure prefetch engine for input and start it
; 1108 :             NAND_ConfigurePrefetch(s_hNand, NAND_DATA_READ);

  000ac	eb000000	 bl          BSPGetNandCS
  000b0	e597302c	 ldr         r3, [r7, #0x2C]
  000b4	e3a01000	 mov         r1, #0
  000b8	e2002007	 and         r2, r0, #7
  000bc	e58311ec	 str         r1, [r3, #0x1EC]
  000c0	e2003003	 and         r3, r0, #3
  000c4	e3a00722	 mov         r0, #0x22, 14
  000c8	e1833a02	 orr         r3, r3, r2, lsl #20
  000cc	e3802b01	 orr         r2, r0, #1, 22
  000d0	e597102c	 ldr         r1, [r7, #0x2C]
  000d4	e1833002	 orr         r3, r3, r2
  000d8	e3a02001	 mov         r2, #1
  000dc	e1a03203	 mov         r3, r3, lsl #4
  000e0	e5872018	 str         r2, [r7, #0x18]
  000e4	e58131e0	 str         r3, [r1, #0x1E0]
  000e8	e597102c	 ldr         r1, [r7, #0x2C]

; 1109 :            
; 1110 :             // Send the command
; 1111 :             NAND_SendCommand (s_hNand, NAND_CMD_READ1);

  000ec	e59a0000	 ldr         r0, [r10]

; 1112 : 
; 1113 :             // Send the address
; 1114 :             NAND_Seek(s_hNand, sector, 0);

  000f0	e1a0380b	 mov         r3, r11, lsl #16
  000f4	e59121e0	 ldr         r2, [r1, #0x1E0]
  000f8	e1a0ec23	 mov         lr, r3, lsr #24
  000fc	e3a07000	 mov         r7, #0
  00100	e3823080	 orr         r3, r2, #0x80
  00104	e58131e0	 str         r3, [r1, #0x1E0]
  00108	e590201c	 ldr         r2, [r0, #0x1C]
  0010c	e1a0340b	 mov         r3, r11, lsl #8
  00110	e1a01c23	 mov         r1, r3, lsr #24
  00114	e1c270b0	 strh        r7, [r2]
  00118	e5903020	 ldr         r3, [r0, #0x20]
  0011c	e20b40ff	 and         r4, r11, #0xFF

; 1115 : 
; 1116 :             // Send the command
; 1117 :             NAND_SendCommand(s_hNand, NAND_CMD_READ2);

  00120	e3a02030	 mov         r2, #0x30
  00124	e1c370b0	 strh        r7, [r3]
  00128	e5903020	 ldr         r3, [r0, #0x20]
  0012c	e1c370b0	 strh        r7, [r3]
  00130	e5903020	 ldr         r3, [r0, #0x20]
  00134	e1c340b0	 strh        r4, [r3]
  00138	e5903020	 ldr         r3, [r0, #0x20]
  0013c	e3a04070	 mov         r4, #0x70
  00140	e1c3e0b0	 strh        lr, [r3]
  00144	e5903020	 ldr         r3, [r0, #0x20]
  00148	e1c310b0	 strh        r1, [r3]
  0014c	e590301c	 ldr         r3, [r0, #0x1C]
  00150	e1c320b0	 strh        r2, [r3]

; 1118 : 
; 1119 :             // Wait for the action to finish
; 1120 :             WaitForReadyStatus(s_hNand);

  00154		 |$LL48@FMD_ReadSe@2|
  00154	e590301c	 ldr         r3, [r0, #0x1C]
  00158	e1c340b0	 strh        r4, [r3]
  0015c	e5903024	 ldr         r3, [r0, #0x24]
  00160	e1d330b0	 ldrh        r3, [r3]
  00164	e3130040	 tst         r3, #0x40
  00168	0afffff9	 beq         |$LL48@FMD_ReadSe@2|

; 1121 : 
; 1122 :             //Force a read here, else we will read the status again
; 1123 :             NAND_SendCommand (s_hNand, NAND_CMD_READ1);

  0016c	e590101c	 ldr         r1, [r0, #0x1C]

; 1124 : 
; 1125 : 	     // read data
; 1126 :             NAND_Read(s_hNand, pBuffer, sectorSize, rgEcc);

  00170	e28d3054	 add         r3, sp, #0x54
  00174	e1a02009	 mov         r2, r9
  00178	e1c170b0	 strh        r7, [r1]
  0017c	e1a01008	 mov         r1, r8
  00180	eb000000	 bl          NAND_Read

; 1127 : 			
; 1128 :             // read spare area
; 1129 :             NAND_Read(s_hNand, (BYTE*)&sa, sizeof(sa), NULL);

  00184	e59a0000	 ldr         r0, [r10]
  00188	e3a03000	 mov         r3, #0
  0018c	e3a02040	 mov         r2, #0x40
  00190	e28d1014	 add         r1, sp, #0x14
  00194	eb000000	 bl          NAND_Read
  00198	e59a7000	 ldr         r7, [r10]

; 1130 : 
; 1131 :             // Make sure of the NAND status
; 1132 :             WaitForReadyStatus(s_hNand);

  0019c		 |$LL56@FMD_ReadSe@2|
  0019c	e597301c	 ldr         r3, [r7, #0x1C]
  001a0	e1c340b0	 strh        r4, [r3]
  001a4	e5973024	 ldr         r3, [r7, #0x24]
  001a8	e1d330b0	 ldrh        r3, [r3]
  001ac	e3130040	 tst         r3, #0x40
  001b0	0afffff9	 beq         |$LL56@FMD_ReadSe@2|

; 1133 :             }
; 1134 :         else

  001b4	ea000031	 b           |$LN83@FMD_ReadSe@2|

; 1135 :          {
; 1136 :             // Make sure of the NAND status
; 1137 :             WaitForReadyStatus(s_hNand);

  001b8		 |$LL62@FMD_ReadSe@2|
  001b8	e597301c	 ldr         r3, [r7, #0x1C]
  001bc	e1c320b0	 strh        r2, [r3]
  001c0	e5973024	 ldr         r3, [r7, #0x24]
  001c4	e1d330b0	 ldrh        r3, [r3]
  001c8	e3130040	 tst         r3, #0x40
  001cc	0afffff9	 beq         |$LL62@FMD_ReadSe@2|

; 1138 :             // Send the command
; 1139 :             NAND_SendCommand(s_hNand, NAND_CMD_READ1);

  001d0	e597301c	 ldr         r3, [r7, #0x1C]

; 1140 :     
; 1141 :             // Send the address
; 1142 :             NAND_Seek(s_hNand, sector, sectorSize);

  001d4	e3a01000	 mov         r1, #0
  001d8	e1dd00b4	 ldrh        r0, [sp, #4]
  001dc	e1c310b0	 strh        r1, [r3]
  001e0	e5973020	 ldr         r3, [r7, #0x20]
  001e4	e20be0ff	 and         lr, r11, #0xFF
  001e8	e1a0280b	 mov         r2, r11, lsl #16
  001ec	e1c300b0	 strh        r0, [r3]
  001f0	e5973020	 ldr         r3, [r7, #0x20]
  001f4	e1a01c22	 mov         r1, r2, lsr #24
  001f8	e1a0240b	 mov         r2, r11, lsl #8
  001fc	e1c340b0	 strh        r4, [r3]
  00200	e5973020	 ldr         r3, [r7, #0x20]
  00204	e1a02c22	 mov         r2, r2, lsr #24
  00208	e3a04070	 mov         r4, #0x70
  0020c	e1c3e0b0	 strh        lr, [r3]
  00210	e5973020	 ldr         r3, [r7, #0x20]
  00214	e1c310b0	 strh        r1, [r3]
  00218	e5973020	 ldr         r3, [r7, #0x20]
  0021c	e1c320b0	 strh        r2, [r3]

; 1143 :     
; 1144 :             // Send the command
; 1145 :             NAND_SendCommand(s_hNand, NAND_CMD_READ2);

  00220	e597301c	 ldr         r3, [r7, #0x1C]
  00224	e3a02030	 mov         r2, #0x30
  00228	e1c320b0	 strh        r2, [r3]

; 1146 :     
; 1147 :             // Wait for the action to finish
; 1148 :             WaitForReadyStatus(s_hNand);

  0022c		 |$LL76@FMD_ReadSe@2|
  0022c	e597301c	 ldr         r3, [r7, #0x1C]
  00230	e1c340b0	 strh        r4, [r3]
  00234	e5973024	 ldr         r3, [r7, #0x24]
  00238	e1d330b0	 ldrh        r3, [r3]
  0023c	e3130040	 tst         r3, #0x40
  00240	0afffff9	 beq         |$LL76@FMD_ReadSe@2|

; 1149 :             //Force a read here, else we will read the status again
; 1150 :             NAND_SendCommand (s_hNand, NAND_CMD_READ1);

  00244	e597101c	 ldr         r1, [r7, #0x1C]

; 1151 :     
; 1152 :             // read spare area
; 1153 :             NAND_Read(s_hNand, (BYTE*)&sa, sizeof(sa), NULL);

  00248	e3a00000	 mov         r0, #0
  0024c	e3a03000	 mov         r3, #0
  00250	e1c100b0	 strh        r0, [r1]
  00254	e28d1014	 add         r1, sp, #0x14
  00258	e1a00007	 mov         r0, r7
  0025c	e3a02040	 mov         r2, #0x40
  00260	eb000000	 bl          NAND_Read
  00264	e59a7000	 ldr         r7, [r10]

; 1154 : 
; 1155 :             // Make sure of the NAND status
; 1156 :             WaitForReadyStatus(s_hNand);

  00268		 |$LL84@FMD_ReadSe@2|
  00268	e597301c	 ldr         r3, [r7, #0x1C]
  0026c	e1c340b0	 strh        r4, [r3]
  00270	e5973024	 ldr         r3, [r7, #0x24]
  00274	e1d330b0	 ldrh        r3, [r3]
  00278	e3130040	 tst         r3, #0x40
  0027c	0afffff9	 beq         |$LL84@FMD_ReadSe@2|
  00280		 |$LN83@FMD_ReadSe@2|

; 1157 :     
; 1158 :         }        // Copy sector info
; 1159 :         if (pSectorInfo != NULL)

  00280	e3560000	 cmp         r6, #0
  00284	0a00001e	 beq         |$LN13@FMD_ReadSe@2|

; 1160 :             {
; 1161 :             pSectorInfo->bBadBlock    = sa.hwBadBlock[0] & sa.hwBadBlock[1];    // HW bad block check
; 1162 :             pSectorInfo->bBadBlock    = pSectorInfo->bBadBlock & sa.swBadBlock; // SW bad block flag check
; 1163 :             pSectorInfo->bOEMReserved = sa.oemReserved;
; 1164 : 
; 1165 :             memcpy(
; 1166 :                 &pSectorInfo->dwReserved1, sa.reserved1,
; 1167 :                 sizeof(pSectorInfo->dwReserved1)
; 1168 :                 );

  00288	e5dd204d	 ldrb        r2, [sp, #0x4D]
  0028c	e5dd304c	 ldrb        r3, [sp, #0x4C]
  00290	e5dd104e	 ldrb        r1, [sp, #0x4E]
  00294	e5dd004f	 ldrb        r0, [sp, #0x4F]
  00298	e5dde049	 ldrb        lr, [sp, #0x49]
  0029c	e1833402	 orr         r3, r3, r2, lsl #8
  002a0	e5dd2048	 ldrb        r2, [sp, #0x48]
  002a4	e5dd404a	 ldrb        r4, [sp, #0x4A]
  002a8	e1833801	 orr         r3, r3, r1, lsl #16
  002ac	e5dd504b	 ldrb        r5, [sp, #0x4B]
  002b0	e1833c00	 orr         r3, r3, r0, lsl #24
  002b4	e5dd6050	 ldrb        r6, [sp, #0x50]
  002b8	e5dd0015	 ldrb        r0, [sp, #0x15]
  002bc	e182240e	 orr         r2, r2, lr, lsl #8
  002c0	e1a01803	 mov         r1, r3, lsl #16
  002c4	e1823804	 orr         r3, r2, r4, lsl #16
  002c8	e5dd4014	 ldrb        r4, [sp, #0x14]
  002cc	e1833c05	 orr         r3, r3, r5, lsl #24
  002d0	e5dd5051	 ldrb        r5, [sp, #0x51]
  002d4	e0062000	 and         r2, r6, r0

; 1169 : 
; 1170 :             memcpy(
; 1171 :                 &pSectorInfo->wReserved2, sa.reserved2,
; 1172 :                 sizeof(pSectorInfo->wReserved2)
; 1173 :                 );

  002d8	e59d600c	 ldr         r6, [sp, #0xC]
  002dc	e1a03823	 mov         r3, r3, lsr #16
  002e0	e1a0e821	 mov         lr, r1, lsr #16
  002e4	e1dd14be	 ldrh        r1, [sp, #0x4E]
  002e8	e183380e	 orr         r3, r3, lr, lsl #16
  002ec	e0022004	 and         r2, r2, r4
  002f0	e5863000	 str         r3, [r6]
  002f4	e5c62005	 strb        r2, [r6, #5]
  002f8	e5c65004	 strb        r5, [r6, #4]

; 1204 :         pSectorInfo++;
; 1205 :         sectors--;

  002fc	e59d5008	 ldr         r5, [sp, #8]
  00300	e1c610b6	 strh        r1, [r6, #6]
  00304		 |$LN13@FMD_ReadSe@2|
  00304	e3a01000	 mov         r1, #0
  00308	e1a00007	 mov         r0, r7
  0030c	eb000000	 bl          NAND_Enable
  00310	e3580000	 cmp         r8, #0
  00314	0a000020	 beq         |$LN4@FMD_ReadSe@2|
  00318	e28de054	 add         lr, sp, #0x54
  0031c	e28d3016	 add         r3, sp, #0x16
  00320	e1a02009	 mov         r2, r9
  00324	e1a01008	 mov         r1, r8
  00328	e1a00007	 mov         r0, r7
  0032c	e58de000	 str         lr, [sp]
  00330	eb000000	 bl          NAND_CorrectEccData
  00334	e3500000	 cmp         r0, #0
  00338	1a000016	 bne         |$LN112@FMD_ReadSe@2|
  0033c	e1a01008	 mov         r1, r8
  00340	e3a02000	 mov         r2, #0
  00344	e28d0051	 add         r0, sp, #0x51
  00348		 |$LL11@FMD_ReadSe@2|
  00348	e28d3014	 add         r3, sp, #0x14
  0034c	e0823003	 add         r3, r2, r3
  00350	e1530000	 cmp         r3, r0
  00354	0a000002	 beq         |$LN10@FMD_ReadSe@2|
  00358	e5d33000	 ldrb        r3, [r3]
  0035c	e35300ff	 cmp         r3, #0xFF
  00360	1a00001b	 bne         |$LN125@FMD_ReadSe@2|
  00364		 |$LN10@FMD_ReadSe@2|

; 1174 :             }
; 1175 :         
; 1176 :         //  Only enable during NAND read/write/erase operations
; 1177 :         NAND_Enable(s_hNand, FALSE);
; 1178 : 
; 1179 :         // perform ecc correction and correct data when possible
; 1180 :         if ((pBuffer != NULL) &&
; 1181 :             (NAND_CorrectEccData(s_hNand, pBuffer, sectorSize, sa.ecc, rgEcc) == FALSE))
; 1182 :             {
; 1183 :             UINT count;
; 1184 :             UCHAR *pData = pBuffer;
; 1185 :             DEBUGMSG (ZONE_ERROR, (L"NAND_CorrectEccData returns FALSE, sector=%d\r\n", sector));	
; 1186 : 
; 1187 :             for (count = 0; count < sizeof(sa); count++)

  00364	e2822001	 add         r2, r2, #1
  00368	e3520040	 cmp         r2, #0x40
  0036c	3afffff5	 bcc         |$LL11@FMD_ReadSe@2|

; 1188 :                 {
; 1189 :                 // Allow OEMReserved byte to be set to reserved/readonly
; 1190 :                 if (&(((UINT8*)&sa)[count]) == &sa.oemReserved) continue;
; 1191 :                 if (((UINT8*)&sa)[count] != 0xFF) goto cleanUp;
; 1192 :                 }
; 1193 : 
; 1194 :             for (count = 0; count < sectorSize; count++)

  00370	e3a02000	 mov         r2, #0
  00374	e3590000	 cmp         r9, #0
  00378	0a000006	 beq         |$LN112@FMD_ReadSe@2|
  0037c		 |$LL6@FMD_ReadSe@2|

; 1195 :                 {
; 1196 :                 if (*pData != 0xFF) goto cleanUp;

  0037c	e5d13000	 ldrb        r3, [r1]
  00380	e35300ff	 cmp         r3, #0xFF
  00384	1a000012	 bne         |$LN125@FMD_ReadSe@2|
  00388	e2822001	 add         r2, r2, #1
  0038c	e1520009	 cmp         r2, r9

; 1197 :                 ++pData;

  00390	e2811001	 add         r1, r1, #1
  00394	3afffff8	 bcc         |$LL6@FMD_ReadSe@2|
  00398		 |$LN112@FMD_ReadSe@2|

; 1188 :                 {
; 1189 :                 // Allow OEMReserved byte to be set to reserved/readonly
; 1190 :                 if (&(((UINT8*)&sa)[count]) == &sa.oemReserved) continue;
; 1191 :                 if (((UINT8*)&sa)[count] != 0xFF) goto cleanUp;
; 1192 :                 }
; 1193 : 
; 1194 :             for (count = 0; count < sectorSize; count++)

  00398	e59a7000	 ldr         r7, [r10]
  0039c		 |$LN4@FMD_ReadSe@2|

; 1198 :                 }
; 1199 :             }
; 1200 :         
; 1201 :         // Move to next sector
; 1202 :         sector++;
; 1203 :         if (pBuffer != NULL) pBuffer += sectorSize;

  0039c	e3580000	 cmp         r8, #0
  003a0	10888009	 addne       r8, r8, r9

; 1204 :         pSectorInfo++;
; 1205 :         sectors--;

  003a4	e2555001	 subs        r5, r5, #1
  003a8	e2866008	 add         r6, r6, #8
  003ac	e1dd40b6	 ldrh        r4, [sp, #6]
  003b0	e58d5008	 str         r5, [sp, #8]
  003b4	e28bb001	 add         r11, r11, #1
  003b8	e58d600c	 str         r6, [sp, #0xC]
  003bc	1affff2e	 bne         |$LL17@FMD_ReadSe@2|
  003c0		 |$LN16@FMD_ReadSe@2|

; 1206 :         }
; 1207 : 
; 1208 :     //  Change idle mode back
; 1209 :     OUTREG32(&(NAND_GetGpmcRegs(s_hNand)->GPMC_SYSCONFIG), oldIdleMode);

  003c0	e597302c	 ldr         r3, [r7, #0x2C]

; 1210 :     
; 1211 :     // Done
; 1212 :     rc = TRUE;

  003c4	e59d2010	 ldr         r2, [sp, #0x10]
  003c8	e3a04001	 mov         r4, #1
  003cc	e5832010	 str         r2, [r3, #0x10]
  003d0	ea000000	 b           |$cleanUp$46350|
  003d4		 |$LN125@FMD_ReadSe@2|
  003d4	e3a04000	 mov         r4, #0
  003d8		 |$cleanUp$46350|

; 1213 : 
; 1214 : cleanUp:
; 1215 :     // Release hardware lock
; 1216 :     if (s_hNand != NULL) NAND_MutexExit(s_hNand);
; 1217 :     
; 1218 :     ASSERT(rc);
; 1219 :     return rc;

  003d8	e59d0088	 ldr         r0, [sp, #0x88]
  003dc	eb000000	 bl          __security_check_cookie

; 1220 : }

  003e0	e1a00004	 mov         r0, r4
  003e4	e28dd08c	 add         sp, sp, #0x8C
  003e8	e8bd4ff0	 ldmia       sp!, {r4 - r11, lr}
  003ec	e12fff1e	 bx          lr
  003f0		 |$LN130@FMD_ReadSe@2|
  003f0		 |$LN131@FMD_ReadSe@2|
  003f0	00000000	 DCD         |s_hNand|
  003f4		 |$LN132@FMD_ReadSe@2|
  003f4	00000000	 DCD         |__security_cookie|
  003f8		 |$M47250|

			 ENDP  ; |FMD_ReadSector|

	EXPORT	|__$ArrayPad$| [ DATA ]
	EXPORT	|FMD_WriteSector|
	IMPORT	|memset|

  00000			 AREA	 |.pdata|, PDATA
|$T47438| DCD	|$LN89@FMD_WriteS|
	DCD	0xc000db02

  00000			 AREA	 |.xdata|, DATA
|$T47434| DCD	0xffffffd8
; Function compile flags: /Ogspy

  00000			 AREA	 |.text|, CODE, ARM

  00000	00000000	 DCD         |__GSHandlerCheck|
  00004	00000000	 DCD         |$T47434|

  00008		 |FMD_WriteSector| PROC

; 1233 : {

  00008		 |$LN89@FMD_WriteS|
  00008	e92d4ff0	 stmdb       sp!, {r4 - r11, lr}
  0000c	e24dd058	 sub         sp, sp, #0x58
  00010		 |$M47435|
  00010	e1a09003	 mov         r9, r3
  00014	e1a08002	 mov         r8, r2
  00018	e1a0a001	 mov         r10, r1
  0001c	e1a0b000	 mov         r11, r0
  00020	e59fe348	 ldr         lr, [pc, #0x348]
  00024	e59ee000	 ldr         lr, [lr]
  00028	e58de054	 str         lr, [sp, #0x54]

; 1234 :     BOOL rc = FALSE;
; 1235 :     NAND_SPARE_AREA sa;
; 1236 :     UINT32 oldIdleMode;
; 1237 :     UINT32 sectorSize;
; 1238 :     SECTOR_ADDR startSector = sector;
; 1239 :     SECTOR_ADDR endSector = sector + sectors;
; 1240 :     NandDevice_t *pDevice = (NandDevice_t*)s_hNand;

  0002c	e59f6338	 ldr         r6, [pc, #0x338]
  00030	e3a05000	 mov         r5, #0
  00034	e5964000	 ldr         r4, [r6]
  00038	e1a03004	 mov         r3, r4
  0003c	e58d3010	 str         r3, [sp, #0x10]

; 1241 : 
; 1242 :     // Fail if FMD wasn't opened
; 1243 :     if (s_hNand == NULL) goto cleanUp;

  00040	e3540000	 cmp         r4, #0
  00044	0a0000c1	 beq         |$cleanUp$46408|

; 1244 :     
; 1245 :     // Obtain hardware lock
; 1246 :     NAND_MutexEnter(s_hNand);
; 1247 : 
; 1248 :     //  Change idle mode to no-idle to ensure access to GPMC registers
; 1249 :     sectorSize = NAND_GetGeometry(s_hNand)->sectorSize;
; 1250 :     oldIdleMode = INREG32(&(NAND_GetGpmcRegs(s_hNand)->GPMC_SYSCONFIG));

  00048	e594e02c	 ldr         lr, [r4, #0x2C]

; 1251 :     OUTREG32(&(NAND_GetGpmcRegs(s_hNand)->GPMC_SYSCONFIG), SYSCONFIG_NOIDLE);

  0004c	e5945050	 ldr         r5, [r4, #0x50]
  00050	e3a02008	 mov         r2, #8
  00054	e59e3010	 ldr         r3, [lr, #0x10]

; 1252 : 
; 1253 :     //  Only enable during NAND read/write/erase operations    
; 1254 :     NAND_Enable(s_hNand, TRUE);

  00058	e3a01001	 mov         r1, #1
  0005c	e1a00004	 mov         r0, r4
  00060	e58d300c	 str         r3, [sp, #0xC]
  00064	e58d5008	 str         r5, [sp, #8]
  00068	e58e2010	 str         r2, [lr, #0x10]
  0006c	eb000000	 bl          NAND_Enable

; 1255 :     NAND_LockBlocks(s_hNand, startSector, endSector, FALSE);

  00070	e594202c	 ldr         r2, [r4, #0x2C]
  00074		 |$cleanUp$47282|

; 1256 :     
; 1257 :     while (sectors > 0)

  00074	e3590000	 cmp         r9, #0
  00078	e5923050	 ldr         r3, [r2, #0x50]
  0007c	e3833010	 orr         r3, r3, #0x10
  00080	e5823050	 str         r3, [r2, #0x50]
  00084	0a0000a4	 beq         |$LN86@FMD_WriteS|
  00088	e1a020a5	 mov         r2, r5, lsr #1
  0008c	e1a03802	 mov         r3, r2, lsl #16
  00090	e1a03c23	 mov         r3, r3, lsr #24
  00094	e1cd30b4	 strh        r3, [sp, #4]
  00098	e20230ff	 and         r3, r2, #0xFF
  0009c	e59f72c4	 ldr         r7, [pc, #0x2C4]
  000a0	e1cd30b6	 strh        r3, [sp, #6]
  000a4		 |$LL9@FMD_WriteS|

; 1258 :         {
; 1259 :         // Clear out spare area struct
; 1260 :         memset(&sa, 0xFF, sizeof(NAND_SPARE_AREA));

  000a4	e3a02040	 mov         r2, #0x40
  000a8	e3a010ff	 mov         r1, #0xFF
  000ac	e28d0014	 add         r0, sp, #0x14
  000b0	eb000000	 bl          memset

; 1261 : 
; 1262 :         // When there is buffer write data
; 1263 :         if (pBuffer != NULL)

  000b4	e35a0000	 cmp         r10, #0
  000b8	0a00002c	 beq         |$LN7@FMD_WriteS|

; 1264 :             {
; 1265 :             // enable prefetch
; 1266 :             NAND_ConfigurePrefetch(s_hNand, NAND_DATA_WRITE);

  000bc	eb000000	 bl          BSPGetNandCS
  000c0	e594302c	 ldr         r3, [r4, #0x2C]
  000c4	e3a0e000	 mov         lr, #0
  000c8	e2002007	 and         r2, r0, #7
  000cc	e583e1ec	 str         lr, [r3, #0x1EC]
  000d0	e2003003	 and         r3, r0, #3
  000d4	e594102c	 ldr         r1, [r4, #0x2C]
  000d8	e1833a02	 orr         r3, r3, r2, lsl #20
  000dc	e3a02002	 mov         r2, #2
  000e0	e1873203	 orr         r3, r7, r3, lsl #4
  000e4	e5842018	 str         r2, [r4, #0x18]
  000e8	e58131e0	 str         r3, [r1, #0x1E0]
  000ec	e594102c	 ldr         r1, [r4, #0x2C]

; 1267 : 
; 1268 :             // send the write command
; 1269 :             NAND_SendCommand(s_hNand, NAND_CMD_WRITE1);
; 1270 : 
; 1271 :             // send the address to write to
; 1272 :             NAND_Seek(s_hNand, sector, 0);

  000f0	e1a0380b	 mov         r3, r11, lsl #16
  000f4	e5967000	 ldr         r7, [r6]
  000f8	e59121e0	 ldr         r2, [r1, #0x1E0]
  000fc	e1a05c23	 mov         r5, r3, lsr #24

; 1273 : 
; 1274 :             // send data to flash
; 1275 :             NAND_Write(s_hNand, pBuffer, sectorSize, sa.ecc);

  00100	e3a06000	 mov         r6, #0
  00104	e3823080	 orr         r3, r2, #0x80
  00108	e58131e0	 str         r3, [r1, #0x1E0]
  0010c	e597201c	 ldr         r2, [r7, #0x1C]
  00110	e1a0340b	 mov         r3, r11, lsl #8
  00114	e1a04c23	 mov         r4, r3, lsr #24
  00118	e3a03080	 mov         r3, #0x80
  0011c	e1c230b0	 strh        r3, [r2]
  00120	e5971020	 ldr         r1, [r7, #0x20]
  00124	e59d2008	 ldr         r2, [sp, #8]
  00128	e28d3016	 add         r3, sp, #0x16
  0012c	e1c1e0b0	 strh        lr, [r1]
  00130	e597e020	 ldr         lr, [r7, #0x20]
  00134	e1a0100a	 mov         r1, r10
  00138	e1a00007	 mov         r0, r7
  0013c	e1ce60b0	 strh        r6, [lr]
  00140	e597e020	 ldr         lr, [r7, #0x20]
  00144	e20b60ff	 and         r6, r11, #0xFF
  00148	e1ce60b0	 strh        r6, [lr]
  0014c	e597e020	 ldr         lr, [r7, #0x20]
  00150	e1ce50b0	 strh        r5, [lr]
  00154	e597e020	 ldr         lr, [r7, #0x20]
  00158	e1ce40b0	 strh        r4, [lr]
  0015c	eb000000	 bl          NAND_Write

; 1276 : 
; 1277 :             }
; 1278 :         else

  00160	e59f6204	 ldr         r6, [pc, #0x204]
  00164	e59d5008	 ldr         r5, [sp, #8]
  00168	e5960000	 ldr         r0, [r6]
  0016c	ea00003c	 b           |$LN60@FMD_WriteS|
  00170		 |$LN7@FMD_WriteS|

; 1279 :             {
; 1280 :             // Send the command
; 1281 :             NAND_SendCommand(s_hNand, NAND_CMD_READ1);

  00170	e594301c	 ldr         r3, [r4, #0x1C]

; 1282 : 
; 1283 :             // Send the address
; 1284 :             NAND_Seek(s_hNand, sector, NAND_GetGeometry(s_hNand)->sectorSize);

  00174	e3a01000	 mov         r1, #0
  00178	e1a0280b	 mov         r2, r11, lsl #16
  0017c	e1c310b0	 strh        r1, [r3]
  00180	e5943050	 ldr         r3, [r4, #0x50]
  00184	e5941020	 ldr         r1, [r4, #0x20]
  00188	e1a0ec22	 mov         lr, r2, lsr #24
  0018c	e1a000a3	 mov         r0, r3, lsr #1
  00190	e20030ff	 and         r3, r0, #0xFF
  00194	e1c130b0	 strh        r3, [r1]
  00198	e5942020	 ldr         r2, [r4, #0x20]
  0019c	e1a03800	 mov         r3, r0, lsl #16
  001a0	e1a03c23	 mov         r3, r3, lsr #24
  001a4	e1c230b0	 strh        r3, [r2]
  001a8	e5942020	 ldr         r2, [r4, #0x20]
  001ac	e20b70ff	 and         r7, r11, #0xFF
  001b0	e1a0340b	 mov         r3, r11, lsl #8
  001b4	e1c270b0	 strh        r7, [r2]
  001b8	e1a01c23	 mov         r1, r3, lsr #24
  001bc	e5943020	 ldr         r3, [r4, #0x20]

; 1285 : 
; 1286 :             // Send the command
; 1287 :             NAND_SendCommand(s_hNand, NAND_CMD_READ2);

  001c0	e3a02030	 mov         r2, #0x30
  001c4	e1cde0b2	 strh        lr, [sp, #2]
  001c8	e1c3e0b0	 strh        lr, [r3]
  001cc	e5943020	 ldr         r3, [r4, #0x20]
  001d0	e1cd10b0	 strh        r1, [sp]
  001d4	e1c310b0	 strh        r1, [r3]
  001d8	e594301c	 ldr         r3, [r4, #0x1C]
  001dc	e1c320b0	 strh        r2, [r3]
  001e0	e3a02070	 mov         r2, #0x70

; 1288 : 
; 1289 :             // Wait for the action to finish
; 1290 :             WaitForReadyStatus(s_hNand);

  001e4		 |$LL49@FMD_WriteS|
  001e4	e594301c	 ldr         r3, [r4, #0x1C]
  001e8	e1c320b0	 strh        r2, [r3]
  001ec	e5943024	 ldr         r3, [r4, #0x24]
  001f0	e1d330b0	 ldrh        r3, [r3]
  001f4	e3130040	 tst         r3, #0x40
  001f8	0afffff9	 beq         |$LL49@FMD_WriteS|

; 1291 : 
; 1292 :             //Force a read here, else we will read the status again
; 1293 :             NAND_SendCommand (s_hNand, NAND_CMD_READ1);

  001fc	e594101c	 ldr         r1, [r4, #0x1C]

; 1294 : 
; 1295 :             // read spare area
; 1296 :             NAND_Read(s_hNand, (BYTE*)&sa, sizeof(sa), NULL);

  00200	e3a00000	 mov         r0, #0
  00204	e3a03000	 mov         r3, #0
  00208	e1c100b0	 strh        r0, [r1]
  0020c	e28d1014	 add         r1, sp, #0x14
  00210	e1a00004	 mov         r0, r4
  00214	e3a02040	 mov         r2, #0x40
  00218	eb000000	 bl          NAND_Read

; 1297 : 
; 1298 : 
; 1299 :             // send the write command
; 1300 :             NAND_SendCommand(s_hNand, NAND_CMD_WRITE1);

  0021c	e5960000	 ldr         r0, [r6]
  00220	e3a02080	 mov         r2, #0x80
  00224	e590301c	 ldr         r3, [r0, #0x1C]
  00228	e1c320b0	 strh        r2, [r3]

; 1301 : 
; 1302 :             // send the address to write to
; 1303 :             NAND_Seek(s_hNand, sector, sectorSize);

  0022c	e5903020	 ldr         r3, [r0, #0x20]
  00230	e1dd20b6	 ldrh        r2, [sp, #6]
  00234	e1c320b0	 strh        r2, [r3]
  00238	e5903020	 ldr         r3, [r0, #0x20]
  0023c	e1dd20b4	 ldrh        r2, [sp, #4]
  00240	e1c320b0	 strh        r2, [r3]
  00244	e5903020	 ldr         r3, [r0, #0x20]
  00248	e1dd20b2	 ldrh        r2, [sp, #2]
  0024c	e1c370b0	 strh        r7, [r3]
  00250	e5903020	 ldr         r3, [r0, #0x20]
  00254	e1c320b0	 strh        r2, [r3]
  00258	e5903020	 ldr         r3, [r0, #0x20]
  0025c	e1dd20b0	 ldrh        r2, [sp]
  00260	e1c320b0	 strh        r2, [r3]
  00264		 |$LN60@FMD_WriteS|

; 1304 : 			
; 1305 :             }
; 1306 : 		
; 1307 :         /* used for test purpose */ 
; 1308 :         if((pSectorInfo != NULL) && (pSectorInfo->bOEMReserved == SKIP_ECC_WRITE_MAGIC_NUMBER) )

  00264	e3580000	 cmp         r8, #0
  00268	0a00000f	 beq         |$LN4@FMD_WriteS|
  0026c	e5d84004	 ldrb        r4, [r8, #4]
  00270	e354000f	 cmp         r4, #0xF
  00274	1a000003	 bne         |$LN5@FMD_WriteS|

; 1309 :         {
; 1310 :             /* skip updating ECC */
; 1311 :             ECC_Reset(pDevice->pGpmcRegs);			

  00278	e59d3010	 ldr         r3, [sp, #0x10]
  0027c	e593002c	 ldr         r0, [r3, #0x2C]
  00280	eb000000	 bl          ECC_Reset

; 1312 : 	     goto  skip_ecc; 	

  00284	ea00000c	 b           |$skip_ecc$46423|
  00288		 |$LN5@FMD_WriteS|

; 1313 :         }
; 1314 : 
; 1315 :         if (pSectorInfo != NULL)
; 1316 :             {
; 1317 :             // Fill in rest of spare area info (we already have ECC from above)
; 1318 :             sa.swBadBlock     = pSectorInfo->bBadBlock;
; 1319 :             sa.oemReserved  = pSectorInfo->bOEMReserved;
; 1320 :             memcpy(sa.reserved1, &pSectorInfo->dwReserved1, sizeof(sa.reserved1));

  00288	e598e000	 ldr         lr, [r8]
  0028c	e5d82005	 ldrb        r2, [r8, #5]

; 1321 :             memcpy(sa.reserved2, &pSectorInfo->wReserved2, sizeof(sa.reserved2));

  00290	e1d810b6	 ldrh        r1, [r8, #6]
  00294	e1a0382e	 mov         r3, lr, lsr #16
  00298	e1cd34bc	 strh        r3, [sp, #0x4C]
  0029c	e5cd2050	 strb        r2, [sp, #0x50]
  002a0	e5cd4051	 strb        r4, [sp, #0x51]
  002a4	e1cde4ba	 strh        lr, [sp, #0x4A]
  002a8	e1cd14be	 strh        r1, [sp, #0x4E]
  002ac		 |$LN4@FMD_WriteS|

; 1322 :             }
; 1323 : 
; 1324 :         // write new spare info
; 1325 :         NAND_Write(s_hNand, (BYTE*)&sa, sizeof(sa), NULL);

  002ac	e3a03000	 mov         r3, #0
  002b0	e3a02040	 mov         r2, #0x40
  002b4	e28d1014	 add         r1, sp, #0x14
  002b8	eb000000	 bl          NAND_Write
  002bc		 |$skip_ecc$46423|

; 1326 : 
; 1327 : skip_ecc:
; 1328 :         // initiate the data programming process :
; 1329 :         NAND_SendCommand(s_hNand, NAND_CMD_WRITE2);

  002bc	e5964000	 ldr         r4, [r6]
  002c0	e3a02010	 mov         r2, #0x10
  002c4	e594301c	 ldr         r3, [r4, #0x1C]
  002c8	e1c320b0	 strh        r2, [r3]
  002cc	e3a02070	 mov         r2, #0x70

; 1330 : 
; 1331 :         // wait until completion of the operation :
; 1332 :         WaitForReadyStatus(s_hNand);

  002d0		 |$LL65@FMD_WriteS|
  002d0	e594301c	 ldr         r3, [r4, #0x1C]
  002d4	e1c320b0	 strh        r2, [r3]
  002d8	e5943024	 ldr         r3, [r4, #0x24]
  002dc	e1d330b0	 ldrh        r3, [r3]
  002e0	e3130040	 tst         r3, #0x40
  002e4	0afffff9	 beq         |$LL65@FMD_WriteS|

; 1333 : 
; 1334 :         if ((NAND_GetStatus(s_hNand) & NAND_STATUS_ERROR) != 0)

  002e8	e594301c	 ldr         r3, [r4, #0x1C]
  002ec	e1c320b0	 strh        r2, [r3]
  002f0	e5943024	 ldr         r3, [r4, #0x24]
  002f4	e1d330b0	 ldrh        r3, [r3]
  002f8	e3130001	 tst         r3, #1
  002fc	1a000006	 bne         |$LN86@FMD_WriteS|

; 1335 :             {
; 1336 :             break;
; 1337 :             }
; 1338 :         // Move to next sector
; 1339 :         sector++;
; 1340 :         if (pBuffer != NULL) pBuffer += sectorSize;

  00300	e35a0000	 cmp         r10, #0

; 1341 :         pSectorInfo++;
; 1342 :         sectors--;

  00304	e59f705c	 ldr         r7, [pc, #0x5C]
  00308	108aa005	 addne       r10, r10, r5
  0030c	e2599001	 subs        r9, r9, #1
  00310	e28bb001	 add         r11, r11, #1
  00314	e2888008	 add         r8, r8, #8
  00318	1affff61	 bne         |$LL9@FMD_WriteS|
  0031c		 |$LN86@FMD_WriteS|

; 1343 :         }
; 1344 : 
; 1345 :     //  Only enable during NAND read/write/erase operations    
; 1346 :     NAND_LockBlocks(s_hNand, startSector, endSector, TRUE);

  0031c	e594202c	 ldr         r2, [r4, #0x2C]

; 1347 :     NAND_Enable(s_hNand, FALSE);

  00320	e3a01000	 mov         r1, #0
  00324	e1a00004	 mov         r0, r4
  00328	e5923050	 ldr         r3, [r2, #0x50]
  0032c		 |$cleanUp$47399|
  0032c	e3c33010	 bic         r3, r3, #0x10
  00330	e5823050	 str         r3, [r2, #0x50]
  00334	eb000000	 bl          NAND_Enable

; 1348 : 
; 1349 :     //  Change idle mode back
; 1350 :     OUTREG32(&(NAND_GetGpmcRegs(s_hNand)->GPMC_SYSCONFIG), oldIdleMode);

  00338	e594302c	 ldr         r3, [r4, #0x2C]

; 1351 : 
; 1352 :     // All is ok, when we read all sectors
; 1353 :     rc = (sectors == 0);

  0033c	e59d200c	 ldr         r2, [sp, #0xC]
  00340	e3590000	 cmp         r9, #0
  00344	03a05001	 moveq       r5, #1
  00348	e5832010	 str         r2, [r3, #0x10]
  0034c	13a05000	 movne       r5, #0
  00350		 |$cleanUp$46408|

; 1354 : 
; 1355 : cleanUp:
; 1356 :     // Release hardware lock
; 1357 :     if (s_hNand != NULL) NAND_MutexExit(s_hNand);
; 1358 :     
; 1359 :     ASSERT(rc);
; 1360 :     return rc;

  00350	e59d0054	 ldr         r0, [sp, #0x54]
  00354	eb000000	 bl          __security_check_cookie

; 1361 : }

  00358	e1a00005	 mov         r0, r5
  0035c	e28dd058	 add         sp, sp, #0x58
  00360	e8bd4ff0	 ldmia       sp!, {r4 - r11, lr}
  00364	e12fff1e	 bx          lr
  00368		 |$LN90@FMD_WriteS|
  00368		 |$LN91@FMD_WriteS|
  00368	08804001	 DCD         0x8804001
  0036c		 |$LN92@FMD_WriteS|
  0036c	00000000	 DCD         |s_hNand|
  00370		 |$LN93@FMD_WriteS|
  00370	00000000	 DCD         |__security_cookie|
  00374		 |$M47436|

			 ENDP  ; |FMD_WriteSector|

	EXPORT	|FMD_GetBlockStatus|

  00000			 AREA	 |.pdata|, PDATA
|$T47458| DCD	|$LN13@FMD_GetBlo|
	DCD	0x40002102
; Function compile flags: /Ogspy

  00000			 AREA	 |.text|, CODE, ARM

  00000		 |FMD_GetBlockStatus| PROC

; 1431 : {

  00000		 |$LN13@FMD_GetBlo|
  00000	e92d4010	 stmdb       sp!, {r4, lr}
  00004	e24dd010	 sub         sp, sp, #0x10
  00008		 |$M47455|

; 1432 :     DWORD rc = 0;
; 1433 :     SECTOR_ADDR sector;
; 1434 :     SectorInfo sectorInfo[2];
; 1435 : 
; 1436 : 
; 1437 :     // Check if we know flash geometry
; 1438 :     if (s_hNand == NULL) goto cleanUp;

  00008	e59f3070	 ldr         r3, [pc, #0x70]
  0000c	e3a04000	 mov         r4, #0
  00010	e5933000	 ldr         r3, [r3]
  00014	e3530000	 cmp         r3, #0
  00018	0a000014	 beq         |$cleanUp$46460|

; 1439 : 
; 1440 :     // Calculate sector
; 1441 :     sector = blockId * NAND_GetGeometry(s_hNand)->sectorsPerBlock;

  0001c	e593e04c	 ldr         lr, [r3, #0x4C]

; 1442 : 
; 1443 :     if (!FMD_ReadSector(sector, NULL, sectorInfo, 2))

  00020	e3a03002	 mov         r3, #2
  00024	e28d2000	 add         r2, sp, #0
  00028	e000009e	 mul         r0, lr, r0
  0002c	e3a01000	 mov         r1, #0
  00030	eb000000	 bl          FMD_ReadSector
  00034	e3500000	 cmp         r0, #0

; 1444 :         {
; 1445 :         rc = BLOCK_STATUS_UNKNOWN;

  00038	03a04001	 moveq       r4, #1
  0003c	0a00000b	 beq         |$cleanUp$46460|

; 1446 :         goto cleanUp;
; 1447 :         }
; 1448 : 
; 1449 :     if ((sectorInfo[0].bBadBlock != 0xFF) || (sectorInfo[1].bBadBlock != 0xFF))

  00040	e5dd3005	 ldrb        r3, [sp, #5]
  00044	e35300ff	 cmp         r3, #0xFF
  00048	1a000002	 bne         |$LN3@FMD_GetBlo|
  0004c	e5dd300d	 ldrb        r3, [sp, #0xD]
  00050	e35300ff	 cmp         r3, #0xFF
  00054	0a000000	 beq         |$LN4@FMD_GetBlo|
  00058		 |$LN3@FMD_GetBlo|

; 1450 :         {
; 1451 :         rc |= BLOCK_STATUS_BAD;

  00058	e3a04002	 mov         r4, #2
  0005c		 |$LN4@FMD_GetBlo|

; 1452 :         }
; 1453 : 
; 1454 :     if ((sectorInfo[0].bOEMReserved & OEM_BLOCK_READONLY) == 0)

  0005c	e5dd3004	 ldrb        r3, [sp, #4]
  00060	e3130002	 tst         r3, #2

; 1455 :         {
; 1456 :         rc |= BLOCK_STATUS_READONLY;

  00064	03844004	 orreq       r4, r4, #4

; 1457 :         }
; 1458 : 
; 1459 :     if ((sectorInfo[0].bOEMReserved & OEM_BLOCK_RESERVED) == 0)

  00068	e3130001	 tst         r3, #1

; 1460 :         {
; 1461 :         rc |= BLOCK_STATUS_RESERVED;

  0006c	03844008	 orreq       r4, r4, #8
  00070		 |$cleanUp$46460|

; 1462 :         }
; 1463 : 
; 1464 : cleanUp:
; 1465 :     return rc;
; 1466 : }

  00070	e1a00004	 mov         r0, r4
  00074	e28dd010	 add         sp, sp, #0x10
  00078	e8bd4010	 ldmia       sp!, {r4, lr}
  0007c	e12fff1e	 bx          lr
  00080		 |$LN14@FMD_GetBlo|
  00080		 |$LN15@FMD_GetBlo|
  00080	00000000	 DCD         |s_hNand|
  00084		 |$M47456|

			 ENDP  ; |FMD_GetBlockStatus|

	EXPORT	|FMD_SetBlockStatus|

  00000			 AREA	 |.pdata|, PDATA
|$T47482| DCD	|$LN19@FMD_SetBlo|
	DCD	0x40003e02
; Function compile flags: /Ogspy

  00000			 AREA	 |.text|, CODE, ARM

  00000		 |FMD_SetBlockStatus| PROC

; 1477 : {

  00000		 |$LN19@FMD_SetBlo|
  00000	e92d41f0	 stmdb       sp!, {r4 - r8, lr}
  00004	e24dd008	 sub         sp, sp, #8
  00008		 |$M47479|
  00008	e1a04001	 mov         r4, r1
  0000c	e1a08000	 mov         r8, r0

; 1478 :     BOOL rc = FALSE;
; 1479 :     SECTOR_ADDR sector;
; 1480 :     SectorInfo sectorInfo;
; 1481 : 
; 1482 :     // Check if we know flash geometry
; 1483 :     if (s_hNand == NULL) goto cleanUp;

  00010	e59f30dc	 ldr         r3, [pc, #0xDC]
  00014	e3a05000	 mov         r5, #0
  00018	e5933000	 ldr         r3, [r3]
  0001c	e3530000	 cmp         r3, #0
  00020	0a00002f	 beq         |$cleanUp$46477|

; 1484 : 
; 1485 :     // Calculate sector
; 1486 :     sector = blockId * NAND_GetGeometry(s_hNand)->sectorsPerBlock;

  00024	e593704c	 ldr         r7, [r3, #0x4C]

; 1487 : 
; 1488 :     if ((status & BLOCK_STATUS_BAD) != 0)

  00028	e3140002	 tst         r4, #2
  0002c	0a00000f	 beq         |$LN5@FMD_SetBlo|

; 1489 :         {
; 1490 :         // Read the sector info
; 1491 :         if (!FMD_ReadSector(sector, NULL, &sectorInfo, 1)) goto cleanUp;

  00030	e0000897	 mul         r0, r7, r8
  00034	e3a03001	 mov         r3, #1
  00038	e28d2000	 add         r2, sp, #0
  0003c	e3a01000	 mov         r1, #0
  00040	eb000000	 bl          FMD_ReadSector
  00044	e3500000	 cmp         r0, #0
  00048	0a000025	 beq         |$cleanUp$46477|

; 1492 : 
; 1493 :         // Set the bad block marker
; 1494 :         sectorInfo.bBadBlock = 0;

  0004c	e3a03000	 mov         r3, #0

; 1495 : 
; 1496 :         // Complete the write (no erase, we changed 0xFF -> 0x00)
; 1497 :         if (!FMD_WriteSector(sector, NULL, &sectorInfo, 1)) goto cleanUp;

  00050	e0000897	 mul         r0, r7, r8
  00054	e5cd3005	 strb        r3, [sp, #5]
  00058	e3a03001	 mov         r3, #1
  0005c	e28d2000	 add         r2, sp, #0
  00060	e3a01000	 mov         r1, #0
  00064	eb000000	 bl          FMD_WriteSector
  00068	e3500000	 cmp         r0, #0
  0006c	0a00001c	 beq         |$cleanUp$46477|
  00070		 |$LN5@FMD_SetBlo|

; 1498 :         }
; 1499 : 
; 1500 : #ifdef BOOT_MODE
; 1501 :     if ( ((status & BLOCK_STATUS_READONLY) != 0) || ((status & BLOCK_STATUS_RESERVED) != 0) )

  00070	e2146004	 ands        r6, r4, #4
  00074	1a000001	 bne         |$LN3@FMD_SetBlo|
  00078	e3140008	 tst         r4, #8
  0007c	0a000017	 beq         |$LN1@FMD_SetBlo|
  00080		 |$LN3@FMD_SetBlo|

; 1502 :         {
; 1503 :         // Read the sector info
; 1504 :         if (!FMD_ReadSector(sector, NULL, &sectorInfo, 1)) goto cleanUp;

  00080	e0000897	 mul         r0, r7, r8
  00084	e3a03001	 mov         r3, #1
  00088	e28d2000	 add         r2, sp, #0
  0008c	e3a01000	 mov         r1, #0
  00090	eb000000	 bl          FMD_ReadSector
  00094	e3500000	 cmp         r0, #0
  00098	0a000011	 beq         |$cleanUp$46477|

; 1505 : 
; 1506 :         // Set the OEM field
; 1507 :         sectorInfo.bOEMReserved &= ((status & BLOCK_STATUS_READONLY) != 0) ? ~(OEM_BLOCK_READONLY) : 0xFF;

  0009c	e5dd3004	 ldrb        r3, [sp, #4]
  000a0	e3560000	 cmp         r6, #0
  000a4	13e02002	 mvnne       r2, #2
  000a8	03a020ff	 moveq       r2, #0xFF

; 1508 :         sectorInfo.bOEMReserved &= ((status & BLOCK_STATUS_RESERVED) != 0) ? ~(OEM_BLOCK_RESERVED) : 0xFF;

  000ac	e3140008	 tst         r4, #8
  000b0	e0032002	 and         r2, r3, r2
  000b4	13e03001	 mvnne       r3, #1
  000b8	03a030ff	 moveq       r3, #0xFF
  000bc	e0023003	 and         r3, r2, r3

; 1509 :         
; 1510 :         // Complete the write (no erase, changed bits from 1s to 0s)
; 1511 :         if (!FMD_WriteSector(sector, NULL, &sectorInfo, 1)) goto cleanUp;

  000c0	e0000897	 mul         r0, r7, r8
  000c4	e5cd3004	 strb        r3, [sp, #4]
  000c8	e3a03001	 mov         r3, #1
  000cc	e28d2000	 add         r2, sp, #0
  000d0	e3a01000	 mov         r1, #0
  000d4	eb000000	 bl          FMD_WriteSector
  000d8	e3500000	 cmp         r0, #0
  000dc	0a000000	 beq         |$cleanUp$46477|
  000e0		 |$LN1@FMD_SetBlo|

; 1512 :         }
; 1513 : #endif
; 1514 : 
; 1515 :     rc = TRUE;

  000e0	e3a05001	 mov         r5, #1
  000e4		 |$cleanUp$46477|

; 1516 : 
; 1517 : cleanUp:
; 1518 :     return rc;
; 1519 : }

  000e4	e1a00005	 mov         r0, r5
  000e8	e28dd008	 add         sp, sp, #8
  000ec	e8bd41f0	 ldmia       sp!, {r4 - r8, lr}
  000f0	e12fff1e	 bx          lr
  000f4		 |$LN20@FMD_SetBlo|
  000f4		 |$LN21@FMD_SetBlo|
  000f4	00000000	 DCD         |s_hNand|
  000f8		 |$M47480|

			 ENDP  ; |FMD_SetBlockStatus|

	EXPORT	|FMD_PowerUp|

  00000			 AREA	 |.pdata|, PDATA
|$T47530| DCD	|$LN26@FMD_PowerU|
	DCD	0x40001e01
; Function compile flags: /Ogspy

  00000			 AREA	 |.text|, CODE, ARM

  00000		 |FMD_PowerUp| PROC

; 1528 : {

  00000		 |$LN26@FMD_PowerU|
  00000	e92d4010	 stmdb       sp!, {r4, lr}
  00004		 |$M47527|

; 1529 :     // exit if FMD wasn't opened
; 1530 :     if (s_hNand == NULL) return;

  00004	e59f3068	 ldr         r3, [pc, #0x68]
  00008	e5934000	 ldr         r4, [r3]
  0000c	e3540000	 cmp         r4, #0
  00010	0a000015	 beq         |$LN20@FMD_PowerU|

; 1531 :     
; 1532 :     // Obtain hardware lock
; 1533 :     NAND_MutexEnter(s_hNand);
; 1534 : 
; 1535 :     //  Only enable during NAND read/write/erase operations
; 1536 :     NAND_Enable(s_hNand, TRUE);

  00014	e3a01001	 mov         r1, #1
  00018	e1a00004	 mov         r0, r4
  0001c	eb000000	 bl          NAND_Enable
  00020	e3a01070	 mov         r1, #0x70

; 1537 : 
; 1538 :     // Wait for NAND
; 1539 :     WaitForReadyStatus(s_hNand);   

  00024		 |$LL7@FMD_PowerU|
  00024	e594301c	 ldr         r3, [r4, #0x1C]
  00028	e1c310b0	 strh        r1, [r3]
  0002c	e5943024	 ldr         r3, [r4, #0x24]
  00030	e1d330b0	 ldrh        r3, [r3]
  00034	e3130040	 tst         r3, #0x40
  00038	0afffff9	 beq         |$LL7@FMD_PowerU|

; 1540 : 
; 1541 :     // Write the reset command
; 1542 :     NAND_SendCommand(s_hNand, NAND_CMD_RESET);

  0003c	e594301c	 ldr         r3, [r4, #0x1C]
  00040	e3a020ff	 mov         r2, #0xFF
  00044	e1c320b0	 strh        r2, [r3]

; 1543 : 
; 1544 :     // Wait for NAND
; 1545 :     WaitForReadyStatus(s_hNand);

  00048		 |$LL15@FMD_PowerU|
  00048	e594301c	 ldr         r3, [r4, #0x1C]
  0004c	e1c310b0	 strh        r1, [r3]
  00050	e5943024	 ldr         r3, [r4, #0x24]
  00054	e1d330b0	 ldrh        r3, [r3]
  00058	e3130040	 tst         r3, #0x40
  0005c	0afffff9	 beq         |$LL15@FMD_PowerU|

; 1546 : 
; 1547 :     //  Only enable during NAND read/write/erase operations
; 1548 :     NAND_Enable(s_hNand, FALSE);

  00060	e3a01000	 mov         r1, #0
  00064	e1a00004	 mov         r0, r4
  00068	eb000000	 bl          NAND_Enable

; 1549 : 
; 1550 :     // Release hardware lock
; 1551 :     NAND_MutexExit(s_hNand);

  0006c		 |$LN20@FMD_PowerU|

; 1552 : }

  0006c	e8bd4010	 ldmia       sp!, {r4, lr}
  00070	e12fff1e	 bx          lr
  00074		 |$LN27@FMD_PowerU|
  00074		 |$LN28@FMD_PowerU|
  00074	00000000	 DCD         |s_hNand|
  00078		 |$M47528|

			 ENDP  ; |FMD_PowerUp|

	EXPORT	|FMD_PowerDown|

  00000			 AREA	 |.pdata|, PDATA
|$T47578| DCD	|$LN26@FMD_PowerD|
	DCD	0x40001e01
; Function compile flags: /Ogspy

  00000			 AREA	 |.text|, CODE, ARM

  00000		 |FMD_PowerDown| PROC

; 1561 : {

  00000		 |$LN26@FMD_PowerD|
  00000	e92d4010	 stmdb       sp!, {r4, lr}
  00004		 |$M47575|

; 1562 :     // exit if FMD wasn't opened
; 1563 :     if (s_hNand == NULL) return;

  00004	e59f3068	 ldr         r3, [pc, #0x68]
  00008	e5934000	 ldr         r4, [r3]
  0000c	e3540000	 cmp         r4, #0
  00010	0a000015	 beq         |$LN20@FMD_PowerD|

; 1564 :     
; 1565 :     // Obtain hardware lock
; 1566 :     NAND_MutexEnter(s_hNand);
; 1567 : 
; 1568 :     //  Only enable during NAND read/write/erase operations
; 1569 :     NAND_Enable(s_hNand, TRUE);

  00014	e3a01001	 mov         r1, #1
  00018	e1a00004	 mov         r0, r4
  0001c	eb000000	 bl          NAND_Enable
  00020	e3a01070	 mov         r1, #0x70

; 1570 : 
; 1571 :     // Wait for NAND
; 1572 :     WaitForReadyStatus(s_hNand);   

  00024		 |$LL7@FMD_PowerD|
  00024	e594301c	 ldr         r3, [r4, #0x1C]
  00028	e1c310b0	 strh        r1, [r3]
  0002c	e5943024	 ldr         r3, [r4, #0x24]
  00030	e1d330b0	 ldrh        r3, [r3]
  00034	e3130040	 tst         r3, #0x40
  00038	0afffff9	 beq         |$LL7@FMD_PowerD|

; 1573 : 
; 1574 :     // Write the reset command
; 1575 :     NAND_SendCommand(s_hNand, NAND_CMD_RESET);

  0003c	e594301c	 ldr         r3, [r4, #0x1C]
  00040	e3a020ff	 mov         r2, #0xFF
  00044	e1c320b0	 strh        r2, [r3]

; 1576 : 
; 1577 :     // Wait for NAND
; 1578 :     WaitForReadyStatus(s_hNand);

  00048		 |$LL15@FMD_PowerD|
  00048	e594301c	 ldr         r3, [r4, #0x1C]
  0004c	e1c310b0	 strh        r1, [r3]
  00050	e5943024	 ldr         r3, [r4, #0x24]
  00054	e1d330b0	 ldrh        r3, [r3]
  00058	e3130040	 tst         r3, #0x40
  0005c	0afffff9	 beq         |$LL15@FMD_PowerD|

; 1579 : 
; 1580 :     //  Only enable during NAND read/write/erase operations
; 1581 :     NAND_Enable(s_hNand, FALSE);

  00060	e3a01000	 mov         r1, #0
  00064	e1a00004	 mov         r0, r4
  00068	eb000000	 bl          NAND_Enable

; 1582 : 
; 1583 :     // Release hardware lock
; 1584 :     NAND_MutexExit(s_hNand);

  0006c		 |$LN20@FMD_PowerD|

; 1585 : }

  0006c	e8bd4010	 ldmia       sp!, {r4, lr}
  00070	e12fff1e	 bx          lr
  00074		 |$LN27@FMD_PowerD|
  00074		 |$LN28@FMD_PowerD|
  00074	00000000	 DCD         |s_hNand|
  00078		 |$M47576|

			 ENDP  ; |FMD_PowerDown|

	EXPORT	|FMD_OEMIoControl|

  00000			 AREA	 |.pdata|, PDATA
|$T47589| DCD	|$LN5@FMD_OEMIoC|
	DCD	0x40000200
; Function compile flags: /Ogspy

  00000			 AREA	 |.text|, CODE, ARM

  00000		 |FMD_OEMIoControl| PROC

; 1600 : {

  00000		 |$LN5@FMD_OEMIoC|
  00000		 |$M47586|

; 1601 : 
; 1602 :     UNREFERENCED_PARAMETER(code);
; 1603 : 
; 1604 :     UNREFERENCED_PARAMETER(pInBuffer);
; 1605 :     UNREFERENCED_PARAMETER(inSize);
; 1606 :     UNREFERENCED_PARAMETER(pOutBuffer);
; 1607 :     UNREFERENCED_PARAMETER(outSize);
; 1608 :     UNREFERENCED_PARAMETER(pOutSize);
; 1609 :     
; 1610 :     return FALSE;    

  00000	e3a00000	 mov         r0, #0

; 1611 : }

  00004	e12fff1e	 bx          lr
  00008		 |$M47587|

			 ENDP  ; |FMD_OEMIoControl|

	EXPORT	|??_C@_1KI@MDFCMHMG@?$AAC?$AA?3?$AA?2?$AAW?$AAI?$AAN?$AAC?$AAE?$AA6?$AA0?$AA0?$AA?2?$AAP?$AAL?$AAA?$AAT?$AAF?$AAO?$AAR?$AAM?$AA?2?$AAC?$AAO?$AAM?$AAM?$AAO?$AAN?$AA?2?$AAS?$AAR?$AAC?$AA?2@| [ DATA ] ; `string'
	EXPORT	|??_C@_1CI@OHCJFJPM@?$AAE?$AAR?$AAR?$AAO?$AAR?$AA?3?$AA?5?$AA?$CF?$AAs?$AA?5?$AAl?$AAi?$AAn?$AAe?$AA?5?$AA?$CF?$AAd?$AA?3?$AA?5?$AA?$AA@| [ DATA ] ; `string'
	EXPORT	|??_C@_1HG@DCOIKHPB@?$AAF?$AAM?$AAD?$AA?5?$AAd?$AAr?$AAi?$AAv?$AAe?$AAr?$AA?5?$AAs?$AAu?$AAp?$AAp?$AAo?$AAr?$AAt?$AAs?$AA?5?$AAo?$AAn?$AAl?$AAy?$AA?5?$AA1?$AA6?$AAb?$AAi?$AAt?$AAs?$AA?5@| [ DATA ] ; `string'
	IMPORT	|BSPGetNandIrqWait|
	IMPORT	|NKDbgPrintfW|
	IMPORT	|BSPGetNandInfo|
	IMPORT	|g_ecctype|
	IMPORT	|OALPAtoVA|
	IMPORT	|SOCGetGPMCAddress|

  00004			 AREA	 |.bss|, NOINIT
|s_Device| %	0x68
|s_Device| %	0x68

  00000			 AREA	 |.pdata|, PDATA
|$T47621| DCD	|$LN22@NAND_Initi|
	DCD	0x40008101

  00000			 AREA	 |.rdata|, DATA, READONLY
|??_C@_1KI@MDFCMHMG@?$AAC?$AA?3?$AA?2?$AAW?$AAI?$AAN?$AAC?$AAE?$AA6?$AA0?$AA0?$AA?2?$AAP?$AAL?$AAA?$AAT?$AAF?$AAO?$AAR?$AAM?$AA?2?$AAC?$AAO?$AAM?$AAM?$AAO?$AAN?$AA?2?$AAS?$AAR?$AAC?$AA?2@| DCB "C"
	DCB	0x0, ":", 0x0, "\\", 0x0, "W", 0x0, "I", 0x0, "N", 0x0, "C"
	DCB	0x0, "E", 0x0, "6", 0x0, "0", 0x0, "0", 0x0, "\\", 0x0, "P"
	DCB	0x0, "L", 0x0, "A", 0x0, "T", 0x0, "F", 0x0, "O", 0x0, "R"
	DCB	0x0, "M", 0x0, "\\", 0x0, "C", 0x0, "O", 0x0, "M", 0x0, "M"
	DCB	0x0, "O", 0x0, "N", 0x0, "\\", 0x0, "S", 0x0, "R", 0x0, "C"
	DCB	0x0, "\\", 0x0, "S", 0x0, "O", 0x0, "C", 0x0, "\\", 0x0, "C"
	DCB	0x0, "O", 0x0, "M", 0x0, "M", 0x0, "O", 0x0, "N", 0x0, "_"
	DCB	0x0, "T", 0x0, "I", 0x0, "_", 0x0, "V", 0x0, "1", 0x0, "\\"
	DCB	0x0, "C", 0x0, "O", 0x0, "M", 0x0, "M", 0x0, "O", 0x0, "N"
	DCB	0x0, "_", 0x0, "T", 0x0, "I", 0x0, "\\", 0x0, "B", 0x0, "L"
	DCB	0x0, "O", 0x0, "C", 0x0, "K", 0x0, "\\", 0x0, "N", 0x0, "A"
	DCB	0x0, "N", 0x0, "D", 0x0, "\\", 0x0, "B", 0x0, "O", 0x0, "O"
	DCB	0x0, "T", 0x0, "\\", 0x0, ".", 0x0, ".", 0x0, "\\", 0x0, "f"
	DCB	0x0, "m", 0x0, "d", 0x0, ".", 0x0, "c", 0x0, 0x0, 0x0 ; `string'

  00000			 AREA	 |.rdata|, DATA, READONLY
|??_C@_1CI@OHCJFJPM@?$AAE?$AAR?$AAR?$AAO?$AAR?$AA?3?$AA?5?$AA?$CF?$AAs?$AA?5?$AAl?$AAi?$AAn?$AAe?$AA?5?$AA?$CF?$AAd?$AA?3?$AA?5?$AA?$AA@| DCB "E"
	DCB	0x0, "R", 0x0, "R", 0x0, "O", 0x0, "R", 0x0, ":", 0x0, " "
	DCB	0x0, "%", 0x0, "s", 0x0, " ", 0x0, "l", 0x0, "i", 0x0, "n"
	DCB	0x0, "e", 0x0, " ", 0x0, "%", 0x0, "d", 0x0, ":", 0x0, " "
	DCB	0x0, 0x0, 0x0				; `string'

  00000			 AREA	 |.rdata|, DATA, READONLY
|??_C@_1HG@DCOIKHPB@?$AAF?$AAM?$AAD?$AA?5?$AAd?$AAr?$AAi?$AAv?$AAe?$AAr?$AA?5?$AAs?$AAu?$AAp?$AAp?$AAo?$AAr?$AAt?$AAs?$AA?5?$AAo?$AAn?$AAl?$AAy?$AA?5?$AA1?$AA6?$AAb?$AAi?$AAt?$AAs?$AA?5@| DCB "F"
	DCB	0x0, "M", 0x0, "D", 0x0, " ", 0x0, "d", 0x0, "r", 0x0, "i"
	DCB	0x0, "v", 0x0, "e", 0x0, "r", 0x0, " ", 0x0, "s", 0x0, "u"
	DCB	0x0, "p", 0x0, "p", 0x0, "o", 0x0, "r", 0x0, "t", 0x0, "s"
	DCB	0x0, " ", 0x0, "o", 0x0, "n", 0x0, "l", 0x0, "y", 0x0, " "
	DCB	0x0, "1", 0x0, "6", 0x0, "b", 0x0, "i", 0x0, "t", 0x0, "s"
	DCB	0x0, " ", 0x0, "l", 0x0, "a", 0x0, "r", 0x0, "g", 0x0, "e"
	DCB	0x0, " ", 0x0, "p", 0x0, "a", 0x0, "g", 0x0, "e", 0x0, " "
	DCB	0x0, "(", 0x0, "2", 0x0, "K", 0x0, "B", 0x0, ")", 0x0, " "
	DCB	0x0, "d", 0x0, "e", 0x0, "v", 0x0, "i", 0x0, "c", 0x0, "e"
	DCB	0x0, "s", 0x0, 0xd, 0x0, 0xa, 0x0, 0x0, 0x0 ; `string'
; Function compile flags: /Ogspy

  00000			 AREA	 |.text|, CODE, ARM

  00000		 |NAND_Initialize| PROC

; 386  : {

  00000		 |$LN22@NAND_Initi|
  00000	e92d41f0	 stmdb       sp!, {r4 - r8, lr}
  00004		 |$M47618|
  00004	e1a04001	 mov         r4, r1

; 387  :     DWORD chipSelect = BSPGetNandCS();

  00008	eb000000	 bl          BSPGetNandCS

; 388  :     const NAND_INFO *  pBSPNandInfo;
; 389  :     HANDLE hDevice = NULL;
; 390  :     UINT ffPrefetchMode = 0;
; 391  :     UINT8 manufacturer, device;
; 392  :     NandDevice_t *pDevice = &s_Device;
; 393  : #ifndef BOOT_MODE    
; 394  :     DWORD dwKernelRet;
; 395  : #endif
; 396  : 
; 397  :     UNREFERENCED_PARAMETER(pRegOut);
; 398  :     UNREFERENCED_PARAMETER(szContext);
; 399  :     // initialize structure
; 400  :     memset(pDevice, 0, sizeof(NandDevice_t));

  0000c	e59f51ec	 ldr         r5, [pc, #0x1EC]
  00010	e1a06000	 mov         r6, r0
  00014	e3a02068	 mov         r2, #0x68
  00018	e1a00005	 mov         r0, r5
  0001c	e3a01000	 mov         r1, #0
  00020	e3a07000	 mov         r7, #0
  00024	eb000000	 bl          memset

; 401  : 
; 402  : #ifdef BOOT_MODE    
; 403  :     pDevice->pGpmcRegs = (OMAP_GPMC_REGS*)OALPAtoUA(SOCGetGPMCAddress(0));

  00028	e3a00000	 mov         r0, #0
  0002c	eb000000	 bl          SOCGetGPMCAddress
  00030	e3a01000	 mov         r1, #0
  00034	eb000000	 bl          OALPAtoVA
  00038	e585002c	 str         r0, [r5, #0x2C]

; 404  :     pDevice->pFifo = (NANDREG*)OALPAtoUA(pRegIn->MemBase.Reg[0]);

  0003c	e5940310	 ldr         r0, [r4, #0x310]
  00040	e3a01000	 mov         r1, #0
  00044	eb000000	 bl          OALPAtoVA

; 405  : 
; 406  :     /* Get ECC mode from BootCfg */
; 407  :     pDevice->ECCtype = g_ecctype;

  00048	e59f31ac	 ldr         r3, [pc, #0x1AC]
  0004c	e5850028	 str         r0, [r5, #0x28]
  00050	e5d33000	 ldrb        r3, [r3]
  00054	e5853060	 str         r3, [r5, #0x60]

; 408  :     if((pDevice->ECCtype > BCH8bit) || (pDevice->ECCtype < Hamming1bit))

  00058	e3530002	 cmp         r3, #2
  0005c	ca000001	 bgt         |$LN5@NAND_Initi|
  00060	e3530000	 cmp         r3, #0
  00064	5a000001	 bpl         |$LN6@NAND_Initi|
  00068		 |$LN5@NAND_Initi|

; 409  :     	{
; 410  :             pDevice->ECCtype = Hamming1bit;

  00068	e3a03000	 mov         r3, #0
  0006c	e5853060	 str         r3, [r5, #0x60]
  00070		 |$LN6@NAND_Initi|

; 411  :             //RETAILMSG(TRUE, (L"Incorrect ECC type setting\r\n"));             //e-test comment, Ray
; 412  :     	}
; 413  : #else    
; 414  :     if (szContext != NULL)
; 415  : 	{
; 416  :         if (InitializePointers(szContext, pDevice) == FALSE) goto cleanUp;
; 417  : 	}
; 418  :     else
; 419  : 	{
; 420  :         PHYSICAL_ADDRESS pa;
; 421  :         
; 422  :         // if there's not context string then use global macros
; 423  : 
; 424  :         pa.QuadPart = pRegIn->MemBase.Reg[0];
; 425  :         pDevice->memLen[0] = pRegIn->MemLen.Reg[0];
; 426  :         pDevice->pGpmcRegs = MmMapIoSpace(pa, pDevice->memLen[0], FALSE);
; 427  :         if (pDevice->pGpmcRegs == NULL) goto cleanUp;
; 428  : 
; 429  :         pa.QuadPart = pRegIn->MemBase.Reg[1];
; 430  :         pDevice->memLen[1] = pRegIn->MemLen.Reg[1];
; 431  :         pDevice->pFifo = MmMapIoSpace(pa, pDevice->memLen[1], FALSE);
; 432  :         if (pDevice->pGpmcRegs == NULL) goto cleanUp;
; 433  : 
; 434  : 	}
; 435  : 
; 436  : 	if (!KernelIoControl(IOCTL_HAL_GET_ECC_TYPE, NULL, 0, &pDevice->ECCtype, sizeof(DWORD), &dwKernelRet))
; 437  : 	{
; 438  : 		RETAILMSG( TRUE,(TEXT("Failed to read Ecc type\r\n")));
; 439  : 		pDevice->ECCtype = Hamming1bit;
; 440  : 	}   
; 441  : 	
; 442  : 	RETAILMSG(TRUE, (L"ECC TYPE is %s\r\n", (pDevice->ECCtype==Hamming1bit)? L"Hamming 1 bit" :
; 443  : 									(pDevice->ECCtype==BCH4bit)? L"BCH 4 bit" : L"BCH 8 bit"));
; 444  : 	
; 445  : #endif
; 446  : 
; 447  :     pDevice->pNandCmd = (NANDREG*)((UINT32)pDevice->pGpmcRegs + offset(OMAP_GPMC_REGS, GPMC_NAND_COMMAND_0) + (0x30 * chipSelect));

  00070	e595202c	 ldr         r2, [r5, #0x2C]
  00074	e0863086	 add         r3, r6, r6, lsl #1

; 448  :     pDevice->pNandAddress= (NANDREG*)((UINT32)pDevice->pGpmcRegs + offset(OMAP_GPMC_REGS, GPMC_NAND_ADDRESS_0) + (0x30 * chipSelect));
; 449  :     pDevice->pNandData= (NANDREG*)((UINT32)pDevice->pGpmcRegs + offset(OMAP_GPMC_REGS, GPMC_NAND_DATA_0) + (0x30 * chipSelect));
; 450  :     // Enable GPMC wait-to-nowait edge detection mechanism on NAND R/B pin
; 451  :     NAND_Enable(pDevice, TRUE);

  00078	e3a01001	 mov         r1, #1
  0007c	e0822203	 add         r2, r2, r3, lsl #4
  00080	e282307c	 add         r3, r2, #0x7C
  00084	e585301c	 str         r3, [r5, #0x1C]
  00088	e2823080	 add         r3, r2, #0x80
  0008c	e5853020	 str         r3, [r5, #0x20]
  00090	e2823084	 add         r3, r2, #0x84
  00094	e1a00005	 mov         r0, r5
  00098	e5853024	 str         r3, [r5, #0x24]
  0009c	eb000000	 bl          NAND_Enable

; 452  : 
; 453  :     // Write RESET command
; 454  :     // (a reset aborts any current READ, WRITE (PROGRAM) or ERASE operation)
; 455  :     NAND_SendCommand(pDevice, NAND_CMD_RESET);

  000a0	e595301c	 ldr         r3, [r5, #0x1C]
  000a4	e3a020ff	 mov         r2, #0xFF
  000a8	e1c320b0	 strh        r2, [r3]
  000ac	e3a02070	 mov         r2, #0x70
  000b0		 |$LL4@NAND_Initi|

; 456  : 
; 457  :     // Wait for NAND
; 458  :     while ((NAND_GetStatus(pDevice) & NAND_STATUS_READY) == 0);

  000b0	e595301c	 ldr         r3, [r5, #0x1C]
  000b4	e1c320b0	 strh        r2, [r3]
  000b8	e5953024	 ldr         r3, [r5, #0x24]
  000bc	e1d330b0	 ldrh        r3, [r3]
  000c0	e3130040	 tst         r3, #0x40
  000c4	0afffff9	 beq         |$LL4@NAND_Initi|

; 459  : 
; 460  :     // Send Read ID Command
; 461  :     NAND_SendCommand(pDevice, NAND_CMD_READID);

  000c8	e595301c	 ldr         r3, [r5, #0x1C]
  000cc	e3a02090	 mov         r2, #0x90

; 462  : 
; 463  :     // Send Address 00h
; 464  :     WRITE_NAND(pDevice->pNandAddress, 0);

  000d0	e3a08000	 mov         r8, #0
  000d4	e1c320b0	 strh        r2, [r3]
  000d8	e5953020	 ldr         r3, [r5, #0x20]
  000dc	e1c380b0	 strh        r8, [r3]

; 465  : 
; 466  :     // Read the manufacturer ID & device code
; 467  :     manufacturer = (UINT8)READ_NAND(pDevice->pNandData);

  000e0	e5952024	 ldr         r2, [r5, #0x24]
  000e4	e5d20000	 ldrb        r0, [r2]

; 468  :     device = (UINT8)READ_NAND(pDevice->pNandData);

  000e8	e5d21000	 ldrb        r1, [r2]

; 469  : 
; 470  :  
; 471  :     if ((pBSPNandInfo = BSPGetNandInfo(manufacturer,device))==NULL)

  000ec	eb000000	 bl          BSPGetNandInfo
  000f0	e1b04000	 movs        r4, r0
  000f4	0a000039	 beq         |$cleanUp$46082|

; 472  :     {                
; 473  :         goto cleanUp;
; 474  :     }
; 475  :     if ((pBSPNandInfo->sectorSize != 2048) && (pBSPNandInfo->wordData != 2))

  000f8	e594300c	 ldr         r3, [r4, #0xC]
  000fc	e3530b02	 cmp         r3, #2, 22
  00100	0a00000a	 beq         |$LN1@NAND_Initi|
  00104	e5943010	 ldr         r3, [r4, #0x10]
  00108	e3530002	 cmp         r3, #2
  0010c	0a000007	 beq         |$LN1@NAND_Initi|

; 476  :     {
; 477  :         ERRORMSG(1,(TEXT("FMD driver supports only 16bits large page (2KB) devices\r\n")));

  00110	e59f10e0	 ldr         r1, [pc, #0xE0]
  00114	e59f00d8	 ldr         r0, [pc, #0xD8]
  00118	e3a03c01	 mov         r3, #1, 24
  0011c	e38320dd	 orr         r2, r3, #0xDD
  00120	eb000000	 bl          NKDbgPrintfW
  00124	e59f00c4	 ldr         r0, [pc, #0xC4]
  00128	eb000000	 bl          NKDbgPrintfW

; 478  :         goto cleanUp;

  0012c	ea00002b	 b           |$cleanUp$46082|
  00130		 |$LN1@NAND_Initi|

; 479  :     }
; 480  :     pDevice->nandInfo = *pBSPNandInfo;

  00130	e2850044	 add         r0, r5, #0x44
  00134	e3a02014	 mov         r2, #0x14
  00138	e1a01004	 mov         r1, r4
  0013c	eb000000	 bl          memcpy

; 481  : 
; 482  :     pDevice->IrqWait = BSPGetNandIrqWait();

  00140	eb000000	 bl          BSPGetNandIrqWait

; 483  : 
; 484  :     /* ECCCfg: 16bit bus width, cs0, 4 - 512 bytes blocks per page */
; 485  :     pDevice->ECCCfg = (GPMC_ECC_CONFIG_16BIT | (chipSelect << 1) | (0x3<<4)); 

  00144	e3863058	 orr         r3, r6, #0x58
  00148	e1a01083	 mov         r1, r3, lsl #1
  0014c	e585005c	 str         r0, [r5, #0x5C]
  00150	e5851058	 str         r1, [r5, #0x58]

; 486  :     pDevice->ECCsize = (pDevice->ECCtype == Hamming1bit ) ? ECC_BYTES_HAMMING : 
; 487  : 		                      (pDevice->ECCtype == BCH4bit ) ? ECC_BYTES_BCH4 : ECC_BYTES_BCH8; 

  00154	e5952060	 ldr         r2, [r5, #0x60]
  00158	e3520000	 cmp         r2, #0
  0015c	03a0300c	 moveq       r3, #0xC
  00160	0a000002	 beq         |$LN10@NAND_Initi|
  00164	e3520001	 cmp         r2, #1
  00168	03a0301c	 moveq       r3, #0x1C
  0016c	13a03034	 movne       r3, #0x34
  00170		 |$LN10@NAND_Initi|
  00170	e5853064	 str         r3, [r5, #0x64]

; 488  : 							  
; 489  :     //  Enable and reset ECC engine (workaround for engine giving 0s first time)
; 490  :     ECC_Init(pDevice->pGpmcRegs, pDevice->ECCCfg, pDevice->ECCtype, NAND_ECC_READ);

  00174	e595002c	 ldr         r0, [r5, #0x2C]
  00178	e3a03000	 mov         r3, #0
  0017c	eb000000	 bl          ECC_Init

; 491  :     ECC_Reset(pDevice->pGpmcRegs);

  00180	e595002c	 ldr         r0, [r5, #0x2C]
  00184	eb000000	 bl          ECC_Reset

; 492  : 
; 493  :     //  Only enable during NAND read/write/erase operations
; 494  :     NAND_Enable(pDevice, FALSE);

  00188	e3a01000	 mov         r1, #0
  0018c	e1a00005	 mov         r0, r5
  00190	eb000000	 bl          NAND_Enable

; 495  : 
; 496  :     // configure the prefetch engine
; 497  :     pDevice->prefetchMode = kPrefetchOff;

  00194	e3a03000	 mov         r3, #0
  00198	e5853018	 str         r3, [r5, #0x18]

; 498  :     OUTREG32(&pDevice->pGpmcRegs->GPMC_PREFETCH_CONTROL, 0);

  0019c	e595302c	 ldr         r3, [r5, #0x2C]

; 499  : 
; 500  :     // set prefetch mask
; 501  :     ffPrefetchMode = GPMC_PREFETCH_CONFIG_SYNCHROMODE |
; 502  :                      GPMC_PREFETCH_CONFIG_PFPWENROUNDROBIN |
; 503  :                      GPMC_PREFETCH_CONFIG_ENABLEOPTIMIZEDACCESS |
; 504  :                      GPMC_PREFETCH_CONFIG_WAITPINSELECTOR(chipSelect) |
; 505  :                      GPMC_PREFETCH_CONFIG_FIFOTHRESHOLD(FIFO_THRESHOLD) |
; 506  :                      GPMC_PREFETCH_CONFIG_ENGINECSSELECTOR(chipSelect);

  001a0	e59f0044	 ldr         r0, [pc, #0x44]

; 507  : 
; 508  :     OUTREG32(&pDevice->pGpmcRegs->GPMC_PREFETCH_CONFIG1, ffPrefetchMode);

  001a4	e2062007	 and         r2, r6, #7
  001a8	e58381ec	 str         r8, [r3, #0x1EC]
  001ac	e2063003	 and         r3, r6, #3
  001b0	e595102c	 ldr         r1, [r5, #0x2C]
  001b4	e1833a02	 orr         r3, r3, r2, lsl #20
  001b8	e1803203	 orr         r3, r0, r3, lsl #4
  001bc	e58131e0	 str         r3, [r1, #0x1E0]

; 509  : 
; 510  :     // configure prefetch engine
; 511  :     OUTREG32(&pDevice->pGpmcRegs->GPMC_PREFETCH_CONFIG2, 
; 512  :         pBSPNandInfo->sectorSize
; 513  :         );

  001c0	e595202c	 ldr         r2, [r5, #0x2C]
  001c4	e594300c	 ldr         r3, [r4, #0xC]

; 514  :         
; 515  :     SETREG32(&pDevice->pGpmcRegs->GPMC_PREFETCH_CONFIG1, 
; 516  :         GPMC_PREFETCH_CONFIG_ENABLEENGINE
; 517  :         );
; 518  : 
; 519  :     // We are done
; 520  :     hDevice = pDevice;

  001c8	e1a07005	 mov         r7, r5
  001cc	e58231e4	 str         r3, [r2, #0x1E4]
  001d0	e595202c	 ldr         r2, [r5, #0x2C]
  001d4	e59231e0	 ldr         r3, [r2, #0x1E0]
  001d8	e3833080	 orr         r3, r3, #0x80
  001dc	e58231e0	 str         r3, [r2, #0x1E0]
  001e0		 |$cleanUp$46082|

; 521  : 
; 522  : cleanUp:
; 523  :     return hDevice;
; 524  : }

  001e0	e1a00007	 mov         r0, r7
  001e4	e8bd41f0	 ldmia       sp!, {r4 - r8, lr}
  001e8	e12fff1e	 bx          lr
  001ec		 |$LN23@NAND_Initi|
  001ec		 |$LN24@NAND_Initi|
  001ec	08804008	 DCD         0x8804008
  001f0		 |$LN25@NAND_Initi|
  001f0	00000000	 DCD         |??_C@_1HG@DCOIKHPB@?$AAF?$AAM?$AAD?$AA?5?$AAd?$AAr?$AAi?$AAv?$AAe?$AAr?$AA?5?$AAs?$AAu?$AAp?$AAp?$AAo?$AAr?$AAt?$AAs?$AA?5?$AAo?$AAn?$AAl?$AAy?$AA?5?$AA1?$AA6?$AAb?$AAi?$AAt?$AAs?$AA?5@|
  001f4		 |$LN26@NAND_Initi|
  001f4	00000000	 DCD         |??_C@_1CI@OHCJFJPM@?$AAE?$AAR?$AAR?$AAO?$AAR?$AA?3?$AA?5?$AA?$CF?$AAs?$AA?5?$AAl?$AAi?$AAn?$AAe?$AA?5?$AA?$CF?$AAd?$AA?3?$AA?5?$AA?$AA@|
  001f8		 |$LN27@NAND_Initi|
  001f8	00000000	 DCD         |??_C@_1KI@MDFCMHMG@?$AAC?$AA?3?$AA?2?$AAW?$AAI?$AAN?$AAC?$AAE?$AA6?$AA0?$AA0?$AA?2?$AAP?$AAL?$AAA?$AAT?$AAF?$AAO?$AAR?$AAM?$AA?2?$AAC?$AAO?$AAM?$AAM?$AAO?$AAN?$AA?2?$AAS?$AAR?$AAC?$AA?2@|
  001fc		 |$LN28@NAND_Initi|
  001fc	00000000	 DCD         |g_ecctype|
  00200		 |$LN29@NAND_Initi|
  00200	00000000	 DCD         |s_Device|
  00204		 |$M47619|

			 ENDP  ; |NAND_Initialize|


  00000			 AREA	 |.pdata|, PDATA
|$T47652| DCD	|$LN11@NAND_Erase|
	DCD	0x40001801
; Function compile flags: /Ogspy

  00000			 AREA	 |.text|, CODE, ARM

  00000		 |NAND_EraseBlock| PROC

; 723  : {    

  00000		 |$LN11@NAND_Erase|
  00000	e92d4010	 stmdb       sp!, {r4, lr}
  00004		 |$M47649|
  00004	e1a0e000	 mov         lr, r0

; 724  :     NandDevice_t *pDevice = (NandDevice_t*)hNand;
; 725  :     
; 726  :     // Calculate the sector number
; 727  :     NAND_SendCommand(hNand, NAND_CMD_ERASE_SETUP);    

  00008	e59e301c	 ldr         r3, [lr, #0x1C]
  0000c	e3a02060	 mov         r2, #0x60

; 728  :     BlockAccess(pDevice, blockId);
; 729  :     NAND_SendCommand(hNand, NAND_CMD_ERASE_CONFIRM);

  00010	e3a040d0	 mov         r4, #0xD0
  00014	e1c320b0	 strh        r2, [r3]
  00018	e59e304c	 ldr         r3, [lr, #0x4C]
  0001c	e59e2020	 ldr         r2, [lr, #0x20]

; 730  :     
; 731  :     return TRUE;

  00020	e3a00001	 mov         r0, #1
  00024	e0010193	 mul         r1, r3, r1
  00028	e20130ff	 and         r3, r1, #0xFF
  0002c	e1c230b0	 strh        r3, [r2]
  00030	e59e2020	 ldr         r2, [lr, #0x20]
  00034	e1a03801	 mov         r3, r1, lsl #16
  00038	e1a03c23	 mov         r3, r3, lsr #24
  0003c	e1c230b0	 strh        r3, [r2]
  00040	e59e2020	 ldr         r2, [lr, #0x20]
  00044	e1a03401	 mov         r3, r1, lsl #8
  00048	e1a03c23	 mov         r3, r3, lsr #24
  0004c	e1c230b0	 strh        r3, [r2]
  00050	e59e301c	 ldr         r3, [lr, #0x1C]
  00054	e1c340b0	 strh        r4, [r3]

; 732  : }

  00058	e8bd4010	 ldmia       sp!, {r4, lr}
  0005c	e12fff1e	 bx          lr
  00060		 |$M47650|

			 ENDP  ; |NAND_EraseBlock|

	EXPORT	|FMD_Init|

  00000			 AREA	 |.pdata|, PDATA
|$T47665| DCD	|$LN6@FMD_Init|
	DCD	0x40000b01
; Function compile flags: /Ogspy

  00000			 AREA	 |.text|, CODE, ARM

  00000		 |FMD_Init| PROC

; 906  : {

  00000		 |$LN6@FMD_Init|
  00000	e92d4010	 stmdb       sp!, {r4, lr}
  00004		 |$M47662|

; 907  :     HANDLE hRet = NULL;
; 908  : 
; 909  :     // Map NAND registers
; 910  :     s_hNand = NAND_Initialize(szContext, pRegIn, pRegOut);

  00004	e3a04000	 mov         r4, #0
  00008	eb000000	 bl          NAND_Initialize
  0000c	e59f3014	 ldr         r3, [pc, #0x14]
  00010	e3500000	 cmp         r0, #0

; 911  :     if (s_hNand == NULL)
; 912  :     {
; 913  :         goto cleanUp;
; 914  :     }
; 915  :         
; 916  :     // We are done
; 917  :     hRet = s_hNand;

  00014	11a04000	 movne       r4, r0
  00018	e5830000	 str         r0, [r3]
  0001c		 |$cleanUp$46295|

; 918  : 
; 919  : cleanUp:
; 920  :     return hRet;
; 921  : }

  0001c	e1a00004	 mov         r0, r4
  00020	e8bd4010	 ldmia       sp!, {r4, lr}
  00024	e12fff1e	 bx          lr
  00028		 |$LN7@FMD_Init|
  00028		 |$LN8@FMD_Init|
  00028	00000000	 DCD         |s_hNand|
  0002c		 |$M47663|

			 ENDP  ; |FMD_Init|

	EXPORT	|FMD_EraseBlock|

  00000			 AREA	 |.pdata|, PDATA
|$T47762| DCD	|$LN45@FMD_EraseB|
	DCD	0x40004001
; Function compile flags: /Ogspy

  00000			 AREA	 |.text|, CODE, ARM

  00000		 |FMD_EraseBlock| PROC

; 1373 : {

  00000		 |$LN45@FMD_EraseB|
  00000	e92d4070	 stmdb       sp!, {r4 - r6, lr}
  00004		 |$M47759|
  00004	e1a05000	 mov         r5, r0

; 1374 :     BOOL rc = FALSE;
; 1375 :     UINT32 oldIdleMode;
; 1376 : 
; 1377 :     // Check if we know flash geometry
; 1378 :     if (s_hNand == NULL) return rc;

  00008	e59f30ec	 ldr         r3, [pc, #0xEC]
  0000c	e5934000	 ldr         r4, [r3]
  00010	e3540000	 cmp         r4, #0
  00014	03a05000	 moveq       r5, #0
  00018	0a000034	 beq         |$LN4@FMD_EraseB|

; 1379 : 
; 1380 :     // Obtain hardware lock
; 1381 :     NAND_MutexEnter(s_hNand);
; 1382 : 
; 1383 :     //  Change idle mode to no-idle to ensure access to GPMC registers
; 1384 :     oldIdleMode = INREG32(&(NAND_GetGpmcRegs(s_hNand)->GPMC_SYSCONFIG));

  0001c	e594302c	 ldr         r3, [r4, #0x2C]

; 1385 :     OUTREG32(&(NAND_GetGpmcRegs(s_hNand)->GPMC_SYSCONFIG), SYSCONFIG_NOIDLE);

  00020	e3a02008	 mov         r2, #8

; 1386 : 
; 1387 :     //  Only enable during NAND read/write/erase operations    
; 1388 :     NAND_Enable(s_hNand, TRUE);

  00024	e3a01001	 mov         r1, #1
  00028	e5936010	 ldr         r6, [r3, #0x10]
  0002c	e1a00004	 mov         r0, r4
  00030	e5832010	 str         r2, [r3, #0x10]
  00034	eb000000	 bl          NAND_Enable

; 1389 :     NAND_LockBlocks(s_hNand, blockId, blockId, FALSE);

  00038	e594202c	 ldr         r2, [r4, #0x2C]

; 1390 :     
; 1391 :     // send block id to erase
; 1392 :     NAND_EraseBlock(s_hNand, blockId);

  0003c	e3a01060	 mov         r1, #0x60
  00040	e3a000d0	 mov         r0, #0xD0
  00044	e5923050	 ldr         r3, [r2, #0x50]
  00048		 |$cleanUp$47688|
  00048	e3a0e070	 mov         lr, #0x70
  0004c	e3833010	 orr         r3, r3, #0x10
  00050	e5823050	 str         r3, [r2, #0x50]
  00054	e594301c	 ldr         r3, [r4, #0x1C]
  00058	e1c310b0	 strh        r1, [r3]
  0005c	e594304c	 ldr         r3, [r4, #0x4C]
  00060	e5942020	 ldr         r2, [r4, #0x20]
  00064	e0010593	 mul         r1, r3, r5
  00068	e20130ff	 and         r3, r1, #0xFF
  0006c	e1c230b0	 strh        r3, [r2]
  00070	e5942020	 ldr         r2, [r4, #0x20]
  00074	e1a03801	 mov         r3, r1, lsl #16
  00078	e1a03c23	 mov         r3, r3, lsr #24
  0007c	e1c230b0	 strh        r3, [r2]
  00080	e5942020	 ldr         r2, [r4, #0x20]
  00084	e1a03401	 mov         r3, r1, lsl #8
  00088	e1a03c23	 mov         r3, r3, lsr #24
  0008c	e1c230b0	 strh        r3, [r2]
  00090	e594301c	 ldr         r3, [r4, #0x1C]
  00094	e1c300b0	 strh        r0, [r3]

; 1393 : 
; 1394 :     // wait for completion    
; 1395 :     WaitForReadyStatus(s_hNand);

  00098		 |$LL26@FMD_EraseB|
  00098	e594301c	 ldr         r3, [r4, #0x1C]
  0009c	e1c3e0b0	 strh        lr, [r3]
  000a0	e5943024	 ldr         r3, [r4, #0x24]
  000a4	e1d330b0	 ldrh        r3, [r3]
  000a8	e3130040	 tst         r3, #0x40
  000ac	0afffff9	 beq         |$LL26@FMD_EraseB|

; 1396 : 
; 1397 :     //Verify there wasn't any error by checking the NAND status register :
; 1398 :     if ((NAND_GetStatus(s_hNand) & NAND_STATUS_ERROR) != 0)

  000b0	e594301c	 ldr         r3, [r4, #0x1C]
  000b4	e1c3e0b0	 strh        lr, [r3]
  000b8	e5943024	 ldr         r3, [r4, #0x24]
  000bc	e1d330b0	 ldrh        r3, [r3]
  000c0	e3130001	 tst         r3, #1

; 1399 :         {
; 1400 :         rc = FALSE;

  000c4	13a05000	 movne       r5, #0

; 1401 :         goto cleanUp;
; 1402 :         }
; 1403 : 
; 1404 :     // Done
; 1405 :     rc = TRUE;

  000c8	03a05001	 moveq       r5, #1
  000cc		 |$cleanUp$46447|

; 1406 : 
; 1407 : cleanUp:
; 1408 :     //  Only enable during NAND read/write/erase operations    
; 1409 :     NAND_LockBlocks(s_hNand, blockId, blockId, TRUE);

  000cc	e594202c	 ldr         r2, [r4, #0x2C]

; 1410 :     NAND_Enable(s_hNand, FALSE);

  000d0	e3a01000	 mov         r1, #0
  000d4	e1a00004	 mov         r0, r4
  000d8	e5923050	 ldr         r3, [r2, #0x50]
  000dc		 |$cleanUp$47741|
  000dc	e3c33010	 bic         r3, r3, #0x10
  000e0	e5823050	 str         r3, [r2, #0x50]
  000e4	eb000000	 bl          NAND_Enable

; 1411 :    
; 1412 : 
; 1413 :     //  Change idle mode back
; 1414 :     OUTREG32(&(NAND_GetGpmcRegs(s_hNand)->GPMC_SYSCONFIG), oldIdleMode);

  000e8	e594302c	 ldr         r3, [r4, #0x2C]

; 1415 : 
; 1416 :     // Release hardware lock
; 1417 :     if (s_hNand != NULL) NAND_MutexExit(s_hNand);
; 1418 : 
; 1419 :     return rc;

  000ec	e5836010	 str         r6, [r3, #0x10]
  000f0		 |$LN4@FMD_EraseB|

; 1420 : }

  000f0	e1a00005	 mov         r0, r5
  000f4	e8bd4070	 ldmia       sp!, {r4 - r6, lr}
  000f8	e12fff1e	 bx          lr
  000fc		 |$LN46@FMD_EraseB|
  000fc		 |$LN47@FMD_EraseB|
  000fc	00000000	 DCD         |s_hNand|
  00100		 |$M47760|

			 ENDP  ; |FMD_EraseBlock|

	END
