; Listing generated by Microsoft (R) Optimizing Compiler Version 14.01.60511.01 

	TTL	C:\WINCE600\PLATFORM\Z2170P\SRC\BOOTLOADER\EBOOT\BQ27410.c
	CODE32

  00000			 AREA	 |.drectve|, DRECTVE
	DCB	"-defaultlib:LIBCMT "
	DCB	"-defaultlib:OLDNAMES "


  00000			 AREA	 |.data|, DATA
	 COMMON	|hI2C|, 0x4


  00000			 AREA	 |.rdata|, DATA, READONLY
|EdbgVendorIds| DCW 0x0
	DCW	0x0
	DCD	0x4033
	DCB	0x1
	DCB	"AD", 0x0
	DCW	0x1050
	DCW	0x940
	DCD	0x4005
	DCB	0x1
	DCB	"LS", 0x0
	DCW	0x1050
	DCW	0x940
	DCD	0x2078
	DCB	0x1
	DCB	"LS", 0x0
	DCW	0x10ec
	DCW	0x8029
	DCD	0xc0f0
	DCB	0x1
	DCB	"KS", 0x0
	DCW	0x10ec
	DCW	0x8129
	DCD	0x0
	DCB	0x4
	DCB	"RT", 0x0
	DCW	0x10ec
	DCW	0x8139
	DCD	0x900b
	DCB	0x4
	DCB	"RT", 0x0
	DCW	0x10ec
	DCW	0x8139
	DCD	0xd0c9
	DCB	0x4
	DCB	"RT", 0x0
	DCW	0x10ec
	DCW	0x8139
	DCD	0xe04c
	DCB	0x4
	DCB	"RT", 0x0
	DCW	0x1186
	DCW	0x1300
	DCD	0x50ba
	DCB	0x4
	DCB	"DL", 0x0
	DCW	0x100b
	DCW	0x20
	DCD	0xa0cc
	DCB	0x5
	DCB	"NG", 0x0
	DCW	0x10b7
	DCW	0x9050
	DCD	0x6008
	DCB	0x6
	DCB	"3C", 0x0
	DCW	0x10b7
	DCW	0x9200
	DCD	0x476
	DCB	0x6
	DCB	"3C", 0x0
	EXPORT	|BQ27410_WriteReg|
	EXPORT	|??_C@_1EG@CFPJMPBC@?$AAE?$AAR?$AAR?$AAO?$AAR?$AA?3?$AA?5?$AAB?$AAQ?$AA2?$AA7?$AA4?$AA1?$AA0?$AA_?$AAW?$AAr?$AAi?$AAt?$AAe?$AAR?$AAe?$AAg?$AA?5?$AAF?$AAa?$AAi?$AAl?$AAe?$AAd?$AA?$CB?$AA?$CB@| [ DATA ] ; `string'
	IMPORT	|NKDbgPrintfW|
	IMPORT	|I2CWrite|
; File c:\wince600\platform\z2170p\src\bootloader\eboot\bq27410.c

  00000			 AREA	 |.pdata|, PDATA
|$T45600| DCD	|$LN8@BQ27410_Wr|
	DCD	0x40001703

  00000			 AREA	 |.rdata|, DATA, READONLY
|??_C@_1EG@CFPJMPBC@?$AAE?$AAR?$AAR?$AAO?$AAR?$AA?3?$AA?5?$AAB?$AAQ?$AA2?$AA7?$AA4?$AA1?$AA0?$AA_?$AAW?$AAr?$AAi?$AAt?$AAe?$AAR?$AAe?$AAg?$AA?5?$AAF?$AAa?$AAi?$AAl?$AAe?$AAd?$AA?$CB?$AA?$CB@| DCB "E"
	DCB	0x0, "R", 0x0, "R", 0x0, "O", 0x0, "R", 0x0, ":", 0x0, " "
	DCB	0x0, "B", 0x0, "Q", 0x0, "2", 0x0, "7", 0x0, "4", 0x0, "1"
	DCB	0x0, "0", 0x0, "_", 0x0, "W", 0x0, "r", 0x0, "i", 0x0, "t"
	DCB	0x0, "e", 0x0, "R", 0x0, "e", 0x0, "g", 0x0, " ", 0x0, "F"
	DCB	0x0, "a", 0x0, "i", 0x0, "l", 0x0, "e", 0x0, "d", 0x0, "!"
	DCB	0x0, "!", 0x0, 0xd, 0x0, 0xa, 0x0, 0x0, 0x0 ; `string'
; Function compile flags: /Ogspy

  00000			 AREA	 |.text|, CODE, ARM

  00000		 |BQ27410_WriteReg| PROC

; 11   : {

  00000		 |$LN8@BQ27410_Wr|
  00000	e1a0c00d	 mov         r12, sp
  00004	e92d000f	 stmdb       sp!, {r0 - r3}
  00008	e92d5010	 stmdb       sp!, {r4, r12, lr}
  0000c		 |$M45597|
  0000c	e1a01000	 mov         r1, r0

; 12   :     BOOL rc = FALSE;
; 13   : 
; 14   :     if (hI2C)

  00010	e59f3040	 ldr         r3, [pc, #0x40]
  00014	e3a04000	 mov         r4, #0
  00018	e5930000	 ldr         r0, [r3]
  0001c	e3500000	 cmp         r0, #0
  00020	0a000008	 beq         |$LN1@BQ27410_Wr|

; 15   :     {
; 16   :         DWORD len = I2CWrite(hI2C, slaveaddress, &value, sizeof(UINT16));

  00024	e3a03002	 mov         r3, #2
  00028	e28d2010	 add         r2, sp, #0x10
  0002c	eb000000	 bl          I2CWrite

; 17   :         if ( len != sizeof(UINT16))

  00030	e3500002	 cmp         r0, #2
  00034	0a000002	 beq         |$LN2@BQ27410_Wr|

; 18   :         	RETAILMSG(1,(L"ERROR: BQ27410_WriteReg Failed!!\r\n"));

  00038	e59f0014	 ldr         r0, [pc, #0x14]
  0003c	eb000000	 bl          NKDbgPrintfW

; 19   : 		else

  00040	ea000000	 b           |$LN1@BQ27410_Wr|
  00044		 |$LN2@BQ27410_Wr|

; 20   : 			rc = TRUE;

  00044	e3a04001	 mov         r4, #1
  00048		 |$LN1@BQ27410_Wr|

; 21   : 	}
; 22   : 	
; 23   :     return rc;
; 24   : }

  00048	e1a00004	 mov         r0, r4
  0004c	e89d6010	 ldmia       sp, {r4, sp, lr}
  00050	e12fff1e	 bx          lr
  00054		 |$LN9@BQ27410_Wr|
  00054		 |$LN10@BQ27410_Wr|
  00054	00000000	 DCD         |??_C@_1EG@CFPJMPBC@?$AAE?$AAR?$AAR?$AAO?$AAR?$AA?3?$AA?5?$AAB?$AAQ?$AA2?$AA7?$AA4?$AA1?$AA0?$AA_?$AAW?$AAr?$AAi?$AAt?$AAe?$AAR?$AAe?$AAg?$AA?5?$AAF?$AAa?$AAi?$AAl?$AAe?$AAd?$AA?$CB?$AA?$CB@|
  00058		 |$LN11@BQ27410_Wr|
  00058	00000000	 DCD         |hI2C|
  0005c		 |$M45598|

			 ENDP  ; |BQ27410_WriteReg|

	EXPORT	|BQ27410_ReadReg|
	EXPORT	|??_C@_1EE@GODOHCMN@?$AAE?$AAR?$AAR?$AAO?$AAR?$AA?3?$AA?5?$AAB?$AAQ?$AA2?$AA7?$AA4?$AA1?$AA0?$AA_?$AAR?$AAe?$AAa?$AAd?$AAR?$AAe?$AAg?$AA?5?$AAF?$AAa?$AAi?$AAl?$AAe?$AAd?$AA?$CB?$AA?$CB?$AA?$AN@| [ DATA ] ; `string'
	IMPORT	|I2CRead|

  00000			 AREA	 |.pdata|, PDATA
|$T45615| DCD	|$LN8@BQ27410_Re|
	DCD	0x40001601

  00000			 AREA	 |.rdata|, DATA, READONLY
|??_C@_1EE@GODOHCMN@?$AAE?$AAR?$AAR?$AAO?$AAR?$AA?3?$AA?5?$AAB?$AAQ?$AA2?$AA7?$AA4?$AA1?$AA0?$AA_?$AAR?$AAe?$AAa?$AAd?$AAR?$AAe?$AAg?$AA?5?$AAF?$AAa?$AAi?$AAl?$AAe?$AAd?$AA?$CB?$AA?$CB?$AA?$AN@| DCB "E"
	DCB	0x0, "R", 0x0, "R", 0x0, "O", 0x0, "R", 0x0, ":", 0x0, " "
	DCB	0x0, "B", 0x0, "Q", 0x0, "2", 0x0, "7", 0x0, "4", 0x0, "1"
	DCB	0x0, "0", 0x0, "_", 0x0, "R", 0x0, "e", 0x0, "a", 0x0, "d"
	DCB	0x0, "R", 0x0, "e", 0x0, "g", 0x0, " ", 0x0, "F", 0x0, "a"
	DCB	0x0, "i", 0x0, "l", 0x0, "e", 0x0, "d", 0x0, "!", 0x0, "!"
	DCB	0x0, 0xd, 0x0, 0xa, 0x0, 0x0, 0x0	; `string'
; Function compile flags: /Ogspy

  00000			 AREA	 |.text|, CODE, ARM

  00000		 |BQ27410_ReadReg| PROC

; 27   : {

  00000		 |$LN8@BQ27410_Re|
  00000	e92d4010	 stmdb       sp!, {r4, lr}
  00004		 |$M45612|
  00004	e1a0e000	 mov         lr, r0

; 28   :     BOOL rc = FALSE;
; 29   :     
; 30   :     if (hI2C)

  00008	e59f3044	 ldr         r3, [pc, #0x44]
  0000c	e3a04000	 mov         r4, #0
  00010	e5930000	 ldr         r0, [r3]
  00014	e3500000	 cmp         r0, #0
  00018	0a000009	 beq         |$LN1@BQ27410_Re|

; 31   :     {
; 32   :         DWORD len = I2CRead(hI2C, slaveaddress, data, 2);

  0001c	e1a02001	 mov         r2, r1
  00020	e1a0100e	 mov         r1, lr
  00024	e3a03002	 mov         r3, #2
  00028	eb000000	 bl          I2CRead

; 33   :         if ( len != sizeof(UINT16))

  0002c	e3500002	 cmp         r0, #2
  00030	0a000002	 beq         |$LN2@BQ27410_Re|

; 34   :         	RETAILMSG(1,(L"ERROR: BQ27410_ReadReg Failed!!\r\n"));

  00034	e59f0014	 ldr         r0, [pc, #0x14]
  00038	eb000000	 bl          NKDbgPrintfW

; 35   : 		else

  0003c	ea000000	 b           |$LN1@BQ27410_Re|
  00040		 |$LN2@BQ27410_Re|

; 36   : 			rc = TRUE;

  00040	e3a04001	 mov         r4, #1
  00044		 |$LN1@BQ27410_Re|

; 37   : 	}
; 38   : 	
; 39   :     return rc;
; 40   : }

  00044	e1a00004	 mov         r0, r4
  00048	e8bd4010	 ldmia       sp!, {r4, lr}
  0004c	e12fff1e	 bx          lr
  00050		 |$LN9@BQ27410_Re|
  00050		 |$LN10@BQ27410_Re|
  00050	00000000	 DCD         |??_C@_1EE@GODOHCMN@?$AAE?$AAR?$AAR?$AAO?$AAR?$AA?3?$AA?5?$AAB?$AAQ?$AA2?$AA7?$AA4?$AA1?$AA0?$AA_?$AAR?$AAe?$AAa?$AAd?$AAR?$AAe?$AAg?$AA?5?$AAF?$AAa?$AAi?$AAl?$AAe?$AAd?$AA?$CB?$AA?$CB?$AA?$AN@|
  00054		 |$LN11@BQ27410_Re|
  00054	00000000	 DCD         |hI2C|
  00058		 |$M45613|

			 ENDP  ; |BQ27410_ReadReg|

	EXPORT	|bq27410_init|
	EXPORT	|??_C@_1DE@LIOAKDFB@?$AAb?$AAq?$AA2?$AA7?$AA4?$AA1?$AA0?$AA_?$AAi?$AAn?$AAi?$AAt?$AA?3?$AA?5?$AAv?$AAo?$AAl?$AAt?$AA?5?$AA?$DN?$AA?5?$AA?$CF?$AAd?$AA?$AN?$AA?6?$AA?$AA@| [ DATA ] ; `string'
	EXPORT	|??_C@_1GK@PNABBOMJ@?$AAE?$AAR?$AAR?$AAO?$AAR?$AA?3?$AA?5?$AAB?$AAa?$AAt?$AAt?$AAe?$AAr?$AAy?$AAP?$AAD?$AAD?$AAI?$AAn?$AAi?$AAt?$AAi?$AAa?$AAl?$AAi?$AAz?$AAe?$AA?3?$AA?5?$AAB?$AAa?$AAt@| [ DATA ] ; `string'
	EXPORT	|??_C@_1GE@CDBPANAJ@?$AAE?$AAR?$AAR?$AAO?$AAR?$AA?3?$AA?5?$AAb?$AAq?$AA2?$AA7?$AA4?$AA1?$AA0?$AA_?$AAi?$AAn?$AAi?$AAt?$AA?5?$AA?9?$AA?5?$AAI?$AA2?$AAC?$AAS?$AAe?$AAt?$AAS?$AAl?$AAa?$AAv@| [ DATA ] ; `string'
	EXPORT	|??_C@_1GI@DCKJGFNI@?$AAE?$AAR?$AAR?$AAO?$AAR?$AA?3?$AA?5?$AAb?$AAq?$AA2?$AA7?$AA4?$AA1?$AA0?$AA_?$AAi?$AAn?$AAi?$AAt?$AA?5?$AAF?$AAa?$AAi?$AAl?$AAe?$AAd?$AA?5?$AAo?$AAp?$AAe?$AAn?$AA?5@| [ DATA ] ; `string'
	IMPORT	|I2CClose|
	IMPORT	|I2CSetBaudIndex|
	IMPORT	|I2CSetSubAddressMode|
	IMPORT	|I2CSetSlaveAddress|
	IMPORT	|I2COpen|

  00000			 AREA	 |.pdata|, PDATA
|$T45628| DCD	|$LN9@bq27410_in|
	DCD	0x40003202

  00000			 AREA	 |.rdata|, DATA, READONLY
|??_C@_1DE@LIOAKDFB@?$AAb?$AAq?$AA2?$AA7?$AA4?$AA1?$AA0?$AA_?$AAi?$AAn?$AAi?$AAt?$AA?3?$AA?5?$AAv?$AAo?$AAl?$AAt?$AA?5?$AA?$DN?$AA?5?$AA?$CF?$AAd?$AA?$AN?$AA?6?$AA?$AA@| DCB "b"
	DCB	0x0, "q", 0x0, "2", 0x0, "7", 0x0, "4", 0x0, "1", 0x0, "0"
	DCB	0x0, "_", 0x0, "i", 0x0, "n", 0x0, "i", 0x0, "t", 0x0, ":"
	DCB	0x0, " ", 0x0, "v", 0x0, "o", 0x0, "l", 0x0, "t", 0x0, " "
	DCB	0x0, "=", 0x0, " ", 0x0, "%", 0x0, "d", 0x0, 0xd, 0x0, 0xa
	DCB	0x0, 0x0, 0x0				; `string'

  00000			 AREA	 |.rdata|, DATA, READONLY
|??_C@_1GK@PNABBOMJ@?$AAE?$AAR?$AAR?$AAO?$AAR?$AA?3?$AA?5?$AAB?$AAa?$AAt?$AAt?$AAe?$AAr?$AAy?$AAP?$AAD?$AAD?$AAI?$AAn?$AAi?$AAt?$AAi?$AAa?$AAl?$AAi?$AAz?$AAe?$AA?3?$AA?5?$AAB?$AAa?$AAt@| DCB "E"
	DCB	0x0, "R", 0x0, "R", 0x0, "O", 0x0, "R", 0x0, ":", 0x0, " "
	DCB	0x0, "B", 0x0, "a", 0x0, "t", 0x0, "t", 0x0, "e", 0x0, "r"
	DCB	0x0, "y", 0x0, "P", 0x0, "D", 0x0, "D", 0x0, "I", 0x0, "n"
	DCB	0x0, "i", 0x0, "t", 0x0, "i", 0x0, "a", 0x0, "l", 0x0, "i"
	DCB	0x0, "z", 0x0, "e", 0x0, ":", 0x0, " ", 0x0, "B", 0x0, "a"
	DCB	0x0, "t", 0x0, "t", 0x0, "e", 0x0, "r", 0x0, "y", 0x0, " "
	DCB	0x0, "i", 0x0, "n", 0x0, "s", 0x0, "e", 0x0, "r", 0x0, "t"
	DCB	0x0, " ", 0x0, "F", 0x0, "a", 0x0, "i", 0x0, "l", 0x0, "e"
	DCB	0x0, "d", 0x0, 0xd, 0x0, 0xa, 0x0, 0x0, 0x0 ; `string'

  00000			 AREA	 |.rdata|, DATA, READONLY
|??_C@_1GE@CDBPANAJ@?$AAE?$AAR?$AAR?$AAO?$AAR?$AA?3?$AA?5?$AAb?$AAq?$AA2?$AA7?$AA4?$AA1?$AA0?$AA_?$AAi?$AAn?$AAi?$AAt?$AA?5?$AA?9?$AA?5?$AAI?$AA2?$AAC?$AAS?$AAe?$AAt?$AAS?$AAl?$AAa?$AAv@| DCB "E"
	DCB	0x0, "R", 0x0, "R", 0x0, "O", 0x0, "R", 0x0, ":", 0x0, " "
	DCB	0x0, "b", 0x0, "q", 0x0, "2", 0x0, "7", 0x0, "4", 0x0, "1"
	DCB	0x0, "0", 0x0, "_", 0x0, "i", 0x0, "n", 0x0, "i", 0x0, "t"
	DCB	0x0, " ", 0x0, "-", 0x0, " ", 0x0, "I", 0x0, "2", 0x0, "C"
	DCB	0x0, "S", 0x0, "e", 0x0, "t", 0x0, "S", 0x0, "l", 0x0, "a"
	DCB	0x0, "v", 0x0, "e", 0x0, "A", 0x0, "d", 0x0, "d", 0x0, "r"
	DCB	0x0, "e", 0x0, "s", 0x0, "s", 0x0, " ", 0x0, "F", 0x0, "a"
	DCB	0x0, "i", 0x0, "l", 0x0, "e", 0x0, "d", 0x0, 0xd, 0x0, 0xa
	DCB	0x0, 0x0, 0x0				; `string'

  00000			 AREA	 |.rdata|, DATA, READONLY
|??_C@_1GI@DCKJGFNI@?$AAE?$AAR?$AAR?$AAO?$AAR?$AA?3?$AA?5?$AAb?$AAq?$AA2?$AA7?$AA4?$AA1?$AA0?$AA_?$AAi?$AAn?$AAi?$AAt?$AA?5?$AAF?$AAa?$AAi?$AAl?$AAe?$AAd?$AA?5?$AAo?$AAp?$AAe?$AAn?$AA?5@| DCB "E"
	DCB	0x0, "R", 0x0, "R", 0x0, "O", 0x0, "R", 0x0, ":", 0x0, " "
	DCB	0x0, "b", 0x0, "q", 0x0, "2", 0x0, "7", 0x0, "4", 0x0, "1"
	DCB	0x0, "0", 0x0, "_", 0x0, "i", 0x0, "n", 0x0, "i", 0x0, "t"
	DCB	0x0, " ", 0x0, "F", 0x0, "a", 0x0, "i", 0x0, "l", 0x0, "e"
	DCB	0x0, "d", 0x0, " ", 0x0, "o", 0x0, "p", 0x0, "e", 0x0, "n"
	DCB	0x0, " ", 0x0, "I", 0x0, "2", 0x0, "C", 0x0, " ", 0x0, "d"
	DCB	0x0, "e", 0x0, "v", 0x0, "i", 0x0, "c", 0x0, "e", 0x0, " "
	DCB	0x0, "d", 0x0, "r", 0x0, "i", 0x0, "v", 0x0, "e", 0x0, "r"
	DCB	0x0, 0xd, 0x0, 0xa, 0x0, 0x0, 0x0	; `string'
; Function compile flags: /Ogspy

  00000			 AREA	 |.text|, CODE, ARM

  00000		 |bq27410_init| PROC

; 43   : {

  00000		 |$LN9@bq27410_in|
  00000	e92d4030	 stmdb       sp!, {r4, r5, lr}
  00004	e24dd004	 sub         sp, sp, #4
  00008		 |$M45625|

; 44   : 	BOOL rc = FALSE;
; 45   : 	USHORT volt = 0;

  00008	e3a03000	 mov         r3, #0

; 46   : 	
; 47   : 	if((hI2C = I2COpen(OMAP_DEVICE_I2C3)) == NULL) 

  0000c	e3a0000e	 mov         r0, #0xE
  00010	e1cd30b0	 strh        r3, [sp]
  00014	e3a04000	 mov         r4, #0
  00018	eb000000	 bl          I2COpen
  0001c	e59f50a0	 ldr         r5, [pc, #0xA0]
  00020	e3500000	 cmp         r0, #0
  00024	e5850000	 str         r0, [r5]
  00028	1a000002	 bne         |$LN4@bq27410_in|

; 48   : 	{
; 49   :         RETAILMSG(1,(L"ERROR: bq27410_init Failed open I2C device driver\r\n"));

  0002c	e59f008c	 ldr         r0, [pc, #0x8C]
  00030	eb000000	 bl          NKDbgPrintfW

; 50   :         goto cleanUp;

  00034	ea00001a	 b           |$cleanUp$45560|
  00038		 |$LN4@bq27410_in|

; 51   : 	}
; 52   : 	
; 53   : 	if( I2CSetSlaveAddress(hI2C,  BQ27410_SLAVE_ADDRESS) == FALSE )

  00038	e3a01055	 mov         r1, #0x55
  0003c	eb000000	 bl          I2CSetSlaveAddress
  00040	e3500000	 cmp         r0, #0

; 54   : 		RETAILMSG(1,(L"ERROR: bq27410_init - I2CSetSlaveAddress Failed\r\n"));

  00044	059f0070	 ldreq       r0, [pc, #0x70]
  00048	0b000000	 bleq        NKDbgPrintfW

; 55   : 	
; 56   : 	I2CSetSubAddressMode(hI2C, I2C_SUBADDRESS_MODE_8);

  0004c	e5950000	 ldr         r0, [r5]
  00050	e3a01001	 mov         r1, #1
  00054	eb000000	 bl          I2CSetSubAddressMode

; 57   : 	I2CSetBaudIndex(hI2C, FULLSPEED_MODE);

  00058	e5950000	 ldr         r0, [r5]
  0005c	e3a01001	 mov         r1, #1
  00060	eb000000	 bl          I2CSetBaudIndex

; 58   : 	
; 59   : 	if( BQ27410_WriteReg(bq27410CMD_CNTL_LSB,  0x0C) == FALSE ) // send battery insert

  00064	e3a0100c	 mov         r1, #0xC
  00068	e3a00000	 mov         r0, #0
  0006c	eb000000	 bl          BQ27410_WriteReg
  00070	e3500000	 cmp         r0, #0

; 60   : 		RETAILMSG(1,(L"ERROR: BatteryPDDInitialize: Battery insert Failed\r\n"));

  00074	059f003c	 ldreq       r0, [pc, #0x3C]
  00078	0b000000	 bleq        NKDbgPrintfW

; 61   : 	
; 62   : 	if( BQ27410_ReadReg(bq27410CMD_VOLT_LSB, &volt) )

  0007c	e28d1000	 add         r1, sp, #0
  00080	e3a00004	 mov         r0, #4
  00084	eb000000	 bl          BQ27410_ReadReg
  00088	e3500000	 cmp         r0, #0

; 63   : 		RETAILMSG(1,(L"bq27410_init: volt = %d\r\n", volt));

  0008c	11dd10b0	 ldrneh      r1, [sp]
  00090	159f001c	 ldrne       r0, [pc, #0x1C]
  00094	1b000000	 blne        NKDbgPrintfW

; 64   : 	
; 65   : 	I2CClose(hI2C);

  00098	e5950000	 ldr         r0, [r5]
  0009c	eb000000	 bl          I2CClose

; 66   : 	rc = TRUE;

  000a0	e3a04001	 mov         r4, #1
  000a4		 |$cleanUp$45560|

; 67   : cleanUp:
; 68   : 
; 69   : 	return rc;
; 70   : }

  000a4	e1a00004	 mov         r0, r4
  000a8	e28dd004	 add         sp, sp, #4
  000ac	e8bd4030	 ldmia       sp!, {r4, r5, lr}
  000b0	e12fff1e	 bx          lr
  000b4		 |$LN10@bq27410_in|
  000b4		 |$LN11@bq27410_in|
  000b4	00000000	 DCD         |??_C@_1DE@LIOAKDFB@?$AAb?$AAq?$AA2?$AA7?$AA4?$AA1?$AA0?$AA_?$AAi?$AAn?$AAi?$AAt?$AA?3?$AA?5?$AAv?$AAo?$AAl?$AAt?$AA?5?$AA?$DN?$AA?5?$AA?$CF?$AAd?$AA?$AN?$AA?6?$AA?$AA@|
  000b8		 |$LN12@bq27410_in|
  000b8	00000000	 DCD         |??_C@_1GK@PNABBOMJ@?$AAE?$AAR?$AAR?$AAO?$AAR?$AA?3?$AA?5?$AAB?$AAa?$AAt?$AAt?$AAe?$AAr?$AAy?$AAP?$AAD?$AAD?$AAI?$AAn?$AAi?$AAt?$AAi?$AAa?$AAl?$AAi?$AAz?$AAe?$AA?3?$AA?5?$AAB?$AAa?$AAt@|
  000bc		 |$LN13@bq27410_in|
  000bc	00000000	 DCD         |??_C@_1GE@CDBPANAJ@?$AAE?$AAR?$AAR?$AAO?$AAR?$AA?3?$AA?5?$AAb?$AAq?$AA2?$AA7?$AA4?$AA1?$AA0?$AA_?$AAi?$AAn?$AAi?$AAt?$AA?5?$AA?9?$AA?5?$AAI?$AA2?$AAC?$AAS?$AAe?$AAt?$AAS?$AAl?$AAa?$AAv@|
  000c0		 |$LN14@bq27410_in|
  000c0	00000000	 DCD         |??_C@_1GI@DCKJGFNI@?$AAE?$AAR?$AAR?$AAO?$AAR?$AA?3?$AA?5?$AAb?$AAq?$AA2?$AA7?$AA4?$AA1?$AA0?$AA_?$AAi?$AAn?$AAi?$AAt?$AA?5?$AAF?$AAa?$AAi?$AAl?$AAe?$AAd?$AA?5?$AAo?$AAp?$AAe?$AAn?$AA?5@|
  000c4		 |$LN15@bq27410_in|
  000c4	00000000	 DCD         |hI2C|
  000c8		 |$M45626|

			 ENDP  ; |bq27410_init|

	END
