; Listing generated by Microsoft (R) Optimizing Compiler Version 14.01.60511.01 

	TTL	C:\WINCE600\PLATFORM\Z2170P\SRC\BOOTLOADER\EBOOT\main.c
	CODE32

  00000			 AREA	 |.drectve|, DRECTVE
	DCB	"-defaultlib:LIBCMT "
	DCB	"-defaultlib:OLDNAMES "

	EXPORT	|??_C@_1BK@GNCICGCB@?$AAN?$AAK?$AA?5?$AAf?$AAr?$AAo?$AAm?$AA?5?$AAN?$AAA?$AAN?$AAD?$AA?$AA@| [ DATA ] ; `string'
	EXPORT	|??_C@_1CK@GNCLKLEF@?$AAN?$AAK?$AA?5?$AAf?$AAr?$AAo?$AAm?$AA?5?$AAS?$AAD?$AAC?$AAa?$AAr?$AAd?$AA?5?$AAF?$AAI?$AAL?$AAE?$AA?5?$AA?$AA@| [ DATA ] ; `string'
	EXPORT	|??_C@_1BK@NKDLNHPK@?$AAU?$AAS?$AAB?$AAF?$AAn?$AA?5?$AAR?$AAN?$AAD?$AAI?$AAS?$AA?5?$AA?$AA@| [ DATA ] ; `string'
	EXPORT	|??_C@_1BI@OOCKPHGK@?$AAL?$AAA?$AAN?$AA9?$AA1?$AA1?$AA5?$AA?5?$AAM?$AAA?$AAC?$AA?$AA@| [ DATA ] ; `string'
	EXPORT	|g_kitlEthLan911x| [ DATA ]
	EXPORT	|g_kitlUsbRndis| [ DATA ]
	EXPORT	|g_kitlDevices| [ DATA ]
	EXPORT	|g_bootDevices| [ DATA ]
	EXPORT	|DefaultMacAddress| [ DATA ]
	EXPORT	|dwEbootECCtype| [ DATA ]
	EXPORT	|g_CPUFamily| [ DATA ]
	IMPORT	|RndisMulticastList|
	IMPORT	|RndisCurrentPacketFilter|
	IMPORT	|RndisDisableInts|
	IMPORT	|RndisEnableInts|
	IMPORT	|RndisEDbgGetFrame|
	IMPORT	|RndisEDbgSendFrame|
	IMPORT	|HostMiniInit|
	IMPORT	|LAN911XMulticastList|
	IMPORT	|LAN911XCurrentPacketFilter|
	IMPORT	|LAN911XDisableInts|
	IMPORT	|LAN911XEnableInts|
	IMPORT	|LAN911XGetFrame|
	IMPORT	|LAN911XSendFrame|
	IMPORT	|LAN911XInit|

  00000			 AREA	 |.data|, DATA
	 COMMON	|g_bootCfg|, 0x8c

	 COMMON	|g_ecctype|, 0x1

	 COMMON	|g_eboot|, 0x148

	 COMMON	|gDevice_prefix|, 0x4


  00000			 AREA	 |.bss|, NOINIT
|g_CPUFamily| %	0x4

  00000			 AREA	 |.rdata|, DATA, READONLY
|??_C@_1BK@GNCICGCB@?$AAN?$AAK?$AA?5?$AAf?$AAr?$AAo?$AAm?$AA?5?$AAN?$AAA?$AAN?$AAD?$AA?$AA@| DCB "N"
	DCB	0x0, "K", 0x0, " ", 0x0, "f", 0x0, "r", 0x0, "o", 0x0, "m"
	DCB	0x0, " ", 0x0, "N", 0x0, "A", 0x0, "N", 0x0, "D", 0x0, 0x0
	DCB	0x0					; `string'

  00000			 AREA	 |.rdata|, DATA, READONLY
|??_C@_1CK@GNCLKLEF@?$AAN?$AAK?$AA?5?$AAf?$AAr?$AAo?$AAm?$AA?5?$AAS?$AAD?$AAC?$AAa?$AAr?$AAd?$AA?5?$AAF?$AAI?$AAL?$AAE?$AA?5?$AA?$AA@| DCB "N"
	DCB	0x0, "K", 0x0, " ", 0x0, "f", 0x0, "r", 0x0, "o", 0x0, "m"
	DCB	0x0, " ", 0x0, "S", 0x0, "D", 0x0, "C", 0x0, "a", 0x0, "r"
	DCB	0x0, "d", 0x0, " ", 0x0, "F", 0x0, "I", 0x0, "L", 0x0, "E"
	DCB	0x0, " ", 0x0, 0x0, 0x0			; `string'

  00000			 AREA	 |.rdata|, DATA, READONLY
|??_C@_1BK@NKDLNHPK@?$AAU?$AAS?$AAB?$AAF?$AAn?$AA?5?$AAR?$AAN?$AAD?$AAI?$AAS?$AA?5?$AA?$AA@| DCB "U"
	DCB	0x0, "S", 0x0, "B", 0x0, "F", 0x0, "n", 0x0, " ", 0x0, "R"
	DCB	0x0, "N", 0x0, "D", 0x0, "I", 0x0, "S", 0x0, " ", 0x0, 0x0
	DCB	0x0					; `string'

  00000			 AREA	 |.rdata|, DATA, READONLY
|??_C@_1BI@OOCKPHGK@?$AAL?$AAA?$AAN?$AA9?$AA1?$AA1?$AA5?$AA?5?$AAM?$AAA?$AAC?$AA?$AA@| DCB "L"
	DCB	0x0, "A", 0x0, "N", 0x0, "9", 0x0, "1", 0x0, "1", 0x0, "5"
	DCB	0x0, " ", 0x0, "M", 0x0, "A", 0x0, "C", 0x0, 0x0, 0x0 ; `string'

  00000			 AREA	 |.data|, DATA
|g_kitlEthLan911x| DCD |LAN911XInit|
	DCD	0x0
	DCD	0x0
	DCD	|LAN911XSendFrame|
	DCD	|LAN911XGetFrame|
	DCD	|LAN911XEnableInts|
	DCD	|LAN911XDisableInts|
	DCD	0x0
	DCD	0x0
	DCD	|LAN911XCurrentPacketFilter|
	DCD	|LAN911XMulticastList|
|g_kitlUsbRndis| DCD |HostMiniInit|
	DCD	0x0
	DCD	0x0
	DCD	|RndisEDbgSendFrame|
	DCD	|RndisEDbgGetFrame|
	DCD	|RndisEnableInts|
	DCD	|RndisDisableInts|
	DCD	0x0
	DCD	0x0
	DCD	|RndisCurrentPacketFilter|
	DCD	|RndisMulticastList|
|g_kitlDevices| DCD |??_C@_1BI@OOCKPHGK@?$AAL?$AAA?$AAN?$AA9?$AA1?$AA1?$AA5?$AA?5?$AAM?$AAA?$AAC?$AA?$AA@|
	DCD	0x0
	DCD	0x15000000
	DCD	0x0
	DCD	0x2
	DCD	|g_kitlEthLan911x|
	DCD	|??_C@_1BK@NKDLNHPK@?$AAU?$AAS?$AAB?$AAF?$AAn?$AA?5?$AAR?$AAN?$AAD?$AAI?$AAS?$AA?5?$AA?$AA@|
	DCD	0x0
	DCD	0x480ab000
	DCD	0x0
	DCD	0x2
	DCD	|g_kitlUsbRndis|
	DCD	0x0
	DCD	0x0
	DCD	0x0
	DCD	0x0
	DCD	0x0
	DCD	0x0
|g_bootDevices| DCD |??_C@_1CK@GNCLKLEF@?$AAN?$AAK?$AA?5?$AAf?$AAr?$AAo?$AAm?$AA?5?$AAS?$AAD?$AAC?$AAa?$AAr?$AAd?$AA?5?$AAF?$AAI?$AAL?$AAE?$AA?5?$AA?$AA@|
	DCD	0x0
	DCD	0x4809c000
	DCD	0x0
	DCD	0x4
	DCD	0x0
	DCD	|??_C@_1BK@GNCICGCB@?$AAN?$AAK?$AA?5?$AAf?$AAr?$AAo?$AAm?$AA?5?$AAN?$AAA?$AAN?$AAD?$AA?$AA@|
	DCD	0x0
	DCD	0x8000020
	DCD	0x0
	DCD	0x3
	DCD	0x0
	DCD	0x0
	DCD	0x0
	DCD	0x0
	DCD	0x0
	DCD	0x0
	DCD	0x0
|DefaultMacAddress| DCW 0x2020
	DCW	0x3040
	DCW	0x5060

  00000			 AREA	 |.rdata|, DATA, READONLY
|EdbgVendorIds| DCW 0x0
	DCW	0x0
	DCD	0x4033
	DCB	0x1
	DCB	"AD", 0x0
	DCW	0x1050
	DCW	0x940
	DCD	0x4005
	DCB	0x1
	DCB	"LS", 0x0
	DCW	0x1050
	DCW	0x940
	DCD	0x2078
	DCB	0x1
	DCB	"LS", 0x0
	DCW	0x10ec
	DCW	0x8029
	DCD	0xc0f0
	DCB	0x1
	DCB	"KS", 0x0
	DCW	0x10ec
	DCW	0x8129
	DCD	0x0
	DCB	0x4
	DCB	"RT", 0x0
	DCW	0x10ec
	DCW	0x8139
	DCD	0x900b
	DCB	0x4
	DCB	"RT", 0x0
	DCW	0x10ec
	DCW	0x8139
	DCD	0xd0c9
	DCB	0x4
	DCB	"RT", 0x0
	DCW	0x10ec
	DCW	0x8139
	DCD	0xe04c
	DCB	0x4
	DCB	"RT", 0x0
	DCW	0x1186
	DCW	0x1300
	DCD	0x50ba
	DCB	0x4
	DCB	"DL", 0x0
	DCW	0x100b
	DCW	0x20
	DCD	0xa0cc
	DCB	0x5
	DCB	"NG", 0x0
	DCW	0x10b7
	DCW	0x9050
	DCD	0x6008
	DCB	0x6
	DCB	"3C", 0x0
	DCW	0x10b7
	DCW	0x9200
	DCD	0x476
	DCB	0x6
	DCB	"3C", 0x0
|dwEbootECCtype| DCD 0xffffffff
	%	4
|?ebootPinMux_37XX@?1??OEMPlatformInit@@9@9| DCW 0x52	; `OEMPlatformInit'::`2'::ebootPinMux_37XX
	%	2
	DCD	0x0
	DCW	0x53
	%	2
	DCD	0x0
	DCW	0x54
	%	2
	DCD	0x0
	DCW	0x55
	%	2
	DCD	0x0
	DCW	0x5c
	%	2
	DCD	0x0
	DCW	0x5d
	%	2
	DCD	0x0
	DCW	0x5e
	%	2
	DCD	0x0
	DCW	0x5f
	%	2
	DCD	0x0
	DCW	0x60
	%	2
	DCD	0x0
	DCW	0x61
	%	2
	DCD	0x0
	DCW	0x62
	%	2
	DCD	0x0
	DCW	0x63
	%	2
	DCD	0x0
	DCW	0x64
	%	2
	DCD	0x0
	DCW	0x65
	%	2
	DCD	0x0
	DCW	0x66
	%	2
	DCD	0x0
	DCW	0x67
	%	2
	DCD	0x0
	DCW	0x68
	%	2
	DCD	0x18
	DCW	0x69
	%	2
	DCD	0x18
	DCW	0x6a
	%	2
	DCD	0x18
	DCW	0x6b
	%	2
	DCD	0x18
	DCW	0x6c
	%	2
	DCD	0x18
	DCW	0x6d
	%	2
	DCD	0x18
	DCW	0x51b
	%	2
	DCD	0x18
	DCW	0x51c
	%	2
	DCD	0x18
	DCW	0x51e
	%	2
	DCD	0x18
	DCW	0x51f
	%	2
	DCD	0x18
	DCW	0x520
	%	2
	DCD	0x18
	DCW	0x521
	%	2
	DCD	0x18
	DCW	0xd0
	%	2
	DCD	0x20
	DCW	0xac
	%	2
	DCD	0x20
	DCW	0xa5
	%	2
	DCD	0x20
	DCW	0x4c
	%	2
	DCD	0x20
	DCW	0x82
	%	2
	DCD	0x21
	DCW	0xad
	%	2
	DCD	0x20
	DCW	0xab
	%	2
	DCD	0x21
	DCW	0xaa
	%	2
	DCD	0x21
	DCW	0xa0
	%	2
	DCD	0x23
	DCW	0x9a
	%	2
	DCD	0x20
	DCW	0x2d8
	%	2
	DCD	0x20
	DCW	0x2d7
	%	2
	DCD	0x20
	DCW	0x25
	%	2
	DCD	0x20
	DCW	0x27
	%	2
	DCD	0x20
	DCW	0x28
	%	2
	DCD	0x20
	DCW	0x29
	%	2
	DCD	0x20
	DCW	0x2e
	%	2
	DCD	0x21
	DCW	0xba
	%	2
	DCD	0x7
	DCW	0xb9
	%	2
	DCD	0x1
	DCW	0xbb
	%	2
	DCD	0x1
	DCW	0xbc
	%	2
	DCD	0x1
	DCW	0xbd
	%	2
	DCD	0x1
	DCW	0xbe
	%	2
	DCD	0x1
	DCW	0xbf
	%	2
	DCD	0x1
	DCW	0xc0
	%	2
	DCD	0x1
	DCW	0xc1
	%	2
	DCD	0x1
	DCW	0xc2
	%	2
	DCD	0x1
	DCW	0xc3
	%	2
	DCD	0x1
	DCW	0xc4
	%	2
	DCD	0x1
	DCW	0xcf
	%	2
	DCD	0x20
	DCW	0xcd
	%	2
	DCD	0x20
	DCW	0xcc
	%	2
	DCD	0x20
	DCW	0xffff
	%	2
	DCD	0x0
	IMPORT	|SOCSetPadConfig|
; File c:\wince600\platform\z2170p\src\inc\bsp_padcfg.h

  00000			 AREA	 |.pdata|, PDATA
|$T48092| DCD	|$LN9@ConfigureP|
	DCD	0x40001601
; Function compile flags: /Ogspy

  00000			 AREA	 |.text|, CODE, ARM

  00000		 |ConfigurePadArray| PROC

; 575  : {

  00000		 |$LN9@ConfigureP|
  00000	e92d40f0	 stmdb       sp!, {r4 - r7, lr}
  00004		 |$M48089|
  00004	e1a04000	 mov         r4, r0

; 576  :     int i=0;
; 577  :     while (padArray[i].padID != (UINT16) -1)

  00008	e1d420b0	 ldrh        r2, [r4]
  0000c	e3a03cff	 mov         r3, #0xFF, 24
  00010	e38350ff	 orr         r5, r3, #0xFF
  00014	e1520005	 cmp         r2, r5
  00018	e3a06000	 mov         r6, #0
  0001c	0a00000b	 beq         |$LN1@ConfigureP|
  00020	e3a01c7f	 mov         r1, #0x7F, 24
  00024	e38170ff	 orr         r7, r1, #0xFF
  00028	e1a03004	 mov         r3, r4
  0002c		 |$LL2@ConfigureP|

; 578  :     {
; 579  :         SOCSetPadConfig(padArray[i].padID,(UINT16) padArray[i].Cfg);

  0002c	e5933004	 ldr         r3, [r3, #4]
  00030	e1a00002	 mov         r0, r2
  00034	e0031007	 and         r1, r3, r7
  00038	eb000000	 bl          SOCSetPadConfig

; 580  :         i++;

  0003c	e2866001	 add         r6, r6, #1
  00040	e0843186	 add         r3, r4, r6, lsl #3
  00044	e1d320b0	 ldrh        r2, [r3]
  00048	e1520005	 cmp         r2, r5
  0004c	1afffff6	 bne         |$LL2@ConfigureP|
  00050		 |$LN1@ConfigureP|

; 581  :     }
; 582  : }

  00050	e8bd40f0	 ldmia       sp!, {r4 - r7, lr}
  00054	e12fff1e	 bx          lr
  00058		 |$M48090|

			 ENDP  ; |ConfigurePadArray|

	EXPORT	|BSPGpioInit|
	IMPORT	|BSPInsertGpioDevice|
	IMPORT	|Omap_Gpio|
	IMPORT	|Tps659xx_Gpio|
; File c:\wince600\platform\z2170p\src\bootloader\eboot\main.c

  00000			 AREA	 |.pdata|, PDATA
|$T48099| DCD	|$LN5@BSPGpioIni|
	DCD	0x40000d01
; Function compile flags: /Ogspy

  00000			 AREA	 |.text|, CODE, ARM

  00000		 |BSPGpioInit| PROC

; 106  : {

  00000		 |$LN5@BSPGpioIni|
  00000	e52de004	 str         lr, [sp, #-4]!
  00004		 |$M48096|

; 107  :    BSPInsertGpioDevice(0,&Omap_Gpio,NULL);

  00004	e59f1024	 ldr         r1, [pc, #0x24]
  00008	e3a02000	 mov         r2, #0
  0000c	e3a00000	 mov         r0, #0
  00010	eb000000	 bl          BSPInsertGpioDevice

; 108  :    BSPInsertGpioDevice(TRITON_GPIO_PINID_START, &Tps659xx_Gpio, NULL);

  00014	e59f1010	 ldr         r1, [pc, #0x10]
  00018	e3a02000	 mov         r2, #0
  0001c	e3a00c01	 mov         r0, #1, 24
  00020	eb000000	 bl          BSPInsertGpioDevice

; 109  : }

  00024	e49de004	 ldr         lr, [sp], #4
  00028	e12fff1e	 bx          lr
  0002c		 |$LN6@BSPGpioIni|
  0002c		 |$LN7@BSPGpioIni|
  0002c	00000000	 DCD         |Tps659xx_Gpio|
  00030		 |$LN8@BSPGpioIni|
  00030	00000000	 DCD         |Omap_Gpio|
  00034		 |$M48097|

			 ENDP  ; |BSPGpioInit|

	EXPORT	|main|
	IMPORT	|BootloaderMain|
	IMPORT	|EnableDeviceClocks|
	IMPORT	|BSPGetDebugUARTConfig|

  00000			 AREA	 |.pdata|, PDATA
|$T48111| DCD	|$LN5@main|
	DCD	0x40000901
; Function compile flags: /Ogspy

  00000			 AREA	 |.text|, CODE, ARM

  00000		 |main|	 PROC

; 112  : {

  00000		 |$LN5@main|
  00000	e52de004	 str         lr, [sp, #-4]!
  00004		 |$M48108|

; 113  : 	//UINT32 CpuRevision;
; 114  : 	// Get CPU family
; 115  : 	//g_CPUFamily = CPU_FAMILY_OMAP35XX;
; 116  : 	//CpuRevision = Get_CPUVersion();
; 117  : 	//g_CPUFamily = CPU_FAMILY(CpuRevision);
; 118  :     EnableDeviceClocks(BSPGetDebugUARTConfig()->dev,TRUE);

  00004	eb000000	 bl          BSPGetDebugUARTConfig
  00008	e5900000	 ldr         r0, [r0]
  0000c	e3a01001	 mov         r1, #1
  00010	eb000000	 bl          EnableDeviceClocks

; 119  :     BootloaderMain();

  00014	eb000000	 bl          BootloaderMain

; 120  : }

  00018	e3a00000	 mov         r0, #0
  0001c	e49de004	 ldr         lr, [sp], #4
  00020	e12fff1e	 bx          lr
  00024		 |$M48109|

			 ENDP  ; |main|

	EXPORT	|OEMPlatformInit|
	EXPORT	|??_C@_1DO@MGHPPPEE@?$AAT?$AAP?$AAS?$AA6?$AA5?$AA9?$AAX?$AAX?$AA?5?$AAV?$AAe?$AAr?$AAs?$AAi?$AAo?$AAn?$AA?5?$AA0?$AAx?$AA?$CF?$AA0?$AA2?$AAx?$AA?5?$AA?$CI?$AA?$CF?$AAs?$AA?$CJ?$AA?$AN?$AA?6?$AA?$AA@| [ DATA ] ; `string'
	EXPORT	|??_C@_1M@OIJGKENB@?$AAE?$AAS?$AA1?$AA?4?$AA3?$AA?$AA@| [ DATA ] ; `string'
	EXPORT	|??_C@_1EE@KGKCAFPP@?$AAI?$AAN?$AAF?$AAO?$AA?3?$AA?5?$AAU?$AAn?$AAK?$AAn?$AAo?$AAw?$AAn?$AA?5?$AAC?$AAP?$AAU?$AA?5?$AAf?$AAa?$AAm?$AAi?$AAl?$AAy?$AA?3?$AA?$CF?$AAd?$AA?4?$AA?4?$AA?4?$AA?4?$AA?$AN@| [ DATA ] ; `string'
	EXPORT	|??_C@_08DGJGOJCE@EVM3530?9?$AA@| [ DATA ] ; `string'
	EXPORT	|??_C@_07BFNEHID@Z2170P?9?$AA@| [ DATA ] ; `string'
	EXPORT	|??_C@_1EA@CNLHEJHC@?$AAT?$AAI?$AA?5?$AAO?$AAM?$AAA?$AAP?$AA?$CF?$AAx?$AA?5?$AAV?$AAe?$AAr?$AAs?$AAi?$AAo?$AAn?$AA?5?$AA0?$AAx?$AA?$CF?$AA0?$AA8?$AAx?$AA?5?$AA?$CI?$AA?$CF?$AAs?$AA?$CJ?$AA?$AN?$AA?6?$AA?$AA@| [ DATA ] ; `string'
	EXPORT	|??_C@_1BA@LEPJIIOK@?$AAU?$AAn?$AAk?$AAn?$AAo?$AAw?$AAn?$AA?$AA@| [ DATA ] ; `string'
	EXPORT	|??_C@_1M@FACKMDLE@?$AAE?$AAS?$AA1?$AA?4?$AA2?$AA?$AA@| [ DATA ] ; `string'
	EXPORT	|??_C@_1M@ECJPGMFK@?$AAE?$AAS?$AA1?$AA?4?$AA1?$AA?$AA@| [ DATA ] ; `string'
	EXPORT	|??_C@_1M@LKGLCH@?$AAE?$AAS?$AA3?$AA?4?$AA1?$AA?$AA@| [ DATA ] ; `string'
	EXPORT	|??_C@_1M@LIAGAMEC@?$AAE?$AAS?$AA3?$AA?4?$AA0?$AA?$AA@| [ DATA ] ; `string'
	EXPORT	|??_C@_1DO@OPHFFOFA@?$AAE?$AAS?$AA2?$AA?4?$AA1?$AA?0?$AA?5?$AAI?$AAD?$AA?5?$AAd?$AAe?$AAt?$AAe?$AAr?$AAm?$AAi?$AAn?$AAe?$AAd?$AA?5?$AAu?$AAs?$AAi?$AAn?$AAg?$AA?5?$AAC?$AAR?$AAC?$AA?$AA@| [ DATA ] ; `string'
	EXPORT	|??_C@_1DO@OONAPHOG@?$AAE?$AAS?$AA2?$AA?4?$AA0?$AA?0?$AA?5?$AAI?$AAD?$AA?5?$AAd?$AAe?$AAt?$AAe?$AAr?$AAm?$AAi?$AAn?$AAe?$AAd?$AA?5?$AAu?$AAs?$AAi?$AAn?$AAg?$AA?5?$AAC?$AAR?$AAC?$AA?$AA@| [ DATA ] ; `string'
	EXPORT	|??_C@_1M@MMBAGLLJ@?$AAE?$AAS?$AA2?$AA?4?$AA1?$AA?$AA@| [ DATA ] ; `string'
	EXPORT	|??_C@_1M@HEKMAMNM@?$AAE?$AAS?$AA2?$AA?4?$AA0?$AA?$AA@| [ DATA ] ; `string'
	EXPORT	|??_C@_1M@PKCDALDP@?$AAE?$AAS?$AA1?$AA?4?$AA0?$AA?$AA@| [ DATA ] ; `string'
	EXPORT	|??_C@_08CFNPBJFO@17?316?320?$AA@| [ DATA ] ; `string'
	EXPORT	|??_C@_0M@LPAMFHAN@Nov?5?54?52013?$AA@| [ DATA ] ; `string'
	EXPORT	|??_C@_1HG@KGFFNHHE@?$AAZ?$AAE?$AAB?$AAE?$AAX?$AA?5?$AAW?$AAi?$AAn?$AAd?$AAo?$AAw?$AAs?$AA?5?$AAC?$AAE?$AA?5?$AAE?$AAB?$AAO?$AAO?$AAT?$AA?5?$AAf?$AAo?$AAr?$AA?5?$AAZ?$AA?9?$AA2?$AA1?$AA7@| [ DATA ] ; `string'
	EXPORT	|??_C@_1CC@DJCPIFGO@?$AAV?$AAe?$AAr?$AAs?$AAi?$AAo?$AAn?$AA?3?$AA?5?$AA0?$AA?4?$AA0?$AA?4?$AA1?$AA?$AN?$AA?6?$AA?$AA@| [ DATA ] ; `string'
	IMPORT	|TWLReadIDCode|
	IMPORT	|HotKeyInit|
	IMPORT	|GPIOSetMode|
	IMPORT	|GPIOClrBit|
	IMPORT	|GPIOOpen|
	IMPORT	|TWLOpen|
	IMPORT	|GPIOInit|
	IMPORT	|OALI2CInit|
	IMPORT	|NKDbgPrintfW|
	IMPORT	|OALPAtoVA|
	IMPORT	|Get_CPUVersion|
	IMPORT	|OALLocalAllocInit|

  00004			 AREA	 |.bss|, NOINIT
|?allocationPool@?1??OEMPlatformInit@@9@9| % 0x200	; `OEMPlatformInit'::`2'::allocationPool
|ghTwl|	%	0x4
|?allocationPool@?1??OEMPlatformInit@@9@9| % 0x200	; `OEMPlatformInit'::`2'::allocationPool
; File c:\wince600\platform\z2170p\src\inc\bsp_padcfg.h

  00000			 AREA	 |.pdata|, PDATA
|$T48167| DCD	|$LN49@OEMPlatfor|
	DCD	0x4000cf02

  00000			 AREA	 |.rdata|, DATA, READONLY
|??_C@_1DO@MGHPPPEE@?$AAT?$AAP?$AAS?$AA6?$AA5?$AA9?$AAX?$AAX?$AA?5?$AAV?$AAe?$AAr?$AAs?$AAi?$AAo?$AAn?$AA?5?$AA0?$AAx?$AA?$CF?$AA0?$AA2?$AAx?$AA?5?$AA?$CI?$AA?$CF?$AAs?$AA?$CJ?$AA?$AN?$AA?6?$AA?$AA@| DCB "T"
	DCB	0x0, "P", 0x0, "S", 0x0, "6", 0x0, "5", 0x0, "9", 0x0, "X"
	DCB	0x0, "X", 0x0, " ", 0x0, "V", 0x0, "e", 0x0, "r", 0x0, "s"
	DCB	0x0, "i", 0x0, "o", 0x0, "n", 0x0, " ", 0x0, "0", 0x0, "x"
	DCB	0x0, "%", 0x0, "0", 0x0, "2", 0x0, "x", 0x0, " ", 0x0, "("
	DCB	0x0, "%", 0x0, "s", 0x0, ")", 0x0, 0xd, 0x0, 0xa, 0x0, 0x0
	DCB	0x0					; `string'

  00000			 AREA	 |.rdata|, DATA, READONLY
|??_C@_1M@OIJGKENB@?$AAE?$AAS?$AA1?$AA?4?$AA3?$AA?$AA@| DCB "E", 0x0, "S", 0x0
	DCB	"1", 0x0, ".", 0x0, "3", 0x0, 0x0, 0x0	; `string'

  00000			 AREA	 |.rdata|, DATA, READONLY
|??_C@_1EE@KGKCAFPP@?$AAI?$AAN?$AAF?$AAO?$AA?3?$AA?5?$AAU?$AAn?$AAK?$AAn?$AAo?$AAw?$AAn?$AA?5?$AAC?$AAP?$AAU?$AA?5?$AAf?$AAa?$AAm?$AAi?$AAl?$AAy?$AA?3?$AA?$CF?$AAd?$AA?4?$AA?4?$AA?4?$AA?4?$AA?$AN@| DCB "I"
	DCB	0x0, "N", 0x0, "F", 0x0, "O", 0x0, ":", 0x0, " ", 0x0, "U"
	DCB	0x0, "n", 0x0, "K", 0x0, "n", 0x0, "o", 0x0, "w", 0x0, "n"
	DCB	0x0, " ", 0x0, "C", 0x0, "P", 0x0, "U", 0x0, " ", 0x0, "f"
	DCB	0x0, "a", 0x0, "m", 0x0, "i", 0x0, "l", 0x0, "y", 0x0, ":"
	DCB	0x0, "%", 0x0, "d", 0x0, ".", 0x0, ".", 0x0, ".", 0x0, "."
	DCB	0x0, 0xd, 0x0, 0xa, 0x0, 0x0, 0x0	; `string'

  00000			 AREA	 |.rdata|, DATA, READONLY
|??_C@_08DGJGOJCE@EVM3530?9?$AA@| DCB "EVM3530-", 0x0	; `string'

  00000			 AREA	 |.rdata|, DATA, READONLY
|??_C@_07BFNEHID@Z2170P?9?$AA@| DCB "Z2170P-", 0x0	; `string'

  00000			 AREA	 |.rdata|, DATA, READONLY
|??_C@_1EA@CNLHEJHC@?$AAT?$AAI?$AA?5?$AAO?$AAM?$AAA?$AAP?$AA?$CF?$AAx?$AA?5?$AAV?$AAe?$AAr?$AAs?$AAi?$AAo?$AAn?$AA?5?$AA0?$AAx?$AA?$CF?$AA0?$AA8?$AAx?$AA?5?$AA?$CI?$AA?$CF?$AAs?$AA?$CJ?$AA?$AN?$AA?6?$AA?$AA@| DCB "T"
	DCB	0x0, "I", 0x0, " ", 0x0, "O", 0x0, "M", 0x0, "A", 0x0, "P"
	DCB	0x0, "%", 0x0, "x", 0x0, " ", 0x0, "V", 0x0, "e", 0x0, "r"
	DCB	0x0, "s", 0x0, "i", 0x0, "o", 0x0, "n", 0x0, " ", 0x0, "0"
	DCB	0x0, "x", 0x0, "%", 0x0, "0", 0x0, "8", 0x0, "x", 0x0, " "
	DCB	0x0, "(", 0x0, "%", 0x0, "s", 0x0, ")", 0x0, 0xd, 0x0, 0xa
	DCB	0x0, 0x0, 0x0				; `string'

  00000			 AREA	 |.rdata|, DATA, READONLY
|??_C@_1BA@LEPJIIOK@?$AAU?$AAn?$AAk?$AAn?$AAo?$AAw?$AAn?$AA?$AA@| DCB "U", 0x0
	DCB	"n", 0x0, "k", 0x0, "n", 0x0, "o", 0x0, "w", 0x0, "n", 0x0
	DCB	0x0, 0x0				; `string'

  00000			 AREA	 |.rdata|, DATA, READONLY
|??_C@_1M@FACKMDLE@?$AAE?$AAS?$AA1?$AA?4?$AA2?$AA?$AA@| DCB "E", 0x0, "S", 0x0
	DCB	"1", 0x0, ".", 0x0, "2", 0x0, 0x0, 0x0	; `string'

  00000			 AREA	 |.rdata|, DATA, READONLY
|??_C@_1M@ECJPGMFK@?$AAE?$AAS?$AA1?$AA?4?$AA1?$AA?$AA@| DCB "E", 0x0, "S", 0x0
	DCB	"1", 0x0, ".", 0x0, "1", 0x0, 0x0, 0x0	; `string'

  00000			 AREA	 |.rdata|, DATA, READONLY
|??_C@_1M@LKGLCH@?$AAE?$AAS?$AA3?$AA?4?$AA1?$AA?$AA@| DCB "E", 0x0, "S", 0x0
	DCB	"3", 0x0, ".", 0x0, "1", 0x0, 0x0, 0x0	; `string'

  00000			 AREA	 |.rdata|, DATA, READONLY
|??_C@_1M@LIAGAMEC@?$AAE?$AAS?$AA3?$AA?4?$AA0?$AA?$AA@| DCB "E", 0x0, "S", 0x0
	DCB	"3", 0x0, ".", 0x0, "0", 0x0, 0x0, 0x0	; `string'

  00000			 AREA	 |.rdata|, DATA, READONLY
|??_C@_1DO@OPHFFOFA@?$AAE?$AAS?$AA2?$AA?4?$AA1?$AA?0?$AA?5?$AAI?$AAD?$AA?5?$AAd?$AAe?$AAt?$AAe?$AAr?$AAm?$AAi?$AAn?$AAe?$AAd?$AA?5?$AAu?$AAs?$AAi?$AAn?$AAg?$AA?5?$AAC?$AAR?$AAC?$AA?$AA@| DCB "E"
	DCB	0x0, "S", 0x0, "2", 0x0, ".", 0x0, "1", 0x0, ",", 0x0, " "
	DCB	0x0, "I", 0x0, "D", 0x0, " ", 0x0, "d", 0x0, "e", 0x0, "t"
	DCB	0x0, "e", 0x0, "r", 0x0, "m", 0x0, "i", 0x0, "n", 0x0, "e"
	DCB	0x0, "d", 0x0, " ", 0x0, "u", 0x0, "s", 0x0, "i", 0x0, "n"
	DCB	0x0, "g", 0x0, " ", 0x0, "C", 0x0, "R", 0x0, "C", 0x0, 0x0
	DCB	0x0					; `string'

  00000			 AREA	 |.rdata|, DATA, READONLY
|??_C@_1DO@OONAPHOG@?$AAE?$AAS?$AA2?$AA?4?$AA0?$AA?0?$AA?5?$AAI?$AAD?$AA?5?$AAd?$AAe?$AAt?$AAe?$AAr?$AAm?$AAi?$AAn?$AAe?$AAd?$AA?5?$AAu?$AAs?$AAi?$AAn?$AAg?$AA?5?$AAC?$AAR?$AAC?$AA?$AA@| DCB "E"
	DCB	0x0, "S", 0x0, "2", 0x0, ".", 0x0, "0", 0x0, ",", 0x0, " "
	DCB	0x0, "I", 0x0, "D", 0x0, " ", 0x0, "d", 0x0, "e", 0x0, "t"
	DCB	0x0, "e", 0x0, "r", 0x0, "m", 0x0, "i", 0x0, "n", 0x0, "e"
	DCB	0x0, "d", 0x0, " ", 0x0, "u", 0x0, "s", 0x0, "i", 0x0, "n"
	DCB	0x0, "g", 0x0, " ", 0x0, "C", 0x0, "R", 0x0, "C", 0x0, 0x0
	DCB	0x0					; `string'

  00000			 AREA	 |.rdata|, DATA, READONLY
|??_C@_1M@MMBAGLLJ@?$AAE?$AAS?$AA2?$AA?4?$AA1?$AA?$AA@| DCB "E", 0x0, "S", 0x0
	DCB	"2", 0x0, ".", 0x0, "1", 0x0, 0x0, 0x0	; `string'

  00000			 AREA	 |.rdata|, DATA, READONLY
|??_C@_1M@HEKMAMNM@?$AAE?$AAS?$AA2?$AA?4?$AA0?$AA?$AA@| DCB "E", 0x0, "S", 0x0
	DCB	"2", 0x0, ".", 0x0, "0", 0x0, 0x0, 0x0	; `string'

  00000			 AREA	 |.rdata|, DATA, READONLY
|??_C@_1M@PKCDALDP@?$AAE?$AAS?$AA1?$AA?4?$AA0?$AA?$AA@| DCB "E", 0x0, "S", 0x0
	DCB	"1", 0x0, ".", 0x0, "0", 0x0, 0x0, 0x0	; `string'

  00000			 AREA	 |.rdata|, DATA, READONLY
|??_C@_08CFNPBJFO@17?316?320?$AA@| DCB "17:16:20", 0x0	; `string'

  00000			 AREA	 |.rdata|, DATA, READONLY
|??_C@_0M@LPAMFHAN@Nov?5?54?52013?$AA@| DCB "Nov  4 2013", 0x0 ; `string'

  00000			 AREA	 |.rdata|, DATA, READONLY
|??_C@_1HG@KGFFNHHE@?$AAZ?$AAE?$AAB?$AAE?$AAX?$AA?5?$AAW?$AAi?$AAn?$AAd?$AAo?$AAw?$AAs?$AA?5?$AAC?$AAE?$AA?5?$AAE?$AAB?$AAO?$AAO?$AAT?$AA?5?$AAf?$AAo?$AAr?$AA?5?$AAZ?$AA?9?$AA2?$AA1?$AA7@| DCB "Z"
	DCB	0x0, "E", 0x0, "B", 0x0, "E", 0x0, "X", 0x0, " ", 0x0, "W"
	DCB	0x0, "i", 0x0, "n", 0x0, "d", 0x0, "o", 0x0, "w", 0x0, "s"
	DCB	0x0, " ", 0x0, "C", 0x0, "E", 0x0, " ", 0x0, "E", 0x0, "B"
	DCB	0x0, "O", 0x0, "O", 0x0, "T", 0x0, " ", 0x0, "f", 0x0, "o"
	DCB	0x0, "r", 0x0, " ", 0x0, "Z", 0x0, "-", 0x0, "2", 0x0, "1"
	DCB	0x0, "7", 0x0, "0", 0x0, "P", 0x0, " ", 0x0, "-", 0x0, " "
	DCB	0x0, "R", 0x0, "a", 0x0, "y", 0x0, 0xd, 0x0, 0xa, 0x0, "B"
	DCB	0x0, "u", 0x0, "i", 0x0, "l", 0x0, "t", 0x0, " ", 0x0, "%"
	DCB	0x0, "S", 0x0, " ", 0x0, "a", 0x0, "t", 0x0, " ", 0x0, "%"
	DCB	0x0, "S", 0x0, 0xd, 0x0, 0xa, 0x0, 0x0, 0x0 ; `string'

  00000			 AREA	 |.rdata|, DATA, READONLY
|??_C@_1CC@DJCPIFGO@?$AAV?$AAe?$AAr?$AAs?$AAi?$AAo?$AAn?$AA?3?$AA?5?$AA0?$AA?4?$AA0?$AA?4?$AA1?$AA?$AN?$AA?6?$AA?$AA@| DCB "V"
	DCB	0x0, "e", 0x0, "r", 0x0, "s", 0x0, "i", 0x0, "o", 0x0, "n"
	DCB	0x0, ":", 0x0, " ", 0x0, "0", 0x0, ".", 0x0, "0", 0x0, "."
	DCB	0x0, "1", 0x0, 0xd, 0x0, 0xa, 0x0, 0x0, 0x0 ; `string'
; Function compile flags: /Ogspy
; File c:\wince600\platform\z2170p\src\bootloader\eboot\main.c

  00000			 AREA	 |.text|, CODE, ARM

  00000		 |OEMPlatformInit| PROC

; 131  : {

  00000		 |$LN49@OEMPlatfor|
  00000	e92d4ff0	 stmdb       sp!, {r4 - r11, lr}
  00004	e24dd008	 sub         sp, sp, #8
  00008		 |$M48164|

; 132  :     OMAP_GPTIMER_REGS *pTimerRegs;
; 133  :     UINT32 CpuRevision, version;
; 134  :     HANDLE hTwl,hGPIO;
; 135  :     static UCHAR allocationPool[512];
; 136  :     static const PAD_INFO ebootPinMux_37XX[] = {
; 137  :             DSS_PADS_37XX
; 138  :             GPIO_PADS_37XX
; 139  : 	     	USBOTG_PADS
; 140  : 	     	MCSPI1_EBOOT_PADS
; 141  :             END_OF_PAD_ARRAY
; 142  :     };
; 143  : 	
; 144  : 	
; 145  :     OALLocalAllocInit(allocationPool,sizeof(allocationPool));

  00008	e59f6318	 ldr         r6, [pc, #0x318]
  0000c	e3a01c02	 mov         r1, #2, 24
  00010	e1a00006	 mov         r0, r6
  00014	eb000000	 bl          OALLocalAllocInit

; 146  : 
; 147  :     // Get processor and companion chip versions
; 148  : 	g_CPUFamily = CPU_FAMILY_OMAP35XX;

  00018	e3a03000	 mov         r3, #0
  0001c	e5863204	 str         r3, [r6, #0x204]

; 149  :     CpuRevision = Get_CPUVersion();

  00020	eb000000	 bl          Get_CPUVersion
  00024	e1a08000	 mov         r8, r0

; 150  :     version = CPU_REVISION(CpuRevision);
; 151  :     g_CPUFamily = CPU_FAMILY(CpuRevision);

  00028	e1a03808	 mov         r3, r8, lsl #16
  0002c	e3a02312	 mov         r2, #0x12, 6
  00030	e1a03c23	 mov         r3, r3, lsr #24

; 152  : 
; 153  : 	// Set GPTIMER1 regs pointer
; 154  : 	pTimerRegs = OALPAtoUA(OMAP_GPTIMER1_REGS_PA);

  00034	e3a01000	 mov         r1, #0
  00038	e38209c6	 orr         r0, r2, #0xC6, 18
  0003c	e5863204	 str         r3, [r6, #0x204]
  00040	e20850ff	 and         r5, r8, #0xFF
  00044	eb000000	 bl          OALPAtoVA

; 155  : 	
; 156  : 	ConfigurePadArray(ebootPinMux_37XX);

  00048	e59f92d4	 ldr         r9, [pc, #0x2D4]
  0004c	e3a01c7f	 mov         r1, #0x7F, 24
  00050	e381a0ff	 orr         r10, r1, #0xFF
  00054	e2891008	 add         r1, r9, #8
  00058	e58d1000	 str         r1, [sp]
  0005c	e1a07000	 mov         r7, r0
  00060	e2891008	 add         r1, r9, #8
  00064	e59d9000	 ldr         r9, [sp]
  00068	e3a00cff	 mov         r0, #0xFF, 24
  0006c	e58d1004	 str         r1, [sp, #4]
  00070	e1a06001	 mov         r6, r1
  00074	e3a04000	 mov         r4, #0
  00078	e3a03000	 mov         r3, #0
  0007c	e3a02052	 mov         r2, #0x52
  00080	e380b0ff	 orr         r11, r0, #0xFF
  00084		 |$LL38@OEMPlatfor|
  00084	e0833009	 add         r3, r3, r9
  00088	e5933004	 ldr         r3, [r3, #4]
  0008c	e1a00002	 mov         r0, r2
  00090	e003100a	 and         r1, r3, r10
  00094	eb000000	 bl          SOCSetPadConfig
  00098	e2844001	 add         r4, r4, #1
  0009c	e1a03184	 mov         r3, r4, lsl #3
  000a0	e19320b6	 ldrh        r2, [r3, +r6]
  000a4	e152000b	 cmp         r2, r11
  000a8	1afffff5	 bne         |$LL38@OEMPlatfor|

; 157  : 	
; 158  : 	//Bootstrap message(1), Ray 131024
; 159  :     OALLog(L"ZEBEX Windows CE EBOOT for Z-2170P - Ray\r\nBuilt %S at %S\r\n", __DATE__, __TIME__ );  

  000ac	e59f2284	 ldr         r2, [pc, #0x284]
  000b0	e59f127c	 ldr         r1, [pc, #0x27C]
  000b4	e59f0274	 ldr         r0, [pc, #0x274]
  000b8	eb000000	 bl          NKDbgPrintfW

; 160  :     
; 161  : #if BUILDING_EBOOT_SD           //Bootstrap message(2), Ray
; 162  :     OALLog(L"Version: " BSP_EBLD_SD_VERSION_STRING L"\r\n");

  000bc	e59f0268	 ldr         r0, [pc, #0x268]
  000c0	eb000000	 bl          NKDbgPrintfW

; 163  : #else
; 164  : 	OALLog(L"Version: " BSP_EBLD_NAND_VERSION_STRING L"\r\n");
; 165  : #endif
; 166  : 
; 167  :     // Soft reset GPTIMER1
; 168  :     OUTREG32(&pTimerRegs->TIOCP, SYSCONFIG_SOFTRESET);

  000c4	e3a03002	 mov         r3, #2
  000c8	e59f6258	 ldr         r6, [pc, #0x258]
  000cc	e59f9250	 ldr         r9, [pc, #0x250]
  000d0	e5873010	 str         r3, [r7, #0x10]
  000d4		 |$LL6@OEMPlatfor|

; 169  :     // While until done
; 170  :     while ((INREG32(&pTimerRegs->TISTAT) & GPTIMER_TISTAT_RESETDONE) == 0)

  000d4	e5973014	 ldr         r3, [r7, #0x14]
  000d8	e3130001	 tst         r3, #1
  000dc	0afffffc	 beq         |$LL6@OEMPlatfor|

; 171  :     	;
; 172  :  
; 173  :     // Enable posted mode
; 174  :     OUTREG32(&pTimerRegs->TSICR, GPTIMER_TSICR_POSTED);

  000e0	e3a03004	 mov         r3, #4
  000e4	e5873040	 str         r3, [r7, #0x40]

; 175  :     // Start timer
; 176  :     OUTREG32(&pTimerRegs->TCLR, GPTIMER_TCLR_AR|GPTIMER_TCLR_ST);

  000e8	e3a03003	 mov         r3, #3

; 177  :     
; 178  : 	// Enable device clocks used by the bootloader
; 179  :     EnableDeviceClocks(OMAP_DEVICE_GPIO1,TRUE);

  000ec	e3a01001	 mov         r1, #1
  000f0	e3a00029	 mov         r0, #0x29
  000f4	e5873024	 str         r3, [r7, #0x24]
  000f8	eb000000	 bl          EnableDeviceClocks

; 180  :     EnableDeviceClocks(OMAP_DEVICE_GPIO2,TRUE);

  000fc	e3a01001	 mov         r1, #1
  00100	e3a0002d	 mov         r0, #0x2D
  00104	eb000000	 bl          EnableDeviceClocks

; 181  :     EnableDeviceClocks(OMAP_DEVICE_GPIO3,TRUE);

  00108	e3a01001	 mov         r1, #1
  0010c	e3a0002e	 mov         r0, #0x2E
  00110	eb000000	 bl          EnableDeviceClocks

; 182  :     EnableDeviceClocks(OMAP_DEVICE_GPIO4,TRUE);

  00114	e3a01001	 mov         r1, #1
  00118	e3a0002f	 mov         r0, #0x2F
  0011c	eb000000	 bl          EnableDeviceClocks

; 183  :     EnableDeviceClocks(OMAP_DEVICE_GPIO5,TRUE);

  00120	e3a01001	 mov         r1, #1
  00124	e3a00030	 mov         r0, #0x30
  00128	eb000000	 bl          EnableDeviceClocks

; 184  :     EnableDeviceClocks(OMAP_DEVICE_GPIO6,TRUE);

  0012c	e3a01001	 mov         r1, #1
  00130	e3a00031	 mov         r0, #0x31
  00134	eb000000	 bl          EnableDeviceClocks

; 185  :     
; 186  : 	EnableDeviceClocks(OMAP_DEVICE_MCSPI1,TRUE);

  00138	e3a01001	 mov         r1, #1
  0013c	e3a0000f	 mov         r0, #0xF
  00140	eb000000	 bl          EnableDeviceClocks

; 187  : 	
; 188  :     // configure i2c devices
; 189  :     OALI2CInit(OMAP_DEVICE_I2C1); // TPS65650_I2CCNTL

  00144	e3a0000c	 mov         r0, #0xC
  00148	eb000000	 bl          OALI2CInit

; 190  :     //OALI2CInit(OMAP_DEVICE_I2C2); // G-sensor for Z-2000
; 191  :     OALI2CInit(OMAP_DEVICE_I2C3); // BQ27410

  0014c	e3a0000e	 mov         r0, #0xE
  00150	eb000000	 bl          OALI2CInit

; 192  : 
; 193  :     GPIOInit();

  00154	eb000000	 bl          GPIOInit

; 194  :     // Note that T2 accesses must occur after I2C initialization
; 195  :     hTwl = TWLOpen();

  00158	eb000000	 bl          TWLOpen
  0015c	e1a07000	 mov         r7, r0

; 196  :     hGPIO = GPIOOpen(); 

  00160	eb000000	 bl          GPIOOpen

; 197  :    
; 198  :     //if( omap_mcspi_init() )
; 199  :     //	OALLog(L"omap_mcspi_init: success!!!\r\n");
; 200  :     	
; 201  :     // Clear Reset on ethernet controller        
; 202  :     //GPIOSetBit(hGPIO,LAN9115_RESET_GPIO);            
; 203  :     //GPIOSetMode(hGPIO, LAN9115_RESET_GPIO,GPIO_DIR_OUTPUT);
; 204  : 	// test GPIO 
; 205  : 	GPIOClrBit(hGPIO,15); // BT_EN

  00164	e3a0100f	 mov         r1, #0xF
  00168	e1a04000	 mov         r4, r0
  0016c	eb000000	 bl          GPIOClrBit

; 206  : 	GPIOSetMode(hGPIO, 15,GPIO_DIR_OUTPUT);

  00170	e3a02000	 mov         r2, #0
  00174	e3a0100f	 mov         r1, #0xF
  00178	e1a00004	 mov         r0, r4
  0017c	eb000000	 bl          GPIOSetMode

; 207  : 	GPIOClrBit(hGPIO,136); // VIBRATOR

  00180	e3a01088	 mov         r1, #0x88
  00184	e1a00004	 mov         r0, r4
  00188	eb000000	 bl          GPIOClrBit

; 208  : 	GPIOSetMode(hGPIO, 136,GPIO_DIR_OUTPUT);

  0018c	e3a02000	 mov         r2, #0
  00190	e3a01088	 mov         r1, #0x88
  00194	e1a00004	 mov         r0, r4
  00198	eb000000	 bl          GPIOSetMode

; 209  :     GPIOClrBit(hGPIO,16); // WLAN_EN

  0019c	e3a01010	 mov         r1, #0x10
  001a0	e1a00004	 mov         r0, r4
  001a4	eb000000	 bl          GPIOClrBit

; 210  : 	GPIOSetMode(hGPIO, 16,GPIO_DIR_OUTPUT);

  001a8	e3a02000	 mov         r2, #0
  001ac	e3a01010	 mov         r1, #0x10
  001b0	e1a00004	 mov         r0, r4
  001b4	eb000000	 bl          GPIOSetMode

; 211  : 	
; 212  :     //GPIOSetBit(hGPIO,15);     // test 
; 213  : 	HotKeyInit(hTwl);           //HotKey Initial ,Ray

  001b8	e1a00007	 mov         r0, r7
  001bc	eb000000	 bl          HotKeyInit

; 214  :     ghTwl = hTwl;
; 215  :     //OALLog(L"******hTwl: %X....\r\n", hTwl);      //address-1, Ray
; 216  : 
; 217  :     //Bootstrap message(3), Ray
; 218  :     OALLog(L"TI OMAP%x Version 0x%08x (%s)\r\n", CPU_ID(CpuRevision), CPU_REVISION(CpuRevision),        
; 219  :         version == CPU_FAMILY_35XX_REVISION_ES_1_0 ? L"ES1.0" :
; 220  :         version == CPU_FAMILY_35XX_REVISION_ES_2_0 ? L"ES2.0" :
; 221  :         version == CPU_FAMILY_35XX_REVISION_ES_2_1 ? L"ES2.1" :
; 222  :         version == CPU_FAMILY_35XX_REVISION_ES_2_0_CRC ? L"ES2.0, ID determined using CRC" :
; 223  :         version == CPU_FAMILY_35XX_REVISION_ES_2_1_CRC ? L"ES2.1, ID determined using CRC" :
; 224  :         version == CPU_FAMILY_35XX_REVISION_ES_3_0 ? L"ES3.0" :
; 225  :         version == CPU_FAMILY_35XX_REVISION_ES_3_1 ? L"ES3.1" : 
; 226  :         version == CPU_FAMILY_37XX_REVISION_ES_1_0? L"ES1.0" :
; 227  :         version == CPU_FAMILY_37XX_REVISION_ES_1_1? L"ES1.1" :
; 228  :         version == CPU_FAMILY_37XX_REVISION_ES_1_2? L"ES1.2" :
; 229  :         L"Unknown" );  

  001c0	e59f4158	 ldr         r4, [pc, #0x158]
  001c4	e5867200	 str         r7, [r6, #0x200]
  001c8	e3550000	 cmp         r5, #0
  001cc	0a000013	 beq         |$LN44@OEMPlatfor|
  001d0	e3550001	 cmp         r5, #1
  001d4	059f3140	 ldreq       r3, [pc, #0x140]
  001d8	0a000018	 beq         |$LN10@OEMPlatfor|
  001dc	e3550002	 cmp         r5, #2
  001e0	059f3130	 ldreq       r3, [pc, #0x130]
  001e4	0a000015	 beq         |$LN10@OEMPlatfor|
  001e8	e3550003	 cmp         r5, #3
  001ec	059f3120	 ldreq       r3, [pc, #0x120]
  001f0	0a000012	 beq         |$LN10@OEMPlatfor|
  001f4	e3550004	 cmp         r5, #4
  001f8	059f3110	 ldreq       r3, [pc, #0x110]
  001fc	0a00000f	 beq         |$LN10@OEMPlatfor|
  00200	e3550005	 cmp         r5, #5
  00204	059f3100	 ldreq       r3, [pc, #0x100]
  00208	0a00000c	 beq         |$LN10@OEMPlatfor|
  0020c	e3550006	 cmp         r5, #6
  00210	059f30f0	 ldreq       r3, [pc, #0xF0]
  00214	0a000009	 beq         |$LN10@OEMPlatfor|
  00218	e3550010	 cmp         r5, #0x10
  0021c	1a000001	 bne         |$LN13@OEMPlatfor|
  00220		 |$LN44@OEMPlatfor|
  00220	e1a03004	 mov         r3, r4
  00224	ea000005	 b           |$LN10@OEMPlatfor|
  00228		 |$LN13@OEMPlatfor|
  00228	e3550011	 cmp         r5, #0x11
  0022c	059f30bc	 ldreq       r3, [pc, #0xBC]
  00230	0a000002	 beq         |$LN10@OEMPlatfor|
  00234	e3550012	 cmp         r5, #0x12
  00238	059f30ac	 ldreq       r3, [pc, #0xAC]
  0023c	159f30a0	 ldrne       r3, [pc, #0xA0]
  00240		 |$LN10@OEMPlatfor|
  00240	e59f00bc	 ldr         r0, [pc, #0xBC]
  00244	e1a02005	 mov         r2, r5
  00248	e1a01828	 mov         r1, r8, lsr #16
  0024c	eb000000	 bl          NKDbgPrintfW

; 230  :     /* Initialize Device Prefix */
; 231  :     if(g_CPUFamily == CPU_FAMILY_DM37XX)

  00250	e5963204	 ldr         r3, [r6, #0x204]
  00254	e3530001	 cmp         r3, #1

; 232  :     {
; 233  :         gDevice_prefix = BSP_DEVICE_37xx_PREFIX;

  00258	059f20a0	 ldreq       r2, [pc, #0xA0]
  0025c	0a000005	 beq         |$LN45@OEMPlatfor|

; 234  :     }
; 235  :     else if (g_CPUFamily == CPU_FAMILY_OMAP35XX)

  00260	e5963204	 ldr         r3, [r6, #0x204]
  00264	e3530000	 cmp         r3, #0

; 236  :     {
; 237  :         gDevice_prefix = BSP_DEVICE_35xx_PREFIX;
; 238  :     }
; 239  :     else
; 240  :     {
; 241  :         OALLog(L"INFO: UnKnown CPU family:%d....\r\n", g_CPUFamily);

  00268	15961204	 ldrne       r1, [r6, #0x204]
  0026c	159f0088	 ldrne       r0, [pc, #0x88]
  00270	1b000000	 blne        NKDbgPrintfW

; 242  :         gDevice_prefix = BSP_DEVICE_35xx_PREFIX;

  00274	e59f207c	 ldr         r2, [pc, #0x7C]
  00278		 |$LN45@OEMPlatfor|
  00278	e59f3074	 ldr         r3, [pc, #0x74]

; 243  :     }
; 244  :     version = TWLReadIDCode(hTwl);

  0027c	e1a00007	 mov         r0, r7
  00280	e5832000	 str         r2, [r3]
  00284	eb000000	 bl          TWLReadIDCode
  00288	e1b01000	 movs        r1, r0

; 245  : 
; 246  :     //Bootstrap message(4), Ray
; 247  :     OALLog(L"TPS659XX Version 0x%02x (%s)\r\n", version,
; 248  :         version == 0x00 ? L"ES1.0" : 
; 249  :         version == 0x10 ? L"ES1.1" : 
; 250  :         version == 0x20 ? L"ES1.2" : 
; 251  :         version == 0x30 ? L"ES1.3" : L"Unknown" );

  0028c	0a000008	 beq         |$LN30@OEMPlatfor|
  00290	e3510010	 cmp         r1, #0x10
  00294	059f4054	 ldreq       r4, [pc, #0x54]
  00298	0a000005	 beq         |$LN30@OEMPlatfor|
  0029c	e3510020	 cmp         r1, #0x20
  002a0	059f4044	 ldreq       r4, [pc, #0x44]
  002a4	0a000002	 beq         |$LN30@OEMPlatfor|
  002a8	e3510030	 cmp         r1, #0x30
  002ac	059f4034	 ldreq       r4, [pc, #0x34]
  002b0	159f402c	 ldrne       r4, [pc, #0x2C]
  002b4		 |$LN30@OEMPlatfor|
  002b4	e59f0024	 ldr         r0, [pc, #0x24]
  002b8	e1a02004	 mov         r2, r4
  002bc	eb000000	 bl          NKDbgPrintfW

; 252  : 	
; 253  :     g_ecctype = (UCHAR)dwEbootECCtype;

  002c0	e5992000	 ldr         r2, [r9]
  002c4	e59f3010	 ldr         r3, [pc, #0x10]

; 254  : 
; 255  : 	//Bootstrap message(5), Ray
; 256  : 	//HotKeyFunction(hTwl);   // Function Locate is right? would to changes it.      
; 257  : 	//GPIOClrBit(hGPIO,15); // test high puls 20ms
; 258  :     // Done
; 259  :     return TRUE;

  002c8	e3a00001	 mov         r0, #1
  002cc	e5c32000	 strb        r2, [r3]

; 260  : }

  002d0	e28dd008	 add         sp, sp, #8
  002d4	e8bd4ff0	 ldmia       sp!, {r4 - r11, lr}
  002d8	e12fff1e	 bx          lr
  002dc		 |$LN50@OEMPlatfor|
  002dc		 |$LN51@OEMPlatfor|
  002dc	00000000	 DCD         |g_ecctype|
  002e0		 |$LN52@OEMPlatfor|
  002e0	00000000	 DCD         |??_C@_1DO@MGHPPPEE@?$AAT?$AAP?$AAS?$AA6?$AA5?$AA9?$AAX?$AAX?$AA?5?$AAV?$AAe?$AAr?$AAs?$AAi?$AAo?$AAn?$AA?5?$AA0?$AAx?$AA?$CF?$AA0?$AA2?$AAx?$AA?5?$AA?$CI?$AA?$CF?$AAs?$AA?$CJ?$AA?$AN?$AA?6?$AA?$AA@|
  002e4		 |$LN53@OEMPlatfor|
  002e4	00000000	 DCD         |??_C@_1BA@LEPJIIOK@?$AAU?$AAn?$AAk?$AAn?$AAo?$AAw?$AAn?$AA?$AA@|
  002e8		 |$LN54@OEMPlatfor|
  002e8	00000000	 DCD         |??_C@_1M@OIJGKENB@?$AAE?$AAS?$AA1?$AA?4?$AA3?$AA?$AA@|
  002ec		 |$LN55@OEMPlatfor|
  002ec	00000000	 DCD         |??_C@_1M@FACKMDLE@?$AAE?$AAS?$AA1?$AA?4?$AA2?$AA?$AA@|
  002f0		 |$LN56@OEMPlatfor|
  002f0	00000000	 DCD         |??_C@_1M@ECJPGMFK@?$AAE?$AAS?$AA1?$AA?4?$AA1?$AA?$AA@|
  002f4		 |$LN57@OEMPlatfor|
  002f4	00000000	 DCD         |gDevice_prefix|
  002f8		 |$LN58@OEMPlatfor|
  002f8	00000000	 DCD         |??_C@_08DGJGOJCE@EVM3530?9?$AA@|
  002fc		 |$LN59@OEMPlatfor|
  002fc	00000000	 DCD         |??_C@_1EE@KGKCAFPP@?$AAI?$AAN?$AAF?$AAO?$AA?3?$AA?5?$AAU?$AAn?$AAK?$AAn?$AAo?$AAw?$AAn?$AA?5?$AAC?$AAP?$AAU?$AA?5?$AAf?$AAa?$AAm?$AAi?$AAl?$AAy?$AA?3?$AA?$CF?$AAd?$AA?4?$AA?4?$AA?4?$AA?4?$AA?$AN@|
  00300		 |$LN60@OEMPlatfor|
  00300	00000000	 DCD         |??_C@_07BFNEHID@Z2170P?9?$AA@|
  00304		 |$LN61@OEMPlatfor|
  00304	00000000	 DCD         |??_C@_1EA@CNLHEJHC@?$AAT?$AAI?$AA?5?$AAO?$AAM?$AAA?$AAP?$AA?$CF?$AAx?$AA?5?$AAV?$AAe?$AAr?$AAs?$AAi?$AAo?$AAn?$AA?5?$AA0?$AAx?$AA?$CF?$AA0?$AA8?$AAx?$AA?5?$AA?$CI?$AA?$CF?$AAs?$AA?$CJ?$AA?$AN?$AA?6?$AA?$AA@|
  00308		 |$LN62@OEMPlatfor|
  00308	00000000	 DCD         |??_C@_1M@LKGLCH@?$AAE?$AAS?$AA3?$AA?4?$AA1?$AA?$AA@|
  0030c		 |$LN63@OEMPlatfor|
  0030c	00000000	 DCD         |??_C@_1M@LIAGAMEC@?$AAE?$AAS?$AA3?$AA?4?$AA0?$AA?$AA@|
  00310		 |$LN64@OEMPlatfor|
  00310	00000000	 DCD         |??_C@_1DO@OPHFFOFA@?$AAE?$AAS?$AA2?$AA?4?$AA1?$AA?0?$AA?5?$AAI?$AAD?$AA?5?$AAd?$AAe?$AAt?$AAe?$AAr?$AAm?$AAi?$AAn?$AAe?$AAd?$AA?5?$AAu?$AAs?$AAi?$AAn?$AAg?$AA?5?$AAC?$AAR?$AAC?$AA?$AA@|
  00314		 |$LN65@OEMPlatfor|
  00314	00000000	 DCD         |??_C@_1DO@OONAPHOG@?$AAE?$AAS?$AA2?$AA?4?$AA0?$AA?0?$AA?5?$AAI?$AAD?$AA?5?$AAd?$AAe?$AAt?$AAe?$AAr?$AAm?$AAi?$AAn?$AAe?$AAd?$AA?5?$AAu?$AAs?$AAi?$AAn?$AAg?$AA?5?$AAC?$AAR?$AAC?$AA?$AA@|
  00318		 |$LN66@OEMPlatfor|
  00318	00000000	 DCD         |??_C@_1M@MMBAGLLJ@?$AAE?$AAS?$AA2?$AA?4?$AA1?$AA?$AA@|
  0031c		 |$LN67@OEMPlatfor|
  0031c	00000000	 DCD         |??_C@_1M@HEKMAMNM@?$AAE?$AAS?$AA2?$AA?4?$AA0?$AA?$AA@|
  00320		 |$LN68@OEMPlatfor|
  00320	00000000	 DCD         |??_C@_1M@PKCDALDP@?$AAE?$AAS?$AA1?$AA?4?$AA0?$AA?$AA@|
  00324		 |$LN69@OEMPlatfor|
  00324	00000000	 DCD         |dwEbootECCtype|
  00328		 |$LN70@OEMPlatfor|
  00328	00000000	 DCD         |?allocationPool@?1??OEMPlatformInit@@9@9|
  0032c		 |$LN71@OEMPlatfor|
  0032c	00000000	 DCD         |??_C@_1CC@DJCPIFGO@?$AAV?$AAe?$AAr?$AAs?$AAi?$AAo?$AAn?$AA?3?$AA?5?$AA0?$AA?4?$AA0?$AA?4?$AA1?$AA?$AN?$AA?6?$AA?$AA@|
  00330		 |$LN72@OEMPlatfor|
  00330	00000000	 DCD         |??_C@_1HG@KGFFNHHE@?$AAZ?$AAE?$AAB?$AAE?$AAX?$AA?5?$AAW?$AAi?$AAn?$AAd?$AAo?$AAw?$AAs?$AA?5?$AAC?$AAE?$AA?5?$AAE?$AAB?$AAO?$AAO?$AAT?$AA?5?$AAf?$AAo?$AAr?$AA?5?$AAZ?$AA?9?$AA2?$AA1?$AA7@|
  00334		 |$LN73@OEMPlatfor|
  00334	00000000	 DCD         |??_C@_0M@LPAMFHAN@Nov?5?54?52013?$AA@|
  00338		 |$LN74@OEMPlatfor|
  00338	00000000	 DCD         |??_C@_08CFNPBJFO@17?316?320?$AA@|
  0033c		 |$M48165|

			 ENDP  ; |OEMPlatformInit|

	EXPORT	|??_C@_1GG@GNNPKEFL@?$AAI?$AAN?$AAF?$AAO?$AA?3?$AA?5?$AAO?$AAE?$AAM?$AAP?$AAl?$AAa?$AAt?$AAf?$AAo?$AAr?$AAm?$AAD?$AAe?$AAi?$AAn?$AAi?$AAt?$AA?5?$AA?9?$AA?5?$AA?5?$AAD?$AAi?$AAs?$AAa?$AAb@| [ DATA ] ; `string'

  00000			 AREA	 |.pdata|, PDATA
|$T48201| DCD	|$LN8@OEMPlatfor@2|
	DCD	0x40003c01

  00000			 AREA	 |.rdata|, DATA, READONLY
|??_C@_1GG@GNNPKEFL@?$AAI?$AAN?$AAF?$AAO?$AA?3?$AA?5?$AAO?$AAE?$AAM?$AAP?$AAl?$AAa?$AAt?$AAf?$AAo?$AAr?$AAm?$AAD?$AAe?$AAi?$AAn?$AAi?$AAt?$AA?5?$AA?9?$AA?5?$AA?5?$AAD?$AAi?$AAs?$AAa?$AAb@| DCB "I"
	DCB	0x0, "N", 0x0, "F", 0x0, "O", 0x0, ":", 0x0, " ", 0x0, "O"
	DCB	0x0, "E", 0x0, "M", 0x0, "P", 0x0, "l", 0x0, "a", 0x0, "t"
	DCB	0x0, "f", 0x0, "o", 0x0, "r", 0x0, "m", 0x0, "D", 0x0, "e"
	DCB	0x0, "i", 0x0, "n", 0x0, "i", 0x0, "t", 0x0, " ", 0x0, "-"
	DCB	0x0, " ", 0x0, " ", 0x0, "D", 0x0, "i", 0x0, "s", 0x0, "a"
	DCB	0x0, "b", 0x0, "l", 0x0, "e", 0x0, " ", 0x0, "d", 0x0, "e"
	DCB	0x0, "v", 0x0, "i", 0x0, "c", 0x0, "e", 0x0, " ", 0x0, "c"
	DCB	0x0, "l", 0x0, "o", 0x0, "c", 0x0, "k", 0x0, "s", 0x0, 0xd
	DCB	0x0, 0xa, 0x0, 0x0, 0x0			; `string'
; Function compile flags: /Ogspy

  00000			 AREA	 |.text|, CODE, ARM

  00000		 |OEMPlatformDeinit| PROC

; 267  : {

  00000		 |$LN8@OEMPlatfor@2|
  00000	e52de004	 str         lr, [sp, #-4]!
  00004		 |$M48198|
  00004	e3a03312	 mov         r3, #0x12, 6

; 268  :     OMAP_GPTIMER_REGS *pTimerRegs = OALPAtoUA(OMAP_GPTIMER1_REGS_PA);

  00008	e38309c6	 orr         r0, r3, #0xC6, 18
  0000c	e3a01000	 mov         r1, #0
  00010	eb000000	 bl          OALPAtoVA

; 269  : 
; 270  :     // Soft reset GPTIMER
; 271  :     OUTREG32(&pTimerRegs->TIOCP, SYSCONFIG_SOFTRESET);

  00014	e3a03002	 mov         r3, #2
  00018	e5803010	 str         r3, [r0, #0x10]
  0001c		 |$LL2@OEMPlatfor@2|

; 272  :     // While until done
; 273  :     while ((INREG32(&pTimerRegs->TISTAT) & GPTIMER_TISTAT_RESETDONE) == 0);

  0001c	e5903014	 ldr         r3, [r0, #0x14]
  00020	e3130001	 tst         r3, #1
  00024	0afffffc	 beq         |$LL2@OEMPlatfor@2|

; 274  : 
; 275  : 	// Disable device clocks that were used by the bootloader
; 276  : 	OALLog(L"INFO: OEMPlatformDeinit -  Disable device clocks\r\n");

  00028	e59f00bc	 ldr         r0, [pc, #0xBC]
  0002c	eb000000	 bl          NKDbgPrintfW

; 277  :     EnableDeviceClocks(OMAP_DEVICE_GPIO1,FALSE);

  00030	e3a01000	 mov         r1, #0
  00034	e3a00029	 mov         r0, #0x29
  00038	eb000000	 bl          EnableDeviceClocks

; 278  :     EnableDeviceClocks(OMAP_DEVICE_GPIO2,FALSE);

  0003c	e3a01000	 mov         r1, #0
  00040	e3a0002d	 mov         r0, #0x2D
  00044	eb000000	 bl          EnableDeviceClocks

; 279  :     EnableDeviceClocks(OMAP_DEVICE_GPIO3,FALSE);

  00048	e3a01000	 mov         r1, #0
  0004c	e3a0002e	 mov         r0, #0x2E
  00050	eb000000	 bl          EnableDeviceClocks

; 280  :     EnableDeviceClocks(OMAP_DEVICE_GPIO4,FALSE);

  00054	e3a01000	 mov         r1, #0
  00058	e3a0002f	 mov         r0, #0x2F
  0005c	eb000000	 bl          EnableDeviceClocks

; 281  :     EnableDeviceClocks(OMAP_DEVICE_GPIO5,FALSE);

  00060	e3a01000	 mov         r1, #0
  00064	e3a00030	 mov         r0, #0x30
  00068	eb000000	 bl          EnableDeviceClocks

; 282  :     EnableDeviceClocks(OMAP_DEVICE_GPIO6,FALSE);

  0006c	e3a01000	 mov         r1, #0
  00070	e3a00031	 mov         r0, #0x31
  00074	eb000000	 bl          EnableDeviceClocks

; 283  :     EnableDeviceClocks(OMAP_DEVICE_MCSPI1,FALSE);

  00078	e3a01000	 mov         r1, #0
  0007c	e3a0000f	 mov         r0, #0xF
  00080	eb000000	 bl          EnableDeviceClocks

; 284  :     EnableDeviceClocks(OMAP_DEVICE_GPTIMER2,FALSE);

  00084	e3a01000	 mov         r1, #0
  00088	e3a00035	 mov         r0, #0x35
  0008c	eb000000	 bl          EnableDeviceClocks

; 285  :     EnableDeviceClocks(OMAP_DEVICE_UART1,FALSE);

  00090	e3a01000	 mov         r1, #0
  00094	e3a0000a	 mov         r0, #0xA
  00098	eb000000	 bl          EnableDeviceClocks

; 286  : 	EnableDeviceClocks(OMAP_DEVICE_UART2,FALSE);

  0009c	e3a01000	 mov         r1, #0
  000a0	e3a0000b	 mov         r0, #0xB
  000a4	eb000000	 bl          EnableDeviceClocks

; 287  :     EnableDeviceClocks(OMAP_DEVICE_UART3,FALSE);

  000a8	e3a01000	 mov         r1, #0
  000ac	e3a0003d	 mov         r0, #0x3D
  000b0	eb000000	 bl          EnableDeviceClocks

; 288  :     EnableDeviceClocks(OMAP_DEVICE_MMC1,FALSE);

  000b4	e3a01000	 mov         r1, #0
  000b8	e3a00015	 mov         r0, #0x15
  000bc	eb000000	 bl          EnableDeviceClocks

; 289  :     EnableDeviceClocks(OMAP_DEVICE_MMC2,FALSE);

  000c0	e3a01000	 mov         r1, #0
  000c4	e3a00016	 mov         r0, #0x16
  000c8	eb000000	 bl          EnableDeviceClocks

; 290  :     EnableDeviceClocks(OMAP_DEVICE_I2C1,FALSE);

  000cc	e3a01000	 mov         r1, #0
  000d0	e3a0000c	 mov         r0, #0xC
  000d4	eb000000	 bl          EnableDeviceClocks

; 291  :     //EnableDeviceClocks(OMAP_DEVICE_I2C2,FALSE);
; 292  :     EnableDeviceClocks(OMAP_DEVICE_I2C3,FALSE);

  000d8	e3a01000	 mov         r1, #0
  000dc	e3a0000e	 mov         r0, #0xE
  000e0	eb000000	 bl          EnableDeviceClocks

; 293  : }

  000e4	e49de004	 ldr         lr, [sp], #4
  000e8	e12fff1e	 bx          lr
  000ec		 |$LN9@OEMPlatfor@2|
  000ec		 |$LN10@OEMPlatfor@2|
  000ec	00000000	 DCD         |??_C@_1GG@GNNPKEFL@?$AAI?$AAN?$AAF?$AAO?$AA?3?$AA?5?$AAO?$AAE?$AAM?$AAP?$AAl?$AAa?$AAt?$AAf?$AAo?$AAr?$AAm?$AAD?$AAe?$AAi?$AAn?$AAi?$AAt?$AA?5?$AA?9?$AA?5?$AA?5?$AAD?$AAi?$AAs?$AAa?$AAb@|
  000f0		 |$M48199|

			 ENDP  ; |OEMPlatformDeinit|

	EXPORT	|__$ArrayPad$| [ DATA ]
	EXPORT	|OEMMultiBinNotify|
	EXPORT	|??_C@_1CK@FDDKFJJE@?$AA?9?$AAO?$AAE?$AAM?$AAM?$AAu?$AAl?$AAt?$AAi?$AAB?$AAi?$AAn?$AAN?$AAo?$AAt?$AAi?$AAf?$AAy?$AA?$AN?$AA?6?$AA?$AA@| [ DATA ] ; `string'
	EXPORT	|??_C@_1CG@JHMEBKAH@?$AAS?$AAp?$AAi?$AAn?$AA?5?$AAf?$AAo?$AAr?$AA?5?$AAe?$AAv?$AAe?$AAr?$AA?4?$AA?4?$AA?4?$AA?$AN?$AA?6?$AA?$AA@| [ DATA ] ; `string'
	EXPORT	|??_C@_1DC@FNKKGJOD@?$AAD?$AAo?$AAw?$AAn?$AAl?$AAo?$AAa?$AAd?$AA?5?$AAf?$AAi?$AAl?$AAe?$AA?5?$AAt?$AAy?$AAp?$AAe?$AA?3?$AA?5?$AA?$CF?$AAd?$AA?$AN?$AA?6?$AA?$AA@| [ DATA ] ; `string'
	EXPORT	|??_C@_1DM@CJMKOEPD@?$AAU?$AAn?$AAs?$AAu?$AAp?$AAp?$AAo?$AAr?$AAt?$AAe?$AAd?$AA?5?$AAd?$AAo?$AAw?$AAn?$AAl?$AAo?$AAa?$AAd?$AAe?$AAd?$AA?5?$AAf?$AAi?$AAl?$AAe?$AA?$AN?$AA?6?$AA?$AA@| [ DATA ] ; `string'
	EXPORT	|??_C@_08CMMENMPK@logo?4nb0?$AA@| [ DATA ] ; `string'
	EXPORT	|??_C@_1FC@BJIBFLEA@?$AAE?$AAR?$AAR?$AAO?$AAR?$AA?3?$AA?5?$AAM?$AAu?$AAl?$AAt?$AAi?$AAX?$AAI?$AAP?$AA?5?$AAi?$AAm?$AAa?$AAg?$AAe?$AA?5?$AAi?$AAs?$AA?5?$AAn?$AAo?$AAt?$AA?5?$AAs?$AAu?$AAp@| [ DATA ] ; `string'
	EXPORT	|??_C@_1GG@NLHBBJNL@?$AA?$FL?$AA?$CF?$AAd?$AA?$FN?$AA?3?$AA?5?$AAA?$AAd?$AAd?$AAr?$AAe?$AAs?$AAs?$AA?$DN?$AA0?$AAx?$AA?$CF?$AA0?$AA8?$AAx?$AA?5?$AA?5?$AAL?$AAe?$AAn?$AAg?$AAt?$AAh?$AA?$DN?$AA0?$AAx?$AA?$CF@| [ DATA ] ; `string'
	EXPORT	|??_C@_1DK@OFMGKCPE@?$AAD?$AAo?$AAw?$AAn?$AAl?$AAo?$AAa?$AAd?$AA?5?$AAf?$AAi?$AAl?$AAe?$AA?5?$AAi?$AAn?$AAf?$AAo?$AAr?$AAm?$AAa?$AAt?$AAi?$AAo?$AAn?$AA?3?$AA?$AN?$AA?6?$AA?$AA@| [ DATA ] ; `string'
	EXPORT	|??_C@_1HM@MNPMBDFE@?$AA?9?$AA?9?$AA?9?$AA?9?$AA?9?$AA?9?$AA?9?$AA?9?$AA?9?$AA?9?$AA?9?$AA?9?$AA?9?$AA?9?$AA?9?$AA?9?$AA?9?$AA?9?$AA?9?$AA?9?$AA?9?$AA?9?$AA?9?$AA?9?$AA?9?$AA?9?$AA?9?$AA?9?$AA?9?$AA?9?$AA?9?$AA?9@| [ DATA ] ; `string'
	IMPORT	|dpCurSettings|
	IMPORT	|OALVAtoPA|
	IMPORT	|__GSHandlerCheck|
	IMPORT	|__security_cookie|
	IMPORT	|strncmp|
	IMPORT	|memset|
	IMPORT	|__security_check_cookie|

  00000			 AREA	 |.pdata|, PDATA
|$T48240| DCD	|$LN43@OEMMultiBi|
	DCD	0xc0009702

  00000			 AREA	 |.xdata|, DATA
|$T48236| DCD	0xffffffdc

  00000			 AREA	 |.rdata|, DATA, READONLY
|??_C@_1CK@FDDKFJJE@?$AA?9?$AAO?$AAE?$AAM?$AAM?$AAu?$AAl?$AAt?$AAi?$AAB?$AAi?$AAn?$AAN?$AAo?$AAt?$AAi?$AAf?$AAy?$AA?$AN?$AA?6?$AA?$AA@| DCB "-"
	DCB	0x0, "O", 0x0, "E", 0x0, "M", 0x0, "M", 0x0, "u", 0x0, "l"
	DCB	0x0, "t", 0x0, "i", 0x0, "B", 0x0, "i", 0x0, "n", 0x0, "N"
	DCB	0x0, "o", 0x0, "t", 0x0, "i", 0x0, "f", 0x0, "y", 0x0, 0xd
	DCB	0x0, 0xa, 0x0, 0x0, 0x0			; `string'

  00000			 AREA	 |.rdata|, DATA, READONLY
|??_C@_1CG@JHMEBKAH@?$AAS?$AAp?$AAi?$AAn?$AA?5?$AAf?$AAo?$AAr?$AA?5?$AAe?$AAv?$AAe?$AAr?$AA?4?$AA?4?$AA?4?$AA?$AN?$AA?6?$AA?$AA@| DCB "S"
	DCB	0x0, "p", 0x0, "i", 0x0, "n", 0x0, " ", 0x0, "f", 0x0, "o"
	DCB	0x0, "r", 0x0, " ", 0x0, "e", 0x0, "v", 0x0, "e", 0x0, "r"
	DCB	0x0, ".", 0x0, ".", 0x0, ".", 0x0, 0xd, 0x0, 0xa, 0x0, 0x0
	DCB	0x0					; `string'

  00000			 AREA	 |.rdata|, DATA, READONLY
|??_C@_1DC@FNKKGJOD@?$AAD?$AAo?$AAw?$AAn?$AAl?$AAo?$AAa?$AAd?$AA?5?$AAf?$AAi?$AAl?$AAe?$AA?5?$AAt?$AAy?$AAp?$AAe?$AA?3?$AA?5?$AA?$CF?$AAd?$AA?$AN?$AA?6?$AA?$AA@| DCB "D"
	DCB	0x0, "o", 0x0, "w", 0x0, "n", 0x0, "l", 0x0, "o", 0x0, "a"
	DCB	0x0, "d", 0x0, " ", 0x0, "f", 0x0, "i", 0x0, "l", 0x0, "e"
	DCB	0x0, " ", 0x0, "t", 0x0, "y", 0x0, "p", 0x0, "e", 0x0, ":"
	DCB	0x0, " ", 0x0, "%", 0x0, "d", 0x0, 0xd, 0x0, 0xa, 0x0, 0x0
	DCB	0x0					; `string'

  00000			 AREA	 |.rdata|, DATA, READONLY
|??_C@_1DM@CJMKOEPD@?$AAU?$AAn?$AAs?$AAu?$AAp?$AAp?$AAo?$AAr?$AAt?$AAe?$AAd?$AA?5?$AAd?$AAo?$AAw?$AAn?$AAl?$AAo?$AAa?$AAd?$AAe?$AAd?$AA?5?$AAf?$AAi?$AAl?$AAe?$AA?$AN?$AA?6?$AA?$AA@| DCB "U"
	DCB	0x0, "n", 0x0, "s", 0x0, "u", 0x0, "p", 0x0, "p", 0x0, "o"
	DCB	0x0, "r", 0x0, "t", 0x0, "e", 0x0, "d", 0x0, " ", 0x0, "d"
	DCB	0x0, "o", 0x0, "w", 0x0, "n", 0x0, "l", 0x0, "o", 0x0, "a"
	DCB	0x0, "d", 0x0, "e", 0x0, "d", 0x0, " ", 0x0, "f", 0x0, "i"
	DCB	0x0, "l", 0x0, "e", 0x0, 0xd, 0x0, 0xa, 0x0, 0x0, 0x0 ; `string'

  00000			 AREA	 |.rdata|, DATA, READONLY
|??_C@_08CMMENMPK@logo?4nb0?$AA@| DCB "logo.nb0", 0x0	; `string'

  00000			 AREA	 |.rdata|, DATA, READONLY
|??_C@_1FC@BJIBFLEA@?$AAE?$AAR?$AAR?$AAO?$AAR?$AA?3?$AA?5?$AAM?$AAu?$AAl?$AAt?$AAi?$AAX?$AAI?$AAP?$AA?5?$AAi?$AAm?$AAa?$AAg?$AAe?$AA?5?$AAi?$AAs?$AA?5?$AAn?$AAo?$AAt?$AA?5?$AAs?$AAu?$AAp@| DCB "E"
	DCB	0x0, "R", 0x0, "R", 0x0, "O", 0x0, "R", 0x0, ":", 0x0, " "
	DCB	0x0, "M", 0x0, "u", 0x0, "l", 0x0, "t", 0x0, "i", 0x0, "X"
	DCB	0x0, "I", 0x0, "P", 0x0, " ", 0x0, "i", 0x0, "m", 0x0, "a"
	DCB	0x0, "g", 0x0, "e", 0x0, " ", 0x0, "i", 0x0, "s", 0x0, " "
	DCB	0x0, "n", 0x0, "o", 0x0, "t", 0x0, " ", 0x0, "s", 0x0, "u"
	DCB	0x0, "p", 0x0, "p", 0x0, "o", 0x0, "r", 0x0, "t", 0x0, "e"
	DCB	0x0, "d", 0x0, 0xd, 0x0, 0xa, 0x0, 0x0, 0x0 ; `string'

  00000			 AREA	 |.rdata|, DATA, READONLY
|??_C@_1GG@NLHBBJNL@?$AA?$FL?$AA?$CF?$AAd?$AA?$FN?$AA?3?$AA?5?$AAA?$AAd?$AAd?$AAr?$AAe?$AAs?$AAs?$AA?$DN?$AA0?$AAx?$AA?$CF?$AA0?$AA8?$AAx?$AA?5?$AA?5?$AAL?$AAe?$AAn?$AAg?$AAt?$AAh?$AA?$DN?$AA0?$AAx?$AA?$CF@| DCB "["
	DCB	0x0, "%", 0x0, "d", 0x0, "]", 0x0, ":", 0x0, " ", 0x0, "A"
	DCB	0x0, "d", 0x0, "d", 0x0, "r", 0x0, "e", 0x0, "s", 0x0, "s"
	DCB	0x0, "=", 0x0, "0", 0x0, "x", 0x0, "%", 0x0, "0", 0x0, "8"
	DCB	0x0, "x", 0x0, " ", 0x0, " ", 0x0, "L", 0x0, "e", 0x0, "n"
	DCB	0x0, "g", 0x0, "t", 0x0, "h", 0x0, "=", 0x0, "0", 0x0, "x"
	DCB	0x0, "%", 0x0, "0", 0x0, "8", 0x0, "x", 0x0, " ", 0x0, " "
	DCB	0x0, "S", 0x0, "a", 0x0, "v", 0x0, "e", 0x0, "=", 0x0, "0"
	DCB	0x0, "x", 0x0, "%", 0x0, "0", 0x0, "8", 0x0, "x", 0x0, 0xd
	DCB	0x0, 0xa, 0x0, 0x0, 0x0			; `string'

  00000			 AREA	 |.rdata|, DATA, READONLY
|??_C@_1DK@OFMGKCPE@?$AAD?$AAo?$AAw?$AAn?$AAl?$AAo?$AAa?$AAd?$AA?5?$AAf?$AAi?$AAl?$AAe?$AA?5?$AAi?$AAn?$AAf?$AAo?$AAr?$AAm?$AAa?$AAt?$AAi?$AAo?$AAn?$AA?3?$AA?$AN?$AA?6?$AA?$AA@| DCB "D"
	DCB	0x0, "o", 0x0, "w", 0x0, "n", 0x0, "l", 0x0, "o", 0x0, "a"
	DCB	0x0, "d", 0x0, " ", 0x0, "f", 0x0, "i", 0x0, "l", 0x0, "e"
	DCB	0x0, " ", 0x0, "i", 0x0, "n", 0x0, "f", 0x0, "o", 0x0, "r"
	DCB	0x0, "m", 0x0, "a", 0x0, "t", 0x0, "i", 0x0, "o", 0x0, "n"
	DCB	0x0, ":", 0x0, 0xd, 0x0, 0xa, 0x0, 0x0, 0x0 ; `string'

  00000			 AREA	 |.rdata|, DATA, READONLY
|??_C@_1HM@MNPMBDFE@?$AA?9?$AA?9?$AA?9?$AA?9?$AA?9?$AA?9?$AA?9?$AA?9?$AA?9?$AA?9?$AA?9?$AA?9?$AA?9?$AA?9?$AA?9?$AA?9?$AA?9?$AA?9?$AA?9?$AA?9?$AA?9?$AA?9?$AA?9?$AA?9?$AA?9?$AA?9?$AA?9?$AA?9?$AA?9?$AA?9?$AA?9?$AA?9@| DCB "-"
	DCB	0x0, "-", 0x0, "-", 0x0, "-", 0x0, "-", 0x0, "-", 0x0, "-"
	DCB	0x0, "-", 0x0, "-", 0x0, "-", 0x0, "-", 0x0, "-", 0x0, "-"
	DCB	0x0, "-", 0x0, "-", 0x0, "-", 0x0, "-", 0x0, "-", 0x0, "-"
	DCB	0x0, "-", 0x0, "-", 0x0, "-", 0x0, "-", 0x0, "-", 0x0, "-"
	DCB	0x0, "-", 0x0, "-", 0x0, "-", 0x0, "-", 0x0, "-", 0x0, "-"
	DCB	0x0, "-", 0x0, "-", 0x0, "-", 0x0, "-", 0x0, "-", 0x0, "-"
	DCB	0x0, "-", 0x0, "-", 0x0, "-", 0x0, "-", 0x0, "-", 0x0, "-"
	DCB	0x0, "-", 0x0, "-", 0x0, "-", 0x0, "-", 0x0, "-", 0x0, "-"
	DCB	0x0, "-", 0x0, "-", 0x0, "-", 0x0, "-", 0x0, "-", 0x0, "-"
	DCB	0x0, "-", 0x0, "-", 0x0, "-", 0x0, "-", 0x0, 0xd, 0x0, 0xa
	DCB	0x0, 0x0, 0x0				; `string'
; Function compile flags: /Ogspy

  00000			 AREA	 |.text|, CODE, ARM

  00000	00000000	 DCD         |__GSHandlerCheck|
  00004	00000000	 DCD         |$T48236|

  00008		 |OEMMultiBinNotify| PROC

; 777  : {

  00008		 |$LN43@OEMMultiBi|
  00008	e92d47f0	 stmdb       sp!, {r4 - r10, lr}
  0000c	e24ddf43	 sub         sp, sp, #0x43, 30
  00010		 |$M48237|
  00010	e1a06000	 mov         r6, r0
  00014	e59f3244	 ldr         r3, [pc, #0x244]
  00018	e5933000	 ldr         r3, [r3]
  0001c	e58d3108	 str         r3, [sp, #0x108]
  00020	e3a03102	 mov         r3, #2, 2

; 778  :     BOOL rc = FALSE;
; 779  :     UINT32 base = OALVAtoPA((UCHAR*)IMAGE_WINCE_CODE_CA);

  00024	e3830a02	 orr         r0, r3, #2, 20
  00028	eb000000	 bl          OALVAtoPA
  0002c	e1a0a000	 mov         r10, r0

; 780  :     UINT32 start, length;
; 781  :     UINT32 ix;
; 782  : 
; 783  :     //OALMSG(OAL_INFO, (L"+OEMMultiBinNotify(0x%08x -> %d)\r\n", pInfo, pInfo->dwNumRegions));
; 784  :     OALMSG(1, (L"Download file information:\r\n"));

  00030	e59f0224	 ldr         r0, [pc, #0x224]
  00034	eb000000	 bl          NKDbgPrintfW

; 785  :     OALMSG(1, (L"-----------------------------------------------------------\r\n"));

  00038	e59f0210	 ldr         r0, [pc, #0x210]
  0003c	eb000000	 bl          NKDbgPrintfW

; 786  : 
; 787  :     // Copy information to EBOOT structure and set also save address
; 788  :     g_eboot.numRegions = pInfo->dwNumRegions;

  00040	e59f5210	 ldr         r5, [pc, #0x210]
  00044	e5963000	 ldr         r3, [r6]

; 789  :     for (ix = 0; ix < pInfo->dwNumRegions; ix++)

  00048	e3a09000	 mov         r9, #0
  0004c	e5853008	 str         r3, [r5, #8]
  00050	e5963000	 ldr         r3, [r6]
  00054	e3530000	 cmp         r3, #0
  00058	9a000014	 bls         |$LN22@OEMMultiBi|

; 790  : 	{
; 791  :         g_eboot.region[ix].start = pInfo->Region[ix].dwRegionStart;

  0005c	e1a07005	 mov         r7, r5
  00060	e1a08006	 mov         r8, r6
  00064		 |$LL24@OEMMultiBi|
  00064	e5983004	 ldr         r3, [r8, #4]

; 792  :         g_eboot.region[ix].length = pInfo->Region[ix].dwRegionLength;
; 793  :         g_eboot.region[ix].base = base;
; 794  :         base += g_eboot.region[ix].length;
; 795  :         OALMSG(1, (L"[%d]: Address=0x%08x  Length=0x%08x  Save=0x%08x\r\n",
; 796  :             ix, g_eboot.region[ix].start, g_eboot.region[ix].length,g_eboot.region[ix].base));

  00068	e59f01e4	 ldr         r0, [pc, #0x1E4]
  0006c	e1a0e00a	 mov         lr, r10
  00070	e5873010	 str         r3, [r7, #0x10]
  00074	e5983008	 ldr         r3, [r8, #8]
  00078	e5972010	 ldr         r2, [r7, #0x10]
  0007c	e1a01009	 mov         r1, r9
  00080	e1a04003	 mov         r4, r3
  00084	e587a018	 str         r10, [r7, #0x18]
  00088	e08aa004	 add         r10, r10, r4
  0008c	e5873014	 str         r3, [r7, #0x14]
  00090	e58de000	 str         lr, [sp]
  00094	eb000000	 bl          NKDbgPrintfW
  00098	e5963000	 ldr         r3, [r6]
  0009c	e2899001	 add         r9, r9, #1
  000a0	e2888f43	 add         r8, r8, #0x43, 30
  000a4	e1590003	 cmp         r9, r3
  000a8	e287700c	 add         r7, r7, #0xC
  000ac	3affffec	 bcc         |$LL24@OEMMultiBi|
  000b0		 |$LN22@OEMMultiBi|

; 797  : 	}
; 798  :     OALMSG(1, (L"-----------------------------------------------------------\r\n"));

  000b0	e59f0198	 ldr         r0, [pc, #0x198]
  000b4	eb000000	 bl          NKDbgPrintfW

; 799  : 
; 800  : #ifndef IMGMULTIXIP
; 801  : 
; 802  :     //Determine type of image downloaded
; 803  :     if (g_eboot.numRegions > 1) 

  000b8	e5953008	 ldr         r3, [r5, #8]
  000bc	e3530001	 cmp         r3, #1
  000c0	9a000005	 bls         |$LN21@OEMMultiBi|

; 804  :     {
; 805  :         OALMSG(OAL_ERROR, (L"ERROR: MultiXIP image is not supported\r\n"));

  000c4	e59f3178	 ldr         r3, [pc, #0x178]
  000c8	e5933440	 ldr         r3, [r3, #0x440]
  000cc	e3130001	 tst         r3, #1
  000d0	0a000048	 beq         |$LN36@OEMMultiBi|
  000d4	e59f0170	 ldr         r0, [pc, #0x170]

; 806  :         goto cleanUp;

  000d8	ea000045	 b           |$LN38@OEMMultiBi|
  000dc		 |$LN21@OEMMultiBi|

; 807  :     }
; 808  : #endif
; 809  : 
; 810  :     base = g_eboot.region[0].base;
; 811  :     start = g_eboot.region[0].start;

  000dc	e5951010	 ldr         r1, [r5, #0x10]
  000e0	e3a03101	 mov         r3, #1, 2

; 812  :     length = g_eboot.region[0].length; 
; 813  :     
; 814  :     if (start == IMAGE_XLDR_CODE_PA)

  000e4	e3833602	 orr         r3, r3, #2, 12
  000e8	e1510003	 cmp         r1, r3
  000ec	e5950018	 ldr         r0, [r5, #0x18]
  000f0	e5954014	 ldr         r4, [r5, #0x14]

; 815  : 	{
; 816  :         g_eboot.type = DOWNLOAD_TYPE_XLDR;

  000f4	03a03003	 moveq       r3, #3
  000f8	0a00000e	 beq         |$LN40@OEMMultiBi|

; 817  :         memset(OALPAtoCA(base), 0xFF, length);

  000fc	e3a03487	 mov         r3, #0x87, 8

; 818  : 	} 
; 819  :     else if (start == IMAGE_EBOOT_CODE_CA)

  00100	e383360e	 orr         r3, r3, #0xE, 12
  00104	e1510003	 cmp         r1, r3

; 820  : 	{
; 821  :         g_eboot.type = DOWNLOAD_TYPE_EBOOT;

  00108	03a03004	 moveq       r3, #4
  0010c	0a000009	 beq         |$LN40@OEMMultiBi|

; 822  :         memset(OALPAtoCA(base), 0xFF, length);

  00110	e3a03103	 mov         r3, #3, 2

; 823  : 	}
; 824  :     else if (start == (IMAGE_WINCE_CODE_CA + NAND_ROMOFFSET))

  00114	e3833a02	 orr         r3, r3, #2, 20
  00118	e1510003	 cmp         r1, r3

; 825  : 	{
; 826  :         g_eboot.type = DOWNLOAD_TYPE_FLASHNAND;

  0011c	03a03006	 moveq       r3, #6
  00120	0a000004	 beq         |$LN40@OEMMultiBi|

; 827  :         memset(OALPAtoCA(base), 0xFF, length);

  00124	e3a0320e	 mov         r3, #0xE, 4

; 828  : 	} 
; 829  : #ifdef IMGMULTIXIP
; 830  :     else if (start == (IMAGE_WINCE_EXT_CA))
; 831  : 	{
; 832  :         g_eboot.type = DOWNLOAD_TYPE_EXT;
; 833  :         memset(OALPAtoCA(base), 0xFF, length);
; 834  : 	} 
; 835  : #endif	
; 836  :     else if (start == (IMAGE_WINCE_CODE_CA + NOR_ROMOFFSET))

  00128	e3833a02	 orr         r3, r3, #2, 20
  0012c	e1510003	 cmp         r1, r3
  00130	1a000007	 bne         |$LN14@OEMMultiBi|

; 837  : 	{
; 838  :         g_eboot.type = DOWNLOAD_TYPE_FLASHNOR;

  00134	e3a03007	 mov         r3, #7
  00138		 |$LN40@OEMMultiBi|

; 839  :         memset(OALPAtoCA(base), 0xFF, length);

  00138	e3a01001	 mov         r1, #1
  0013c	e5853004	 str         r3, [r5, #4]
  00140	eb000000	 bl          OALPAtoVA
  00144	e1a02004	 mov         r2, r4
  00148	e3a010ff	 mov         r1, #0xFF
  0014c	eb000000	 bl          memset
  00150	ea00002d	 b           |$LN4@OEMMultiBi|
  00154		 |$LN14@OEMMultiBi|

; 840  : 	} 
; 841  : 	else if (start == 0) // Probably a NB0 file, let's fint out

  00154	e3510000	 cmp         r1, #0
  00158	1a000029	 bne         |$LN12@OEMMultiBi|

; 842  : 	{
; 843  : 		// Convert the file name to lower case
; 844  : 		CHAR szFileName[MAX_PATH];
; 845  : 		int i = 0;
; 846  : 		int fileExtPos = 0;
; 847  : 
; 848  : 		while ((pInfo->Region[0].szFileName[i] != '\0') && (i < MAX_PATH))

  0015c	e1d630dc	 ldrsb       r3, [r6, #0xC]
  00160	e3a00000	 mov         r0, #0
  00164	e3530000	 cmp         r3, #0
  00168	0a00000f	 beq         |$LN37@OEMMultiBi|
  0016c	e28d3004	 add         r3, sp, #4
  00170	e0431006	 sub         r1, r3, r6
  00174	e1a02006	 mov         r2, r6
  00178		 |$LL11@OEMMultiBi|
  00178	e3500f41	 cmp         r0, #0x41, 30
  0017c	aa00000a	 bge         |$LN37@OEMMultiBi|

; 849  : 		{
; 850  : 			if((pInfo->Region[0].szFileName[i] >= 'A') && (pInfo->Region[0].szFileName[i] <= 'Z')) 

  00180	e1d230dc	 ldrsb       r3, [r2, #0xC]
  00184	e3530041	 cmp         r3, #0x41
  00188	ba000001	 blt         |$LN9@OEMMultiBi|
  0018c	e353005a	 cmp         r3, #0x5A

; 851  : 			{
; 852  : 				szFileName[i] = (pInfo->Region[0].szFileName[i] - 'A' + 'a'); 

  00190	d2833020	 addle       r3, r3, #0x20
  00194		 |$LN9@OEMMultiBi|

; 853  : 			}
; 854  : 			else
; 855  : 			{
; 856  : 				szFileName[i] = pInfo->Region[0].szFileName[i];

  00194	e7c13002	 strb        r3, [r1, +r2]

; 857  : 			}
; 858  : 
; 859  : 			// Keep track of file extension position
; 860  : 			if (szFileName[i] == '.')
; 861  : 			{
; 862  : 				fileExtPos = i;
; 863  : 			}
; 864  : 			i++;

  00198	e2822001	 add         r2, r2, #1
  0019c	e1d230dc	 ldrsb       r3, [r2, #0xC]
  001a0	e2800001	 add         r0, r0, #1
  001a4	e3530000	 cmp         r3, #0
  001a8	1afffff2	 bne         |$LL11@OEMMultiBi|
  001ac		 |$LN37@OEMMultiBi|

; 865  : 		}
; 866  : 
; 867  : 		// Copy string terminator as well
; 868  : 		szFileName[i] = pInfo->Region[0].szFileName[i];

  001ac	e0863000	 add         r3, r6, r0
  001b0	e1d320dc	 ldrsb       r2, [r3, #0xC]

; 869  : 
; 870  : 		// Check if we support this file
; 871  : 		if (strncmp(szFileName, LOGO_NB0_FILE, LOGO_NB0_FILE_LEN) == 0)

  001b4	e59f108c	 ldr         r1, [pc, #0x8C]
  001b8	e28d3004	 add         r3, sp, #4
  001bc	e7c02003	 strb        r2, [r0, +r3]
  001c0	e3a02008	 mov         r2, #8
  001c4	e28d0004	 add         r0, sp, #4
  001c8	eb000000	 bl          strncmp
  001cc	e3500000	 cmp         r0, #0

; 872  : 		{
; 873  : 			// Remap the start address to the correct NAND location of the logo
; 874  : 			g_eboot.region[0].start = IMAGE_XLDR_BOOTSEC_NAND_SIZE + IMAGE_EBOOT_BOOTSEC_NAND_SIZE;

  001d0	03a03703	 moveq       r3, #3, 14
  001d4	05853010	 streq       r3, [r5, #0x10]

; 875  : 			g_eboot.type = DOWNLOAD_TYPE_LOGO;

  001d8	03a03008	 moveq       r3, #8
  001dc	0a000009	 beq         |$LN39@OEMMultiBi|

; 876  : 		}
; 877  : 		else
; 878  : 		{
; 879  : 		    OALMSG(OAL_ERROR, (L"Unsupported downloaded file\r\n"));

  001e0	e59f305c	 ldr         r3, [pc, #0x5C]
  001e4	e5933440	 ldr         r3, [r3, #0x440]
  001e8	e3130001	 tst         r3, #1
  001ec	0a000001	 beq         |$LN36@OEMMultiBi|
  001f0	e59f0048	 ldr         r0, [pc, #0x48]
  001f4		 |$LN38@OEMMultiBi|
  001f4	eb000000	 bl          NKDbgPrintfW
  001f8		 |$LN36@OEMMultiBi|

; 889  :     
; 890  :     rc = TRUE;
; 891  : 
; 892  : cleanUp:
; 893  :     if (!rc) 
; 894  : 	{
; 895  :         OALMSG(1, (L"Spin for ever...\r\n"));

  001f8	e59f003c	 ldr         r0, [pc, #0x3C]
  001fc	eb000000	 bl          NKDbgPrintfW
  00200		 |$LL2@OEMMultiBi|

; 896  :         for(;;);

  00200	eafffffe	 b           |$LL2@OEMMultiBi|
  00204		 |$LN12@OEMMultiBi|

; 880  : 			goto cleanUp;
; 881  : 		}
; 882  : 	}
; 883  :     else 
; 884  : 	{
; 885  :         g_eboot.type = DOWNLOAD_TYPE_RAM; // 1

  00204	e3a03001	 mov         r3, #1
  00208		 |$LN39@OEMMultiBi|
  00208	e5853004	 str         r3, [r5, #4]
  0020c		 |$LN4@OEMMultiBi|
  0020c	e5951004	 ldr         r1, [r5, #4]

; 886  : 	}
; 887  : 
; 888  :     OALMSG(1, (L"Download file type: %d\r\n", g_eboot.type));

  00210	e59f0020	 ldr         r0, [pc, #0x20]
  00214	eb000000	 bl          NKDbgPrintfW

; 897  : 	}
; 898  :     OALMSG(1, (L"-OEMMultiBinNotify\r\n"));

  00218	e59f0014	 ldr         r0, [pc, #0x14]
  0021c		 |$cleanUp$47872|
  0021c	eb000000	 bl          NKDbgPrintfW
  00220	e59d0108	 ldr         r0, [sp, #0x108]
  00224	eb000000	 bl          __security_check_cookie

; 899  : }

  00228	e28ddf43	 add         sp, sp, #0x43, 30
  0022c	e8bd47f0	 ldmia       sp!, {r4 - r10, lr}
  00230	e12fff1e	 bx          lr
  00234		 |$LN44@OEMMultiBi|
  00234		 |$LN45@OEMMultiBi|
  00234	00000000	 DCD         |??_C@_1CK@FDDKFJJE@?$AA?9?$AAO?$AAE?$AAM?$AAM?$AAu?$AAl?$AAt?$AAi?$AAB?$AAi?$AAn?$AAN?$AAo?$AAt?$AAi?$AAf?$AAy?$AA?$AN?$AA?6?$AA?$AA@|
  00238		 |$LN46@OEMMultiBi|
  00238	00000000	 DCD         |??_C@_1DC@FNKKGJOD@?$AAD?$AAo?$AAw?$AAn?$AAl?$AAo?$AAa?$AAd?$AA?5?$AAf?$AAi?$AAl?$AAe?$AA?5?$AAt?$AAy?$AAp?$AAe?$AA?3?$AA?5?$AA?$CF?$AAd?$AA?$AN?$AA?6?$AA?$AA@|
  0023c		 |$LN47@OEMMultiBi|
  0023c	00000000	 DCD         |??_C@_1CG@JHMEBKAH@?$AAS?$AAp?$AAi?$AAn?$AA?5?$AAf?$AAo?$AAr?$AA?5?$AAe?$AAv?$AAe?$AAr?$AA?4?$AA?4?$AA?4?$AA?$AN?$AA?6?$AA?$AA@|
  00240		 |$LN48@OEMMultiBi|
  00240	00000000	 DCD         |??_C@_1DM@CJMKOEPD@?$AAU?$AAn?$AAs?$AAu?$AAp?$AAp?$AAo?$AAr?$AAt?$AAe?$AAd?$AA?5?$AAd?$AAo?$AAw?$AAn?$AAl?$AAo?$AAa?$AAd?$AAe?$AAd?$AA?5?$AAf?$AAi?$AAl?$AAe?$AA?$AN?$AA?6?$AA?$AA@|
  00244		 |$LN49@OEMMultiBi|
  00244	00000000	 DCD         |dpCurSettings|
  00248		 |$LN50@OEMMultiBi|
  00248	00000000	 DCD         |??_C@_08CMMENMPK@logo?4nb0?$AA@|
  0024c		 |$LN51@OEMMultiBi|
  0024c	00000000	 DCD         |??_C@_1FC@BJIBFLEA@?$AAE?$AAR?$AAR?$AAO?$AAR?$AA?3?$AA?5?$AAM?$AAu?$AAl?$AAt?$AAi?$AAX?$AAI?$AAP?$AA?5?$AAi?$AAm?$AAa?$AAg?$AAe?$AA?5?$AAi?$AAs?$AA?5?$AAn?$AAo?$AAt?$AA?5?$AAs?$AAu?$AAp@|
  00250		 |$LN52@OEMMultiBi|
  00250	00000000	 DCD         |??_C@_1HM@MNPMBDFE@?$AA?9?$AA?9?$AA?9?$AA?9?$AA?9?$AA?9?$AA?9?$AA?9?$AA?9?$AA?9?$AA?9?$AA?9?$AA?9?$AA?9?$AA?9?$AA?9?$AA?9?$AA?9?$AA?9?$AA?9?$AA?9?$AA?9?$AA?9?$AA?9?$AA?9?$AA?9?$AA?9?$AA?9?$AA?9?$AA?9?$AA?9?$AA?9@|
  00254		 |$LN53@OEMMultiBi|
  00254	00000000	 DCD         |??_C@_1GG@NLHBBJNL@?$AA?$FL?$AA?$CF?$AAd?$AA?$FN?$AA?3?$AA?5?$AAA?$AAd?$AAd?$AAr?$AAe?$AAs?$AAs?$AA?$DN?$AA0?$AAx?$AA?$CF?$AA0?$AA8?$AAx?$AA?5?$AA?5?$AAL?$AAe?$AAn?$AAg?$AAt?$AAh?$AA?$DN?$AA0?$AAx?$AA?$CF@|
  00258		 |$LN54@OEMMultiBi|
  00258	00000000	 DCD         |g_eboot|
  0025c		 |$LN55@OEMMultiBi|
  0025c	00000000	 DCD         |??_C@_1DK@OFMGKCPE@?$AAD?$AAo?$AAw?$AAn?$AAl?$AAo?$AAa?$AAd?$AA?5?$AAf?$AAi?$AAl?$AAe?$AA?5?$AAi?$AAn?$AAf?$AAo?$AAr?$AAm?$AAa?$AAt?$AAi?$AAo?$AAn?$AA?3?$AA?$AN?$AA?6?$AA?$AA@|
  00260		 |$LN56@OEMMultiBi|
  00260	00000000	 DCD         |__security_cookie|
  00264		 |$M48238|

			 ENDP  ; |OEMMultiBinNotify|

	EXPORT	|OEMMapMemAddr|
	EXPORT	|??_C@_1GC@BMCFFGLH@?$AAE?$AAR?$AAR?$AAO?$AAR?$AA?3?$AA?5?$AAO?$AAE?$AAM?$AAM?$AAa?$AAp?$AAM?$AAe?$AAm?$AAA?$AAd?$AAd?$AAr?$AA?3?$AA?5?$AAI?$AAn?$AAv?$AAa?$AAl?$AAi?$AAd?$AA?5?$AAd?$AAo@| [ DATA ] ; `string'

  00000			 AREA	 |.pdata|, PDATA
|$T48268| DCD	|$LN14@OEMMapMemA|
	DCD	0x40002701

  00000			 AREA	 |.rdata|, DATA, READONLY
|??_C@_1GC@BMCFFGLH@?$AAE?$AAR?$AAR?$AAO?$AAR?$AA?3?$AA?5?$AAO?$AAE?$AAM?$AAM?$AAa?$AAp?$AAM?$AAe?$AAm?$AAA?$AAd?$AAd?$AAr?$AA?3?$AA?5?$AAI?$AAn?$AAv?$AAa?$AAl?$AAi?$AAd?$AA?5?$AAd?$AAo@| DCB "E"
	DCB	0x0, "R", 0x0, "R", 0x0, "O", 0x0, "R", 0x0, ":", 0x0, " "
	DCB	0x0, "O", 0x0, "E", 0x0, "M", 0x0, "M", 0x0, "a", 0x0, "p"
	DCB	0x0, "M", 0x0, "e", 0x0, "m", 0x0, "A", 0x0, "d", 0x0, "d"
	DCB	0x0, "r", 0x0, ":", 0x0, " ", 0x0, "I", 0x0, "n", 0x0, "v"
	DCB	0x0, "a", 0x0, "l", 0x0, "i", 0x0, "d", 0x0, " ", 0x0, "d"
	DCB	0x0, "o", 0x0, "w", 0x0, "n", 0x0, "l", 0x0, "o", 0x0, "a"
	DCB	0x0, "d", 0x0, " ", 0x0, "t", 0x0, "y", 0x0, "p", 0x0, "e"
	DCB	0x0, " ", 0x0, "%", 0x0, "d", 0x0, 0xd, 0x0, 0xa, 0x0, 0x0
	DCB	0x0					; `string'
; Function compile flags: /Ogspy

  00000			 AREA	 |.text|, CODE, ARM

  00000		 |OEMMapMemAddr| PROC

; 912  : {

  00000		 |$LN14@OEMMapMemA|
  00000	e92d4010	 stmdb       sp!, {r4, lr}
  00004		 |$M48265|
  00004	e1a02001	 mov         r2, r1

; 913  :     UINT8 *pAddress = NULL;
; 914  : 
; 915  :     //OALMSG(1, (L"+OEMMapMemAddr(0x%08x, 0x%08x)\r\n", image, address));
; 916  :     //OALMSG(1, (L"+OEMMapMemAddr(g_eboot.type = 0x%08x)\r\n", g_eboot.type));
; 917  :     
; 918  :     switch (g_eboot.type) {

  00008	e59f3088	 ldr         r3, [pc, #0x88]
  0000c	e3a04000	 mov         r4, #0
  00010	e5931004	 ldr         r1, [r3, #4]
  00014	e3510001	 cmp         r1, #1
  00018	0a000018	 beq         |$LN4@OEMMapMemA|
  0001c	e3510002	 cmp         r1, #2
  00020	9a000007	 bls         |$LN1@OEMMapMemA|
  00024	e3510004	 cmp         r1, #4
  00028	9a000010	 bls         |$LN5@OEMMapMemA|
  0002c	e3510006	 cmp         r1, #6
  00030	0a00000c	 beq         |$LN3@OEMMapMemA|
  00034	e3510007	 cmp         r1, #7
  00038	0a000008	 beq         |$LN2@OEMMapMemA|
  0003c	e3510008	 cmp         r1, #8
  00040	0a00000a	 beq         |$LN5@OEMMapMemA|
  00044		 |$LN1@OEMMapMemA|

; 940  : 		
; 941  : #ifdef IMGMULTIXIP
; 942  : 	case DOWNLOAD_TYPE_EXT:
; 943  :         pAddress = (UINT8*) (address);
; 944  :         break;
; 945  : #endif
; 946  : 
; 947  :     default:
; 948  :         OALMSG(OAL_ERROR, (L"ERROR: OEMMapMemAddr: " L"Invalid download type %d\r\n", g_eboot.type
; 949  :         ));

  00044	e59f3048	 ldr         r3, [pc, #0x48]
  00048	e5933440	 ldr         r3, [r3, #0x440]
  0004c	e3130001	 tst         r3, #1
  00050	0a00000b	 beq         |$LN11@OEMMapMemA|
  00054	e59f0034	 ldr         r0, [pc, #0x34]
  00058	eb000000	 bl          NKDbgPrintfW
  0005c	ea000008	 b           |$LN11@OEMMapMemA|
  00060		 |$LN2@OEMMapMemA|

; 936  : 
; 937  : 	case DOWNLOAD_TYPE_FLASHNOR:
; 938  :         pAddress = (UINT8*) (address - NOR_ROMOFFSET);

  00060	e2424206	 sub         r4, r2, #6, 4

; 939  :         break;

  00064	ea000006	 b           |$LN11@OEMMapMemA|
  00068		 |$LN3@OEMMapMemA|

; 931  :         break;
; 932  : 
; 933  :     case DOWNLOAD_TYPE_FLASHNAND:
; 934  :         pAddress = (UINT8*) (address - NAND_ROMOFFSET);

  00068	e2424101	 sub         r4, r2, #1, 2

; 935  :         break;

  0006c	ea000004	 b           |$LN11@OEMMapMemA|
  00070		 |$LN5@OEMMapMemA|

; 919  : 
; 920  :         
; 921  :     case DOWNLOAD_TYPE_XLDR: // 3
; 922  :     case DOWNLOAD_TYPE_EBOOT:   
; 923  : 	case DOWNLOAD_TYPE_LOGO:
; 924  :         //  Map to scratch RAM prior to flashing
; 925  :         pAddress = (UINT8*)g_eboot.region[0].base + (address - image);

  00070	e5933018	 ldr         r3, [r3, #0x18]
  00074	e0433000	 sub         r3, r3, r0
  00078	e0834002	 add         r4, r3, r2

; 926  :         break;

  0007c	ea000000	 b           |$LN11@OEMMapMemA|
  00080		 |$LN4@OEMMapMemA|

; 927  : 
; 928  :     case DOWNLOAD_TYPE_RAM: // 1
; 929  :         //  RAM based NK.BIN and EBOOT.BIN files are given in virtual memory addresses
; 930  :         pAddress = (UINT8*)address;

  00080	e1a04002	 mov         r4, r2
  00084		 |$LN11@OEMMapMemA|

; 950  : 
; 951  :     }
; 952  : 
; 953  :     //OALMSGS(1, (L"-OEMMapMemAddr(pAddress = 0x%08x)\r\n", pAddress));
; 954  :     return pAddress;
; 955  : }

  00084	e1a00004	 mov         r0, r4
  00088	e8bd4010	 ldmia       sp!, {r4, lr}
  0008c	e12fff1e	 bx          lr
  00090		 |$LN15@OEMMapMemA|
  00090		 |$LN16@OEMMapMemA|
  00090	00000000	 DCD         |??_C@_1GC@BMCFFGLH@?$AAE?$AAR?$AAR?$AAO?$AAR?$AA?3?$AA?5?$AAO?$AAE?$AAM?$AAM?$AAa?$AAp?$AAM?$AAe?$AAm?$AAA?$AAd?$AAd?$AAr?$AA?3?$AA?5?$AAI?$AAn?$AAv?$AAa?$AAl?$AAi?$AAd?$AA?5?$AAd?$AAo@|
  00094		 |$LN17@OEMMapMemA|
  00094	00000000	 DCD         |dpCurSettings|
  00098		 |$LN18@OEMMapMemA|
  00098	00000000	 DCD         |g_eboot|
  0009c		 |$M48266|

			 ENDP  ; |OEMMapMemAddr|

	EXPORT	|OEMIsFlashAddr|

  00000			 AREA	 |.pdata|, PDATA
|$T48282| DCD	|$LN9@OEMIsFlash|
	DCD	0x40000e00
; Function compile flags: /Ogspy

  00000			 AREA	 |.text|, CODE, ARM

  00000		 |OEMIsFlashAddr| PROC

; 968  : {

  00000		 |$LN9@OEMIsFlash|
  00000		 |$M48279|

; 969  :     BOOL rc;
; 970  : 
; 971  : 	UNREFERENCED_PARAMETER(address);
; 972  : 
; 973  :     //OALMSG(OAL_INFO, (L"+OEMIsFlashAddr(0x%08x)\r\n", address));
; 974  : 
; 975  :     // Depending on download type
; 976  :     switch (g_eboot.type)

  00000	e59f302c	 ldr         r3, [pc, #0x2C]
  00004	e5933004	 ldr         r3, [r3, #4]
  00008	e3530003	 cmp         r3, #3
  0000c	3a000006	 bcc         |$LN1@OEMIsFlash|
  00010	e3530004	 cmp         r3, #4
  00014	9a000002	 bls         |$LN2@OEMIsFlash|
  00018	e2433006	 sub         r3, r3, #6
  0001c	e3530003	 cmp         r3, #3
  00020	8a000001	 bhi         |$LN1@OEMIsFlash|
  00024		 |$LN2@OEMIsFlash|

; 977  :         {
; 978  :         case DOWNLOAD_TYPE_XLDR:
; 979  :         case DOWNLOAD_TYPE_EBOOT:
; 980  :         case DOWNLOAD_TYPE_LOGO:
; 981  :         case DOWNLOAD_TYPE_FLASHNAND:
; 982  :         case DOWNLOAD_TYPE_FLASHNOR:
; 983  :         case DOWNLOAD_TYPE_EXT:
; 984  :             rc = TRUE;

  00024	e3a00001	 mov         r0, #1

; 988  :             break;
; 989  :         }
; 990  : 
; 991  :     //OALMSG(OAL_INFO, (L"-OEMIsFlashAddr(rc = %d)\r\n", rc));
; 992  :     return rc;
; 993  : }

  00028	e12fff1e	 bx          lr
  0002c		 |$LN1@OEMIsFlash|

; 985  :             break;
; 986  :         default:
; 987  :             rc = FALSE;

  0002c	e3a00000	 mov         r0, #0

; 988  :             break;
; 989  :         }
; 990  : 
; 991  :     //OALMSG(OAL_INFO, (L"-OEMIsFlashAddr(rc = %d)\r\n", rc));
; 992  :     return rc;
; 993  : }

  00030	e12fff1e	 bx          lr
  00034		 |$LN10@OEMIsFlash|
  00034		 |$LN11@OEMIsFlash|
  00034	00000000	 DCD         |g_eboot|
  00038		 |$M48280|

			 ENDP  ; |OEMIsFlashAddr|

	EXPORT	|OEMReadData|
	IMPORT	|BLEthReadData|
	IMPORT	|BLSDCardReadData|

  00000			 AREA	 |.pdata|, PDATA
|$T48296| DCD	|$LN9@OEMReadDat|
	DCD	0x40001201
; Function compile flags: /Ogspy

  00000			 AREA	 |.text|, CODE, ARM

  00000		 |OEMReadData| PROC

; 1003 : {

  00000		 |$LN9@OEMReadDat|
  00000	e52de004	 str         lr, [sp, #-4]!
  00004		 |$M48293|
  00004	e1a02000	 mov         r2, r0

; 1004 :     BOOL rc = FALSE;
; 1005 :     switch (g_eboot.bootDeviceType)

  00008	e59f3034	 ldr         r3, [pc, #0x34]
  0000c	e3a00000	 mov         r0, #0
  00010	e5933000	 ldr         r3, [r3]
  00014	e3530002	 cmp         r3, #2
  00018	0a000005	 beq         |$LN1@OEMReadDat|
  0001c	e3530004	 cmp         r3, #4
  00020	1a000005	 bne         |$LN3@OEMReadDat|

; 1006 :         {
; 1007 :         #if BUILDING_EBOOT_SD
; 1008 :         case BOOT_SDCARD_TYPE: // 4
; 1009 :         	//OALMSG(1, (L"OEMReadData(size = 0x%x, pData = 0x%x)\r\n", size, pData));
; 1010 :             rc = BLSDCardReadData(size, pData);

  00024	e1a00002	 mov         r0, r2
  00028	eb000000	 bl          BLSDCardReadData

; 1015 :             break;
; 1016 :         }
; 1017 :     return rc;
; 1018 : }

  0002c	e49de004	 ldr         lr, [sp], #4
  00030	e12fff1e	 bx          lr
  00034		 |$LN1@OEMReadDat|

; 1011 :             break;
; 1012 :         #endif
; 1013 :         case OAL_KITL_TYPE_ETH: // 2
; 1014 :             rc = BLEthReadData(size, pData);

  00034	e1a00002	 mov         r0, r2
  00038	eb000000	 bl          BLEthReadData
  0003c		 |$LN3@OEMReadDat|

; 1015 :             break;
; 1016 :         }
; 1017 :     return rc;
; 1018 : }

  0003c	e49de004	 ldr         lr, [sp], #4
  00040	e12fff1e	 bx          lr
  00044		 |$LN10@OEMReadDat|
  00044		 |$LN11@OEMReadDat|
  00044	00000000	 DCD         |g_eboot|
  00048		 |$M48294|

			 ENDP  ; |OEMReadData|

	EXPORT	|OEMShowProgress|
	EXPORT	|??_C@_13JOFGPIOO@?$AA?4?$AA?$AA@| [ DATA ] ; `string'

  00000			 AREA	 |.pdata|, PDATA
|$T48305| DCD	|$LN5@OEMShowPro@2|
	DCD	0x40000601

  00000			 AREA	 |.rdata|, DATA, READONLY
|??_C@_13JOFGPIOO@?$AA?4?$AA?$AA@| DCB ".", 0x0, 0x0, 0x0 ; `string'
; Function compile flags: /Ogspy

  00000			 AREA	 |.text|, CODE, ARM

  00000		 |OEMShowProgress| PROC

; 1028 : {

  00000		 |$LN5@OEMShowPro@2|
  00000	e52de004	 str         lr, [sp, #-4]!
  00004		 |$M48302|

; 1029 :     UNREFERENCED_PARAMETER(packetNumber);
; 1030 :     RETAILMSG(1,(TEXT(".")));

  00004	e59f0008	 ldr         r0, [pc, #8]
  00008	eb000000	 bl          NKDbgPrintfW

; 1031 : }

  0000c	e49de004	 ldr         lr, [sp], #4
  00010	e12fff1e	 bx          lr
  00014		 |$LN6@OEMShowPro@2|
  00014		 |$LN7@OEMShowPro@2|
  00014	00000000	 DCD         |??_C@_13JOFGPIOO@?$AA?4?$AA?$AA@|
  00018		 |$M48303|

			 ENDP  ; |OEMShowProgress|

	EXPORT	|OALGetTickCount|

  00000			 AREA	 |.pdata|, PDATA
|$T48317| DCD	|$LN5@OALGetTick|
	DCD	0x40000901
; Function compile flags: /Ogspy

  00000			 AREA	 |.text|, CODE, ARM

  00000		 |OALGetTickCount| PROC

; 1038 : {

  00000		 |$LN5@OALGetTick|
  00000	e52de004	 str         lr, [sp, #-4]!
  00004		 |$M48314|
  00004	e3a03312	 mov         r3, #0x12, 6

; 1039 :     OMAP_GPTIMER_REGS *pGPTimerRegs = OALPAtoUA(OMAP_GPTIMER1_REGS_PA);

  00008	e38309c6	 orr         r0, r3, #0xC6, 18
  0000c	e3a01000	 mov         r1, #0
  00010	eb000000	 bl          OALPAtoVA

; 1040 :     return INREG32(&pGPTimerRegs->TCRR) >> 5;

  00014	e5903028	 ldr         r3, [r0, #0x28]
  00018	e1a002a3	 mov         r0, r3, lsr #5

; 1041 : }

  0001c	e49de004	 ldr         lr, [sp], #4
  00020	e12fff1e	 bx          lr
  00024		 |$M48315|

			 ENDP  ; |OALGetTickCount|

	EXPORT	|OEMKitlGetSecs|

  00000			 AREA	 |.pdata|, PDATA
|$T48331| DCD	|$LN7@OEMKitlGet|
	DCD	0x40000d01
; Function compile flags: /Ogspy

  00000			 AREA	 |.text|, CODE, ARM

  00000		 |OEMKitlGetSecs| PROC

; 1050 : {

  00000		 |$LN7@OEMKitlGet|
  00000	e52de004	 str         lr, [sp, #-4]!
  00004		 |$M48328|
  00004	e3a03312	 mov         r3, #0x12, 6

; 1051 :     return OALGetTickCount()/1000;

  00008	e38309c6	 orr         r0, r3, #0xC6, 18
  0000c	e3a01000	 mov         r1, #0
  00010	eb000000	 bl          OALPAtoVA
  00014	e5903028	 ldr         r3, [r0, #0x28]
  00018	e59f2010	 ldr         r2, [pc, #0x10]
  0001c	e1a012a3	 mov         r1, r3, lsr #5
  00020	e0823291	 umull       r3, r2, r1, r2
  00024	e1a00322	 mov         r0, r2, lsr #6

; 1052 : }

  00028	e49de004	 ldr         lr, [sp], #4
  0002c	e12fff1e	 bx          lr
  00030		 |$LN8@OEMKitlGet|
  00030		 |$LN9@OEMKitlGet|
  00030	10624dd3	 DCD         0x10624dd3
  00034		 |$M48329|

			 ENDP  ; |OEMKitlGetSecs|

	EXPORT	|GetDisplayResolutionFromBootArgs|

  00000			 AREA	 |.pdata|, PDATA
|$T48341| DCD	|$LN5@GetDisplay|
	DCD	0x40000500
; Function compile flags: /Ogspy

  00000			 AREA	 |.text|, CODE, ARM

  00000		 |GetDisplayResolutionFromBootArgs| PROC

; 1055 : {

  00000		 |$LN5@GetDisplay|
  00000		 |$M48338|

; 1056 :     *pDispRes=g_bootCfg.displayRes;

  00000	e59f3008	 ldr         r3, [pc, #8]
  00004	e593307c	 ldr         r3, [r3, #0x7C]
  00008	e5803000	 str         r3, [r0]

; 1057 : }

  0000c	e12fff1e	 bx          lr
  00010		 |$LN6@GetDisplay|
  00010		 |$LN7@GetDisplay|
  00010	00000000	 DCD         |g_bootCfg|
  00014		 |$M48339|

			 ENDP  ; |GetDisplayResolutionFromBootArgs|

	EXPORT	|IsDVIMode|

  00000			 AREA	 |.pdata|, PDATA
|$T48352| DCD	|$LN5@IsDVIMode|
	DCD	0x40000200
; Function compile flags: /Ogspy

  00000			 AREA	 |.text|, CODE, ARM

  00000		 |IsDVIMode| PROC

; 1060 : {

  00000		 |$LN5@IsDVIMode|
  00000		 |$M48349|

; 1061 :     /*DWORD dispRes;    
; 1062 :     GetDisplayResolutionFromBootArgs(&dispRes);
; 1063 :     if (dispRes==OMAP_LCD_DEFAULT)*/
; 1064 : 	return FALSE;

  00000	e3a00000	 mov         r0, #0

; 1065 :     //else
; 1066 : 	//return TRUE;        
; 1067 : }

  00004	e12fff1e	 bx          lr
  00008		 |$M48350|

			 ENDP  ; |IsDVIMode|

	EXPORT	|ConvertCAtoPA|

  00000			 AREA	 |.pdata|, PDATA
|$T48362| DCD	|$LN5@ConvertCAt|
	DCD	0x40000401
; Function compile flags: /Ogspy

  00000			 AREA	 |.text|, CODE, ARM

  00000		 |ConvertCAtoPA| PROC

; 1070 : {   

  00000		 |$LN5@ConvertCAt|
  00000	e52de004	 str         lr, [sp, #-4]!
  00004		 |$M48359|

; 1071 :     return OALVAtoPA(va);

  00004	eb000000	 bl          OALVAtoPA

; 1072 : }

  00008	e49de004	 ldr         lr, [sp], #4
  0000c	e12fff1e	 bx          lr
  00010		 |$M48360|

			 ENDP  ; |ConvertCAtoPA|

	EXPORT	|OEMPreDownload|
	EXPORT	|??_C@_1CM@LKNPOFLB@?$AAb?$AAo?$AAo?$AAt?$AAD?$AAe?$AAv?$AAi?$AAc?$AAe?$AAT?$AAy?$AAp?$AAe?$AA?5?$AA?$DN?$AA?5?$AA?$CF?$AAd?$AA?$AN?$AA?6?$AA?$AA@| [ DATA ] ; `string'
	EXPORT	|??_C@_1CI@OKDMPKNO@?$AAL?$AAo?$AAg?$AAi?$AAc?$AAa?$AAl?$AAL?$AAo?$AAc?$AA?5?$AA?$DN?$AA?5?$AA0?$AAx?$AA?$CF?$AAx?$AA?$AN?$AA?6?$AA?$AA@| [ DATA ] ; `string'
	EXPORT	|??_C@_1DO@OPINKPO@?$AAI?$AAn?$AAi?$AAt?$AAi?$AAa?$AAl?$AAi?$AAz?$AAe?$AA?5?$AAs?$AAh?$AAa?$AAr?$AAe?$AA?5?$AAA?$AAR?$AAG?$AAS?$AA?5?$AA?9?$AA?5?$AA0?$AAx?$AA?$CF?$AAx?$AA?$AN?$AA?6?$AA?$AA@| [ DATA ] ; `string'
	EXPORT	|??_C@_1KM@MLNPCLLF@?$AA?$AN?$AA?6?$AA?$DO?$AA?$DO?$AA?$DO?$AA?5?$AAF?$AAo?$AAr?$AAc?$AAi?$AAn?$AAg?$AA?5?$AAc?$AAo?$AAl?$AAd?$AA?5?$AAb?$AAo?$AAo?$AAt?$AA?5?$AA?$CI?$AAn?$AAo?$AAn?$AA?9?$AAp?$AAe?$AAr@| [ DATA ] ; `string'
	EXPORT	|??_C@_1EA@EAGALJIK@?$AA?$AN?$AA?$DO?$AA?$DO?$AA?$DO?$AA?5?$AAN?$AAo?$AAw?$AA?5?$AAe?$AAn?$AAt?$AAr?$AAy?$AA?5?$AAc?$AAo?$AAl?$AAd?$AA?9?$AAr?$AAe?$AAs?$AAe?$AAt?$AA?4?$AA?4?$AA?4?$AA?5?$AA?$AN?$AA?6?$AA?$AA@| [ DATA ] ; `string'
	EXPORT	|??_C@_1EA@JAEGLKFM@?$AA?$AN?$AA?$DO?$AA?$DO?$AA?$DO?$AA?5?$AAN?$AAo?$AAw?$AA?5?$AAe?$AAn?$AAt?$AAr?$AAy?$AA?5?$AAw?$AAa?$AAr?$AAm?$AA?9?$AAr?$AAe?$AAs?$AAe?$AAt?$AA?4?$AA?4?$AA?4?$AA?5?$AA?$AN?$AA?6?$AA?$AA@| [ DATA ] ; `string'
	EXPORT	|??_C@_1DE@IDJEJNKG@?$AAC?$AAl?$AAe?$AAa?$AAr?$AA?5?$AAs?$AAh?$AAa?$AAr?$AAe?$AA?5?$AAA?$AAR?$AAG?$AAS?$AA?5?$AA?9?$AA?5?$AA0?$AAx?$AA?$CF?$AAx?$AA?$AN?$AA?6?$AA?$AA@| [ DATA ] ; `string'
	EXPORT	|??_C@_11LOCGONAA@?$AA?$AA@| [ DATA ]	; `string'
	EXPORT	|??_C@_1O@HJKNOJA@?$AAn?$AAk?$AA?4?$AAb?$AAi?$AAn?$AA?$AA@| [ DATA ] ; `string'
	EXPORT	|??_C@_1EC@IFKCAMGN@?$AAI?$AAN?$AAF?$AAO?$AA?3?$AA?5?$AAS?$AAW?$AA4?$AA?5?$AAb?$AAo?$AAo?$AAt?$AA?5?$AAs?$AAe?$AAt?$AAt?$AAi?$AAn?$AAg?$AA?3?$AA?5?$AA0?$AAx?$AA?$CF?$AA0?$AA2?$AAx?$AA?$AN?$AA?6@| [ DATA ] ; `string'
	EXPORT	|??_C@_1GC@MEIINOMM@?$AAW?$AAA?$AAR?$AAN?$AA?3?$AA?5?$AAB?$AAo?$AAo?$AAt?$AA?5?$AAc?$AAo?$AAn?$AAf?$AAi?$AAg?$AA?5?$AAw?$AAa?$AAs?$AAn?$AA?8?$AAt?$AA?5?$AAf?$AAo?$AAu?$AAn?$AAd?$AA?0?$AA?5@| [ DATA ] ; `string'
	EXPORT	|??_C@_1EC@IBPJNEAL@?$AAI?$AAN?$AAF?$AAO?$AA?3?$AA?5?$AAB?$AAo?$AAo?$AAt?$AA?5?$AAc?$AAo?$AAn?$AAf?$AAi?$AAg?$AAu?$AAr?$AAa?$AAt?$AAi?$AAo?$AAn?$AA?5?$AAf?$AAo?$AAu?$AAn?$AAd?$AA?$AN?$AA?6@| [ DATA ] ; `string'
	IMPORT	|BLFlashDownload|
	IMPORT	|BLSDCardDownload|
	IMPORT	|BLMenu|
	IMPORT	|HotKeyColdReset|
	IMPORT	|BLConfigureFlashPartitions|
	IMPORT	|BLReadBootCfg|
	IMPORT	|BLShowLogo|
	IMPORT	|BLReserveBootBlocks|
	IMPORT	|g_pOEMMultiBINNotify|
	IMPORT	|wcscpy|
	IMPORT	|memcpy|

  00000			 AREA	 |.pdata|, PDATA
|$T48416| DCD	|$LN64@OEMPreDown|
	DCD	0x4000fb01

  00000			 AREA	 |.rdata|, DATA, READONLY
|??_C@_1CM@LKNPOFLB@?$AAb?$AAo?$AAo?$AAt?$AAD?$AAe?$AAv?$AAi?$AAc?$AAe?$AAT?$AAy?$AAp?$AAe?$AA?5?$AA?$DN?$AA?5?$AA?$CF?$AAd?$AA?$AN?$AA?6?$AA?$AA@| DCB "b"
	DCB	0x0, "o", 0x0, "o", 0x0, "t", 0x0, "D", 0x0, "e", 0x0, "v"
	DCB	0x0, "i", 0x0, "c", 0x0, "e", 0x0, "T", 0x0, "y", 0x0, "p"
	DCB	0x0, "e", 0x0, " ", 0x0, "=", 0x0, " ", 0x0, "%", 0x0, "d"
	DCB	0x0, 0xd, 0x0, 0xa, 0x0, 0x0, 0x0	; `string'

  00000			 AREA	 |.rdata|, DATA, READONLY
|??_C@_1CI@OKDMPKNO@?$AAL?$AAo?$AAg?$AAi?$AAc?$AAa?$AAl?$AAL?$AAo?$AAc?$AA?5?$AA?$DN?$AA?5?$AA0?$AAx?$AA?$CF?$AAx?$AA?$AN?$AA?6?$AA?$AA@| DCB "L"
	DCB	0x0, "o", 0x0, "g", 0x0, "i", 0x0, "c", 0x0, "a", 0x0, "l"
	DCB	0x0, "L", 0x0, "o", 0x0, "c", 0x0, " ", 0x0, "=", 0x0, " "
	DCB	0x0, "0", 0x0, "x", 0x0, "%", 0x0, "x", 0x0, 0xd, 0x0, 0xa
	DCB	0x0, 0x0, 0x0				; `string'

  00000			 AREA	 |.rdata|, DATA, READONLY
|??_C@_1DO@OPINKPO@?$AAI?$AAn?$AAi?$AAt?$AAi?$AAa?$AAl?$AAi?$AAz?$AAe?$AA?5?$AAs?$AAh?$AAa?$AAr?$AAe?$AA?5?$AAA?$AAR?$AAG?$AAS?$AA?5?$AA?9?$AA?5?$AA0?$AAx?$AA?$CF?$AAx?$AA?$AN?$AA?6?$AA?$AA@| DCB "I"
	DCB	0x0, "n", 0x0, "i", 0x0, "t", 0x0, "i", 0x0, "a", 0x0, "l"
	DCB	0x0, "i", 0x0, "z", 0x0, "e", 0x0, " ", 0x0, "s", 0x0, "h"
	DCB	0x0, "a", 0x0, "r", 0x0, "e", 0x0, " ", 0x0, "A", 0x0, "R"
	DCB	0x0, "G", 0x0, "S", 0x0, " ", 0x0, "-", 0x0, " ", 0x0, "0"
	DCB	0x0, "x", 0x0, "%", 0x0, "x", 0x0, 0xd, 0x0, 0xa, 0x0, 0x0
	DCB	0x0					; `string'

  00000			 AREA	 |.rdata|, DATA, READONLY
|??_C@_1KM@MLNPCLLF@?$AA?$AN?$AA?6?$AA?$DO?$AA?$DO?$AA?$DO?$AA?5?$AAF?$AAo?$AAr?$AAc?$AAi?$AAn?$AAg?$AA?5?$AAc?$AAo?$AAl?$AAd?$AA?5?$AAb?$AAo?$AAo?$AAt?$AA?5?$AA?$CI?$AAn?$AAo?$AAn?$AA?9?$AAp?$AAe?$AAr@| DCB 0xd
	DCB	0x0, 0xa, 0x0, ">", 0x0, ">", 0x0, ">", 0x0, " ", 0x0, "F"
	DCB	0x0, "o", 0x0, "r", 0x0, "c", 0x0, "i", 0x0, "n", 0x0, "g"
	DCB	0x0, " ", 0x0, "c", 0x0, "o", 0x0, "l", 0x0, "d", 0x0, " "
	DCB	0x0, "b", 0x0, "o", 0x0, "o", 0x0, "t", 0x0, " ", 0x0, "("
	DCB	0x0, "n", 0x0, "o", 0x0, "n", 0x0, "-", 0x0, "p", 0x0, "e"
	DCB	0x0, "r", 0x0, "s", 0x0, "i", 0x0, "s", 0x0, "t", 0x0, "e"
	DCB	0x0, "n", 0x0, "t", 0x0, " ", 0x0, "r", 0x0, "e", 0x0, "g"
	DCB	0x0, "i", 0x0, "s", 0x0, "t", 0x0, "r", 0x0, "y", 0x0, " "
	DCB	0x0, "a", 0x0, "n", 0x0, "d", 0x0, " ", 0x0, "o", 0x0, "t"
	DCB	0x0, "h", 0x0, "e", 0x0, "r", 0x0, " ", 0x0, "d", 0x0, "a"
	DCB	0x0, "t", 0x0, "a", 0x0, " ", 0x0, "w", 0x0, "i", 0x0, "l"
	DCB	0x0, "l", 0x0, " ", 0x0, "b", 0x0, "e", 0x0, " ", 0x0, "w"
	DCB	0x0, "i", 0x0, "p", 0x0, "e", 0x0, "d", 0x0, ")", 0x0, " "
	DCB	0x0, "<", 0x0, "<", 0x0, "<", 0x0, " ", 0x0, 0xd, 0x0, 0xa
	DCB	0x0, 0x0, 0x0				; `string'

  00000			 AREA	 |.rdata|, DATA, READONLY
|??_C@_1EA@EAGALJIK@?$AA?$AN?$AA?$DO?$AA?$DO?$AA?$DO?$AA?5?$AAN?$AAo?$AAw?$AA?5?$AAe?$AAn?$AAt?$AAr?$AAy?$AA?5?$AAc?$AAo?$AAl?$AAd?$AA?9?$AAr?$AAe?$AAs?$AAe?$AAt?$AA?4?$AA?4?$AA?4?$AA?5?$AA?$AN?$AA?6?$AA?$AA@| DCB 0xd
	DCB	0x0, ">", 0x0, ">", 0x0, ">", 0x0, " ", 0x0, "N", 0x0, "o"
	DCB	0x0, "w", 0x0, " ", 0x0, "e", 0x0, "n", 0x0, "t", 0x0, "r"
	DCB	0x0, "y", 0x0, " ", 0x0, "c", 0x0, "o", 0x0, "l", 0x0, "d"
	DCB	0x0, "-", 0x0, "r", 0x0, "e", 0x0, "s", 0x0, "e", 0x0, "t"
	DCB	0x0, ".", 0x0, ".", 0x0, ".", 0x0, " ", 0x0, 0xd, 0x0, 0xa
	DCB	0x0, 0x0, 0x0				; `string'

  00000			 AREA	 |.rdata|, DATA, READONLY
|??_C@_1EA@JAEGLKFM@?$AA?$AN?$AA?$DO?$AA?$DO?$AA?$DO?$AA?5?$AAN?$AAo?$AAw?$AA?5?$AAe?$AAn?$AAt?$AAr?$AAy?$AA?5?$AAw?$AAa?$AAr?$AAm?$AA?9?$AAr?$AAe?$AAs?$AAe?$AAt?$AA?4?$AA?4?$AA?4?$AA?5?$AA?$AN?$AA?6?$AA?$AA@| DCB 0xd
	DCB	0x0, ">", 0x0, ">", 0x0, ">", 0x0, " ", 0x0, "N", 0x0, "o"
	DCB	0x0, "w", 0x0, " ", 0x0, "e", 0x0, "n", 0x0, "t", 0x0, "r"
	DCB	0x0, "y", 0x0, " ", 0x0, "w", 0x0, "a", 0x0, "r", 0x0, "m"
	DCB	0x0, "-", 0x0, "r", 0x0, "e", 0x0, "s", 0x0, "e", 0x0, "t"
	DCB	0x0, ".", 0x0, ".", 0x0, ".", 0x0, " ", 0x0, 0xd, 0x0, 0xa
	DCB	0x0, 0x0, 0x0				; `string'

  00000			 AREA	 |.rdata|, DATA, READONLY
|??_C@_1DE@IDJEJNKG@?$AAC?$AAl?$AAe?$AAa?$AAr?$AA?5?$AAs?$AAh?$AAa?$AAr?$AAe?$AA?5?$AAA?$AAR?$AAG?$AAS?$AA?5?$AA?9?$AA?5?$AA0?$AAx?$AA?$CF?$AAx?$AA?$AN?$AA?6?$AA?$AA@| DCB "C"
	DCB	0x0, "l", 0x0, "e", 0x0, "a", 0x0, "r", 0x0, " ", 0x0, "s"
	DCB	0x0, "h", 0x0, "a", 0x0, "r", 0x0, "e", 0x0, " ", 0x0, "A"
	DCB	0x0, "R", 0x0, "G", 0x0, "S", 0x0, " ", 0x0, "-", 0x0, " "
	DCB	0x0, "0", 0x0, "x", 0x0, "%", 0x0, "x", 0x0, 0xd, 0x0, 0xa
	DCB	0x0, 0x0, 0x0				; `string'

  00000			 AREA	 |.rdata|, DATA, READONLY
|??_C@_11LOCGONAA@?$AA?$AA@| DCB 0x0, 0x0		; `string'

  00000			 AREA	 |.rdata|, DATA, READONLY
|??_C@_1O@HJKNOJA@?$AAn?$AAk?$AA?4?$AAb?$AAi?$AAn?$AA?$AA@| DCB "n", 0x0, "k"
	DCB	0x0, ".", 0x0, "b", 0x0, "i", 0x0, "n", 0x0, 0x0, 0x0 ; `string'

  00000			 AREA	 |.rdata|, DATA, READONLY
|??_C@_1EC@IFKCAMGN@?$AAI?$AAN?$AAF?$AAO?$AA?3?$AA?5?$AAS?$AAW?$AA4?$AA?5?$AAb?$AAo?$AAo?$AAt?$AA?5?$AAs?$AAe?$AAt?$AAt?$AAi?$AAn?$AAg?$AA?3?$AA?5?$AA0?$AAx?$AA?$CF?$AA0?$AA2?$AAx?$AA?$AN?$AA?6@| DCB "I"
	DCB	0x0, "N", 0x0, "F", 0x0, "O", 0x0, ":", 0x0, " ", 0x0, "S"
	DCB	0x0, "W", 0x0, "4", 0x0, " ", 0x0, "b", 0x0, "o", 0x0, "o"
	DCB	0x0, "t", 0x0, " ", 0x0, "s", 0x0, "e", 0x0, "t", 0x0, "t"
	DCB	0x0, "i", 0x0, "n", 0x0, "g", 0x0, ":", 0x0, " ", 0x0, "0"
	DCB	0x0, "x", 0x0, "%", 0x0, "0", 0x0, "2", 0x0, "x", 0x0, 0xd
	DCB	0x0, 0xa, 0x0, 0x0, 0x0			; `string'

  00000			 AREA	 |.rdata|, DATA, READONLY
|??_C@_1GC@MEIINOMM@?$AAW?$AAA?$AAR?$AAN?$AA?3?$AA?5?$AAB?$AAo?$AAo?$AAt?$AA?5?$AAc?$AAo?$AAn?$AAf?$AAi?$AAg?$AA?5?$AAw?$AAa?$AAs?$AAn?$AA?8?$AAt?$AA?5?$AAf?$AAo?$AAu?$AAn?$AAd?$AA?0?$AA?5@| DCB "W"
	DCB	0x0, "A", 0x0, "R", 0x0, "N", 0x0, ":", 0x0, " ", 0x0, "B"
	DCB	0x0, "o", 0x0, "o", 0x0, "t", 0x0, " ", 0x0, "c", 0x0, "o"
	DCB	0x0, "n", 0x0, "f", 0x0, "i", 0x0, "g", 0x0, " ", 0x0, "w"
	DCB	0x0, "a", 0x0, "s", 0x0, "n", 0x0, "'", 0x0, "t", 0x0, " "
	DCB	0x0, "f", 0x0, "o", 0x0, "u", 0x0, "n", 0x0, "d", 0x0, ","
	DCB	0x0, " ", 0x0, "u", 0x0, "s", 0x0, "i", 0x0, "n", 0x0, "g"
	DCB	0x0, " ", 0x0, "d", 0x0, "e", 0x0, "f", 0x0, "a", 0x0, "u"
	DCB	0x0, "l", 0x0, "t", 0x0, "s", 0x0, 0xd, 0x0, 0xa, 0x0, 0x0
	DCB	0x0					; `string'

  00000			 AREA	 |.rdata|, DATA, READONLY
|??_C@_1EC@IBPJNEAL@?$AAI?$AAN?$AAF?$AAO?$AA?3?$AA?5?$AAB?$AAo?$AAo?$AAt?$AA?5?$AAc?$AAo?$AAn?$AAf?$AAi?$AAg?$AAu?$AAr?$AAa?$AAt?$AAi?$AAo?$AAn?$AA?5?$AAf?$AAo?$AAu?$AAn?$AAd?$AA?$AN?$AA?6@| DCB "I"
	DCB	0x0, "N", 0x0, "F", 0x0, "O", 0x0, ":", 0x0, " ", 0x0, "B"
	DCB	0x0, "o", 0x0, "o", 0x0, "t", 0x0, " ", 0x0, "c", 0x0, "o"
	DCB	0x0, "n", 0x0, "f", 0x0, "i", 0x0, "g", 0x0, "u", 0x0, "r"
	DCB	0x0, "a", 0x0, "t", 0x0, "i", 0x0, "o", 0x0, "n", 0x0, " "
	DCB	0x0, "f", 0x0, "o", 0x0, "u", 0x0, "n", 0x0, "d", 0x0, 0xd
	DCB	0x0, 0xa, 0x0, 0x0, 0x0			; `string'
; Function compile flags: /Ogspy

  00000			 AREA	 |.text|, CODE, ARM

  00000		 |OEMPreDownload| PROC

; 402  : {

  00000		 |$LN64@OEMPreDown|
  00000	e92d4ff0	 stmdb       sp!, {r4 - r11, lr}
  00004		 |$M48413|

; 403  :     ULONG rc = (ULONG) BL_ERROR;
; 404  :     BSP_ARGS *pArgs = OALCAtoUA(IMAGE_SHARE_ARGS_CA);
; 405  :     BOOL bForceBootMenu;
; 406  :     OMAP_PRCM_GLOBAL_PRM_REGS * pPrmGlobal = OALPAtoUA(OMAP_PRCM_GLOBAL_PRM_REGS_PA);

  00004	e59f03dc	 ldr         r0, [pc, #0x3DC]
  00008	e3a01000	 mov         r1, #0
  0000c	e3a0a20a	 mov         r10, #0xA, 4
  00010	eb000000	 bl          OALPAtoVA
  00014	e1a08000	 mov         r8, r0

; 407  :     ULONG dwTemp;
; 408  :     UINT32 *pStatusControlAddr = OALPAtoUA(OMAP_STATUS_CONTROL_REGS_PA);

  00018	e59f03c4	 ldr         r0, [pc, #0x3C4]
  0001c	e3a01000	 mov         r1, #0
  00020	eb000000	 bl          OALPAtoVA

; 409  :     UINT32 dwSysBootCfg;
; 410  : #ifdef BUILDING_EBOOT_SD    
; 411  : 	//BYTE CalibBuffer[CALIBRATE_SIZE];
; 412  : #endif
; 413  : 
; 414  :     //OALLog(L"INFO: Predownload....%d...\r\n",sizeof(BSP_ARGS));
; 415  : 
; 416  :     // We need to support multi bin notify
; 417  :     g_pOEMMultiBINNotify = OEMMultiBinNotify;

  00024	e59f23b4	 ldr         r2, [pc, #0x3B4]
  00028	e59f33ac	 ldr         r3, [pc, #0x3AC]
  0002c	e1a07000	 mov         r7, r0
  00030	e5823000	 str         r3, [r2]

; 418  : 
; 419  :     // Ensure bootloader blocks are marked as reserved
; 420  : #ifdef BUILDING_EBOOT_SD // brian    
; 421  :     BLReserveBootBlocks(); // brian

  00034	eb000000	 bl          BLReserveBootBlocks

; 422  : #endif
; 423  : 	
; 424  : 	BLShowLogo(); // brian 

  00038	eb000000	 bl          BLShowLogo

; 425  : 	
; 426  :     // Read saved configration      //Bootstrap message(LCD init after), Ray
; 427  :     if (BLReadBootCfg(&g_bootCfg) &&
; 428  :         (g_bootCfg.signature == BOOT_CFG_SIGNATURE) && (g_bootCfg.version == BOOT_CFG_VERSION))

  0003c	e59f4394	 ldr         r4, [pc, #0x394]
  00040	e1a00004	 mov         r0, r4
  00044	eb000000	 bl          BLReadBootCfg
  00048	e59f6384	 ldr         r6, [pc, #0x384]
  0004c	e59f937c	 ldr         r9, [pc, #0x37C]
  00050	e59f5374	 ldr         r5, [pc, #0x374]
  00054	e3500000	 cmp         r0, #0
  00058	0a000008	 beq         |$LN23@OEMPreDown|
  0005c	e5943000	 ldr         r3, [r4]
  00060	e1530005	 cmp         r3, r5
  00064	1a000005	 bne         |$LN23@OEMPreDown|
  00068	e5943004	 ldr         r3, [r4, #4]
  0006c	e3530002	 cmp         r3, #2
  00070	1a000002	 bne         |$LN23@OEMPreDown|

; 429  : 	{
; 430  :         OALLog(L"INFO: Boot configuration found\r\n");

  00074	e59f034c	 ldr         r0, [pc, #0x34C]
  00078	eb000000	 bl          NKDbgPrintfW

; 431  : 	}
; 432  :     else 

  0007c	ea000054	 b           |$LN22@OEMPreDown|
  00080		 |$LN23@OEMPreDown|

; 433  : 	{
; 434  :         OALLog(L"WARN: Boot config wasn't found, using defaults\r\n");

  00080	e59f033c	 ldr         r0, [pc, #0x33C]
  00084	eb000000	 bl          NKDbgPrintfW

; 435  :         memset(&g_bootCfg, 0, sizeof(g_bootCfg));

  00088	e3a0208c	 mov         r2, #0x8C
  0008c	e3a01000	 mov         r1, #0
  00090	e1a00004	 mov         r0, r4
  00094	eb000000	 bl          memset

; 436  : 		memcpy(&g_bootCfg.mac,DefaultMacAddress,sizeof(g_bootCfg.mac));

  00098	e2891048	 add         r1, r9, #0x48
  0009c	e2840076	 add         r0, r4, #0x76
  000a0	e3a02006	 mov         r2, #6
  000a4	eb000000	 bl          memcpy

; 437  :         g_bootCfg.signature = BOOT_CFG_SIGNATURE;
; 438  :         g_bootCfg.version = BOOT_CFG_VERSION;
; 439  : 
; 440  :         g_bootCfg.oalFlags = 0;
; 441  :         g_bootCfg.flashNKFlags = 0;
; 442  :         g_bootCfg.ECCtype =  (UCHAR)dwEbootECCtype;

  000a8	e59f3310	 ldr         r3, [pc, #0x310]
  000ac	e3a01002	 mov         r1, #2

; 443  :         // To make it easier to select USB or EBOOT from menus when booting from SD card,
; 444  :         // preset the kitlFlags. This has no effect if booting from SD card.
; 445  :         g_bootCfg.kitlFlags = OAL_KITL_FLAGS_DHCP|OAL_KITL_FLAGS_ENABLED;
; 446  :         g_bootCfg.kitlFlags |= OAL_KITL_FLAGS_VMINI;
; 447  :         g_bootCfg.kitlFlags |= OAL_KITL_FLAGS_EXTNAME;
; 448  : 
; 449  :         //g_bootCfg.displayRes = OMAP_LCD_DEFAULT;
; 450  : 
; 451  :         
; 452  :         if(g_CPUFamily == CPU_FAMILY_DM37XX)

  000b0	e5845000	 str         r5, [r4]
  000b4	e5933000	 ldr         r3, [r3]
  000b8	e5962004	 ldr         r2, [r6, #4]
  000bc	e3a00000	 mov         r0, #0
  000c0	e5841004	 str         r1, [r4, #4]
  000c4	e3a01000	 mov         r1, #0
  000c8	e5840034	 str         r0, [r4, #0x34]
  000cc	e5841080	 str         r1, [r4, #0x80]
  000d0	e5c43084	 strb        r3, [r4, #0x84]
  000d4	e3a0302d	 mov         r3, #0x2D
  000d8	e3520001	 cmp         r2, #1
  000dc	e5843030	 str         r3, [r4, #0x30]

; 453  :         {
; 454  :             g_bootCfg.opp_mode = BSP_OPM_SELECT_37XX-1;

  000e0	03a03003	 moveq       r3, #3

; 455  :         }
; 456  :         else
; 457  :         {
; 458  :             g_bootCfg.opp_mode = BSP_OPM_SELECT_35XX-1;

  000e4	13a03004	 movne       r3, #4
  000e8	e5843088	 str         r3, [r4, #0x88]

; 459  :         }
; 460  :         // select default boot device based on boot select switch setting
; 461  :         dwSysBootCfg = INREG32(pStatusControlAddr);

  000ec	e5973000	 ldr         r3, [r7]

; 462  :         OALLog(L"INFO: SW4 boot setting: 0x%02x\r\n", dwSysBootCfg & 0x3f);

  000f0	e59f02c4	 ldr         r0, [pc, #0x2C4]
  000f4	e203503f	 and         r5, r3, #0x3F
  000f8	e1a01005	 mov         r1, r5
  000fc	eb000000	 bl          NKDbgPrintfW

; 463  : 
; 464  :         switch (dwSysBootCfg & 0x3f)

  00100	e3a03302	 mov         r3, #2, 6
  00104	e3832020	 orr         r2, r3, #0x20
  00108	e3550024	 cmp         r5, #0x24
  0010c	8a000012	 bhi         |$LN26@OEMPreDown|
  00110	0a00001f	 beq         |$LN17@OEMPreDown|
  00114	e355001b	 cmp         r5, #0x1B
  00118	8a000015	 bhi         |$LN13@OEMPreDown|
  0011c	e28f3004	 add         r3, pc, #4
  00120	e7d33005	 ldrb        r3, [r3, +r5]
  00124	e08ff003	 add         pc, pc, r3
  00128		 |$LN33@OEMPreDown|
  00128		 |$LN32@OEMPreDown|
  00128		 |$LN34@OEMPreDown|
  00128	20ed		 DCB         0x20
  00129		 |$LN35@OEMPreDown|
  00129	18ed		 DCB         0x18
  0012a		 |$LN36@OEMPreDown|
  0012a	20ed		 DCB         0x20
  0012b		 |$LN37@OEMPreDown|
  0012b	48ed		 DCB         0x48
  0012c		 |$LN38@OEMPreDown|
  0012c	20ed		 DCB         0x20
  0012d		 |$LN39@OEMPreDown|
  0012d	48ed		 DCB         0x48
  0012e		 |$LN40@OEMPreDown|
  0012e	58ed		 DCB         0x58
  0012f		 |$LN41@OEMPreDown|
  0012f	48ed		 DCB         0x48
  00130		 |$LN42@OEMPreDown|
  00130	48ed		 DCB         0x48
  00131		 |$LN43@OEMPreDown|
  00131	48ed		 DCB         0x48
  00132		 |$LN44@OEMPreDown|
  00132	48ed		 DCB         0x48
  00133		 |$LN45@OEMPreDown|
  00133	48ed		 DCB         0x48
  00134		 |$LN46@OEMPreDown|
  00134	18ed		 DCB         0x18
  00135		 |$LN47@OEMPreDown|
  00135	48ed		 DCB         0x48
  00136		 |$LN48@OEMPreDown|
  00136	48ed		 DCB         0x48
  00137		 |$LN49@OEMPreDown|
  00137	48ed		 DCB         0x48
  00138		 |$LN50@OEMPreDown|
  00138	20ed		 DCB         0x20
  00139		 |$LN51@OEMPreDown|
  00139	48ed		 DCB         0x48
  0013a		 |$LN52@OEMPreDown|
  0013a	58ed		 DCB         0x58
  0013b		 |$LN53@OEMPreDown|
  0013b	48ed		 DCB         0x48
  0013c		 |$LN54@OEMPreDown|
  0013c	48ed		 DCB         0x48
  0013d		 |$LN55@OEMPreDown|
  0013d	18ed		 DCB         0x18
  0013e		 |$LN56@OEMPreDown|
  0013e	20ed		 DCB         0x20
  0013f		 |$LN57@OEMPreDown|
  0013f	48ed		 DCB         0x48
  00140		 |$LN58@OEMPreDown|
  00140	58ed		 DCB         0x58
  00141		 |$LN59@OEMPreDown|
  00141	48ed		 DCB         0x48
  00142		 |$LN60@OEMPreDown|
  00142	48ed		 DCB         0x48
  00143		 |$LN61@OEMPreDown|
  00143	18ed		 DCB         0x18
  00144		 |$LN15@OEMPreDown|

; 472  :             break;
; 473  :     
; 474  :     	case 0x2f: // brian
; 475  :         case 0x06:
; 476  :         case 0x12:
; 477  :         case 0x18:
; 478  :             // 1st boot device is MMC1 (SD Card Boot)
; 479  :             g_bootCfg.bootDevLoc.LogicalLoc = OMAP_MMCHS1_REGS_PA;
; 480  :             break;          
; 481  : 
; 482  :         case 0x01: 
; 483  :         case 0x0c: 
; 484  :         case 0x15: 
; 485  :         case 0x1b: 
; 486  :             // 1st boot device is NAND
; 487  :             g_bootCfg.bootDevLoc.LogicalLoc = BSP_NAND_REGS_PA + 0x20;

  00144	e5842010	 str         r2, [r4, #0x10]

; 488  :             break;

  00148	ea000015	 b           |$LN18@OEMPreDown|
  0014c		 |$LN14@OEMPreDown|
  0014c	e3a03303	 mov         r3, #3, 6

; 489  :             
; 490  :         case 0x00:
; 491  :         case 0x02:
; 492  :         case 0x04:
; 493  :         case 0x10:
; 494  :         case 0x16:
; 495  :             // 1st boot device is ONENAND
; 496  :             g_bootCfg.bootDevLoc.LogicalLoc = BSP_ONENAND_REGS_PA + 0x20;                       

  00150	e3833020	 orr         r3, r3, #0x20
  00154	e5843010	 str         r3, [r4, #0x10]
  00158	ea000011	 b           |$LN18@OEMPreDown|
  0015c		 |$LN26@OEMPreDown|

; 463  : 
; 464  :         switch (dwSysBootCfg & 0x3f)

  0015c	e3550026	 cmp         r5, #0x26
  00160	0a00000b	 beq         |$LN17@OEMPreDown|
  00164	e355002f	 cmp         r5, #0x2F
  00168	0a000005	 beq         |$LN16@OEMPreDown|
  0016c	e355003b	 cmp         r5, #0x3B
  00170	0a000007	 beq         |$LN17@OEMPreDown|
  00174		 |$LN13@OEMPreDown|

; 497  :             break;
; 498  : 
; 499  :         default:
; 500  :             // UART,  Ethernet Boot
; 501  :             g_bootCfg.bootDevLoc.LogicalLoc = BSP_NAND_REGS_PA + 0x20;;

  00174	e3a03302	 mov         r3, #2, 6
  00178	e3832020	 orr         r2, r3, #0x20
  0017c	e5842010	 str         r2, [r4, #0x10]

; 502  :             g_bootCfg.kitlDevLoc.LogicalLoc = BSP_NAND_REGS_PA + 0x20;;
; 503  :             break;

  00180	ea00000a	 b           |$LN30@OEMPreDown|
  00184		 |$LN16@OEMPreDown|
  00184	e3a03312	 mov         r3, #0x12, 6
  00188	e3833927	 orr         r3, r3, #0x27, 18
  0018c	e5843010	 str         r3, [r4, #0x10]
  00190	ea000003	 b           |$LN18@OEMPreDown|
  00194		 |$LN17@OEMPreDown|

; 465  :         {
; 466  :         case 0x24:
; 467  :         case 0x26:
; 468  :         case 0x3b:
; 469  :             // 1st boot device is USB
; 470  :             g_bootCfg.bootDevLoc.LogicalLoc = OMAP_USBHS_REGS_PA;

  00194	e3a03312	 mov         r3, #0x12, 6
  00198	e3833aab	 orr         r3, r3, #0xAB, 20
  0019c	e5843010	 str         r3, [r4, #0x10]

; 471  :             g_bootCfg.kitlDevLoc.LogicalLoc = OMAP_USBHS_REGS_PA;

  001a0	e5843024	 str         r3, [r4, #0x24]
  001a4		 |$LN18@OEMPreDown|

; 488  :             break;

  001a4	e5943024	 ldr         r3, [r4, #0x24]

; 504  :         }            
; 505  :         if (g_bootCfg.kitlDevLoc.LogicalLoc == 0)

  001a8	e3530000	 cmp         r3, #0
  001ac	1a000000	 bne         |$LN12@OEMPreDown|
  001b0		 |$LN30@OEMPreDown|

; 506  :         {
; 507  :             g_bootCfg.kitlDevLoc.LogicalLoc = BSP_NAND_REGS_PA + 0x20;;

  001b0	e5842024	 str         r2, [r4, #0x24]
  001b4		 |$LN12@OEMPreDown|

; 508  :         }
; 509  :         //g_bootCfg.deviceID = 0;
; 510  :         wcscpy(g_bootCfg.SerialNumber, L"");

  001b4	e59f11fc	 ldr         r1, [pc, #0x1FC]
  001b8	e2840038	 add         r0, r4, #0x38
  001bc	eb000000	 bl          wcscpy

; 511  :         g_bootCfg.osPartitionSize = IMAGE_WINCE_CODE_SIZE;
; 512  :         wcscpy(g_bootCfg.filename, L"nk.bin");

  001c0	e59f11ec	 ldr         r1, [pc, #0x1EC]
  001c4	e3a0350a	 mov         r3, #0xA, 10
  001c8	e284005c	 add         r0, r4, #0x5C
  001cc	e5843058	 str         r3, [r4, #0x58]
  001d0	eb000000	 bl          wcscpy
  001d4		 |$LN22@OEMPreDown|

; 513  : 	}
; 514  : 	g_bootCfg.displayRes = OMAP_LCD_DEFAULT;

  001d4	e3a03000	 mov         r3, #0

; 515  : 	
; 516  : 	// Initialize flash partitions if needed
; 517  : #ifdef BUILDING_EBOOT_SD // brian
; 518  : 	BLConfigureFlashPartitions(FALSE); //brian

  001d8	e3a00000	 mov         r0, #0
  001dc	e584307c	 str         r3, [r4, #0x7C]
  001e0	eb000000	 bl          BLConfigureFlashPartitions

; 519  : #endif
; 520  :     // Initialize ARGS structure
; 521  :     if ((pArgs->header.signature != OAL_ARGS_SIGNATURE) ||
; 522  :         (pArgs->header.oalVersion != OAL_ARGS_VERSION) ||
; 523  :         (pArgs->header.bspVersion != BSP_ARGS_VERSION))

  001e4	e59a3000	 ldr         r3, [r10]
  001e8	e59f51c0	 ldr         r5, [pc, #0x1C0]
  001ec	e1530005	 cmp         r3, r5
  001f0	1a000005	 bne         |$LN10@OEMPreDown|
  001f4	e1da30b4	 ldrh        r3, [r10, #4]
  001f8	e3530001	 cmp         r3, #1
  001fc	1a000002	 bne         |$LN10@OEMPreDown|
  00200	e1da30b6	 ldrh        r3, [r10, #6]
  00204	e3530001	 cmp         r3, #1
  00208	0a000006	 beq         |$LN11@OEMPreDown|
  0020c		 |$LN10@OEMPreDown|

; 524  : 	{
; 525  : 		OALLog(L"Clear share ARGS - 0x%x\r\n",IMAGE_SHARE_ARGS_CA);

  0020c	e59f0198	 ldr         r0, [pc, #0x198]
  00210	e3a01102	 mov         r1, #2, 2
  00214	eb000000	 bl          NKDbgPrintfW

; 526  : 		memset(pArgs, 0, IMAGE_SHARE_ARGS_SIZE);

  00218	e3a02a01	 mov         r2, #1, 20
  0021c	e3a01000	 mov         r1, #0
  00220	e3a0020a	 mov         r0, #0xA, 4
  00224	eb000000	 bl          memset
  00228		 |$LN11@OEMPreDown|

; 527  : 	}        
; 528  :     
; 529  :     // Save reset type  //Bootstrap message(final); Determine Clod or Warm Reset, Ray 131024
; 530  :     dwTemp = INREG32(&pPrmGlobal->PRM_RSTST);

  00228	e5983058	 ldr         r3, [r8, #0x58]

; 531  :     if (dwTemp & (GLOBALWARM_RST /* actually SW reset */ | EXTERNALWARM_RST))

  0022c	e3a08001	 mov         r8, #1
  00230	e3a0b000	 mov         r11, #0
  00234	e3130042	 tst         r3, #0x42
  00238	0a000003	 beq         |$LN9@OEMPreDown|

; 532  :     {
; 533  :         pArgs->coldBoot = FALSE;
; 534  :         OALLog(L"\r>>> Now entry warm-reset... \r\n");

  0023c	e59f0164	 ldr         r0, [pc, #0x164]
  00240	e58ab00c	 str         r11, [r10, #0xC]
  00244	eb000000	 bl          NKDbgPrintfW

; 535  :     }
; 536  :     else

  00248	ea000006	 b           |$LN8@OEMPreDown|
  0024c		 |$LN9@OEMPreDown|

; 537  :     {
; 538  :         pArgs->coldBoot = TRUE;
; 539  :         OALLog(L"\r\n>>> Forcing cold boot (non-persistent registry and other data will be wiped) <<< \r\n");

  0024c	e59f0150	 ldr         r0, [pc, #0x150]
  00250	e58a800c	 str         r8, [r10, #0xC]
  00254	eb000000	 bl          NKDbgPrintfW

; 540  :         OALLog(L"\r>>> Now entry cold-reset... \r\n");

  00258	e59f0140	 ldr         r0, [pc, #0x140]
  0025c	eb000000	 bl          NKDbgPrintfW

; 541  :         HotKeyColdReset(ghTwl);

  00260	e5960000	 ldr         r0, [r6]
  00264	eb000000	 bl          HotKeyColdReset
  00268		 |$LN8@OEMPreDown|

; 542  :         //OALLog(L"******hTwl: %X....\r\n", ghTwl);   //address-2, Ray
; 543  :     }
; 544  :     
; 545  :     // Don't force the boot menu, use default action unless user breaks
; 546  :     // into menu
; 547  :     bForceBootMenu = FALSE;

  00268	e59f612c	 ldr         r6, [pc, #0x12C]
  0026c	e59f7124	 ldr         r7, [pc, #0x124]
  00270	e3a00000	 mov         r0, #0
  00274		 |$retryBootMenu$47757|

; 548  :     
; 549  : retryBootMenu:
; 550  : 	// Call configuration menu
; 551  :     BLMenu(bForceBootMenu);

  00274	eb000000	 bl          BLMenu

; 552  :     
; 553  :     // Update ARGS structure if necessary
; 554  :     if ((pArgs->header.signature != OAL_ARGS_SIGNATURE) ||
; 555  :         (pArgs->header.oalVersion != OAL_ARGS_VERSION) || 
; 556  :         (pArgs->header.bspVersion != BSP_ARGS_VERSION))

  00278	e59a3000	 ldr         r3, [r10]
  0027c	e1530005	 cmp         r3, r5
  00280	1a000005	 bne         |$LN6@OEMPreDown|
  00284	e1da30b4	 ldrh        r3, [r10, #4]
  00288	e3530001	 cmp         r3, #1
  0028c	1a000002	 bne         |$LN6@OEMPreDown|
  00290	e1da30b6	 ldrh        r3, [r10, #6]
  00294	e3530001	 cmp         r3, #1
  00298	0a000022	 beq         |$LN7@OEMPreDown|
  0029c		 |$LN6@OEMPreDown|

; 557  : 	{
; 558  : 		OALLog(L"Initialize share ARGS - 0x%x\r\n",IMAGE_SHARE_ARGS_CA);

  0029c	e59f00f0	 ldr         r0, [pc, #0xF0]
  002a0	e3a01102	 mov         r1, #2, 2
  002a4	eb000000	 bl          NKDbgPrintfW

; 559  : 		//OALLog(L"Initialize share ARGS - %s\r\n",g_bootCfg.SerialNumber);
; 560  :         pArgs->header.signature = OAL_ARGS_SIGNATURE;

  002a8	e58a5000	 str         r5, [r10]

; 561  :         pArgs->header.oalVersion = OAL_ARGS_VERSION;

  002ac	e1ca80b4	 strh        r8, [r10, #4]

; 562  :         pArgs->header.bspVersion = BSP_ARGS_VERSION;

  002b0	e1ca80b6	 strh        r8, [r10, #6]

; 563  :         pArgs->kitl.flags = g_bootCfg.kitlFlags;

  002b4	e5943030	 ldr         r3, [r4, #0x30]

; 564  :         pArgs->kitl.devLoc = g_bootCfg.kitlDevLoc;

  002b8	e284101c	 add         r1, r4, #0x1C
  002bc	e28a001c	 add         r0, r10, #0x1C
  002c0	e3a02014	 mov         r2, #0x14
  002c4	e58a3018	 str         r3, [r10, #0x18]
  002c8	eb000000	 bl          memcpy
  002cc	e3a0820a	 mov         r8, #0xA, 4

; 565  :         //pArgs->kitl.ipAddress = g_bootCfg.ipAddress;
; 566  :         //pArgs->kitl.ipMask = g_bootCfg.ipMask;
; 567  :         //pArgs->kitl.ipRoute = g_bootCfg.ipRoute;
; 568  : 		memcpy(pArgs->kitl.mac,g_bootCfg.mac,sizeof(pArgs->kitl.mac)); 

  002d0	e3880030	 orr         r0, r8, #0x30
  002d4	e2841076	 add         r1, r4, #0x76
  002d8	e3a02006	 mov         r2, #6
  002dc	eb000000	 bl          memcpy

; 569  :  	    pArgs->updateMode = FALSE;

  002e0	e58ab008	 str         r11, [r10, #8]

; 570  :         //pArgs->deviceID = g_bootCfg.deviceID;
; 571  :         pArgs->oalFlags = g_bootCfg.oalFlags;

  002e4	e5943034	 ldr         r3, [r4, #0x34]

; 572  :         pArgs->dispRes = g_bootCfg.displayRes;
; 573  :         pArgs->ECCtype = g_bootCfg.ECCtype; 
; 574  :         pArgs->opp_mode = g_bootCfg.opp_mode;
; 575  :         memcpy(pArgs->DevicePrefix, gDevice_prefix, sizeof(pArgs->DevicePrefix));

  002e8	e3880048	 orr         r0, r8, #0x48
  002ec	e3a02012	 mov         r2, #0x12
  002f0	e58a3044	 str         r3, [r10, #0x44]
  002f4	e594307c	 ldr         r3, [r4, #0x7C]
  002f8	e58a3078	 str         r3, [r10, #0x78]
  002fc	e5d43084	 ldrb        r3, [r4, #0x84]
  00300	e58a307c	 str         r3, [r10, #0x7C]
  00304	e5943088	 ldr         r3, [r4, #0x88]
  00308	e58a3080	 str         r3, [r10, #0x80]
  0030c	e5971000	 ldr         r1, [r7]
  00310	eb000000	 bl          memcpy

; 576  :         memcpy(pArgs->SerialNumber, g_bootCfg.SerialNumber, sizeof(pArgs->SerialNumber));

  00314	e388005a	 orr         r0, r8, #0x5A
  00318	e2841038	 add         r1, r4, #0x38
  0031c	e3a0201e	 mov         r2, #0x1E
  00320	eb000000	 bl          memcpy
  00324	e3a08001	 mov         r8, #1
  00328		 |$LN7@OEMPreDown|

; 577  :         //memcpy((BYTE *)SERIAL_NUMBER_STORE_ADDR, g_bootCfg.SerialNumber, sizeof(g_bootCfg.SerialNumber));
; 578  :         //OALLog(L"Initialize share ARGS - %s\r\n",pArgs->SerialNumber);
; 579  : 	}  
; 580  :     
; 581  :     // Initialize display
; 582  : 	//BLShowLogo();	// cfg.c
; 583  : 	
; 584  : 	// Read touch Calibration data
; 585  : #ifdef BUILDING_EBOOT_SD
; 586  : 	/*memset(pArgs->CalibBuffer, 0, CALIBRATE_SIZE);
; 587  : 	if( BLSDCardReadCalibData(TOUCHCALIB_EBOOT_FILE, CalibBuffer, CALIBRATE_SIZE) )
; 588  : 	{
; 589  : 		//int i;
; 590  : 		memcpy(pArgs->CalibBuffer, CalibBuffer, CALIBRATE_SIZE);
; 591  : 		OALLog(L"BLSDCardReadCalibData: %d bytes\r\n", CalibBuffer[1]);
; 592  : 		//for( i=0 ; i<120 ; i++)
; 593  : 		//	OALLog(L"BLSDCardReadCalibData: %d = 0x%x\r\n", i, pArgs->CalibBuffer[i]);
; 594  : 	}*/
; 595  : 	
; 596  :     // Image download depends on protocol
; 597  : 	g_eboot.bootDeviceType = BOOT_SDCARD_TYPE;
; 598  : #else
; 599  : 	g_bootCfg.bootDevLoc.LogicalLoc = BSP_NAND_REGS_PA + 0x20;
; 600  : 	g_eboot.bootDeviceType = OAL_KITL_TYPE_FLASH;
; 601  : #endif
; 602  :     //g_eboot.bootDeviceType = OALKitlDeviceType(&g_bootCfg.bootDevLoc, g_bootDevices);
; 603  : 
; 604  : 	OALLog(L"bootDeviceType = %d\r\n", g_eboot.bootDeviceType);

  00328	e59f0060	 ldr         r0, [pc, #0x60]
  0032c	e3a03004	 mov         r3, #4
  00330	e3a01004	 mov         r1, #4
  00334	e5863000	 str         r3, [r6]
  00338	eb000000	 bl          NKDbgPrintfW

; 605  : 	OALLog(L"LogicalLoc = 0x%x\r\n", g_bootCfg.bootDevLoc.LogicalLoc);

  0033c	e5941010	 ldr         r1, [r4, #0x10]
  00340	e59f0044	 ldr         r0, [pc, #0x44]
  00344	eb000000	 bl          NKDbgPrintfW

; 606  : 	switch (g_eboot.bootDeviceType)

  00348	e5963000	 ldr         r3, [r6]
  0034c	e3530003	 cmp         r3, #3
  00350	0a000004	 beq         |$LN2@OEMPreDown|
  00354	e3530004	 cmp         r3, #4
  00358	1a000007	 bne         |$LN28@OEMPreDown|

; 607  : 	{
; 608  : 		case BOOT_SDCARD_TYPE: // 4
; 609  :             rc = BLSDCardDownload(g_bootCfg.filename); // \PLATFORM\COMMON\SRC\SOC\COMMON_TI_V1\COMMON_TI\BOOT\SDMEMORY

  0035c	e284005c	 add         r0, r4, #0x5C
  00360	eb000000	 bl          BLSDCardDownload

; 610  :             break;

  00364	ea000002	 b           |$LN4@OEMPreDown|
  00368		 |$LN2@OEMPreDown|

; 611  :         case OAL_KITL_TYPE_FLASH: // 3
; 612  :             rc = BLFlashDownload(&g_bootCfg, g_bootDevices);

  00368	e1a01009	 mov         r1, r9
  0036c	e1a00004	 mov         r0, r4
  00370	eb000000	 bl          BLFlashDownload
  00374		 |$LN4@OEMPreDown|

; 613  :             break;
; 614  :         //case OAL_KITL_TYPE_ETH:
; 615  :         //    rc = BLEthDownload(&g_bootCfg, g_bootDevices);
; 616  :         //    break;
; 617  : 	}
; 618  :         
; 619  : 	if (rc == BL_ERROR)

  00374	e3700001	 cmn         r0, #1
  00378	1a000001	 bne         |$LN1@OEMPreDown|
  0037c		 |$LN28@OEMPreDown|

; 620  :     {
; 621  :         // No automatic mode now, force the boot menu to appear
; 622  :         bForceBootMenu = TRUE;

  0037c	e3a00001	 mov         r0, #1

; 623  :         goto retryBootMenu; 

  00380	eaffffbb	 b           |$retryBootMenu$47757|
  00384		 |$LN1@OEMPreDown|

; 624  :     }   
; 625  :     
; 626  :     return rc;
; 627  : }

  00384	e8bd4ff0	 ldmia       sp!, {r4 - r11, lr}
  00388	e12fff1e	 bx          lr
  0038c		 |$LN65@OEMPreDown|
  0038c		 |$LN66@OEMPreDown|
  0038c	00000000	 DCD         |??_C@_1CI@OKDMPKNO@?$AAL?$AAo?$AAg?$AAi?$AAc?$AAa?$AAl?$AAL?$AAo?$AAc?$AA?5?$AA?$DN?$AA?5?$AA0?$AAx?$AA?$CF?$AAx?$AA?$AN?$AA?6?$AA?$AA@|
  00390		 |$LN67@OEMPreDown|
  00390	00000000	 DCD         |??_C@_1CM@LKNPOFLB@?$AAb?$AAo?$AAo?$AAt?$AAD?$AAe?$AAv?$AAi?$AAc?$AAe?$AAT?$AAy?$AAp?$AAe?$AA?5?$AA?$DN?$AA?5?$AA?$CF?$AAd?$AA?$AN?$AA?6?$AA?$AA@|
  00394		 |$LN68@OEMPreDown|
  00394	00000000	 DCD         |??_C@_1DO@OPINKPO@?$AAI?$AAn?$AAi?$AAt?$AAi?$AAa?$AAl?$AAi?$AAz?$AAe?$AA?5?$AAs?$AAh?$AAa?$AAr?$AAe?$AA?5?$AAA?$AAR?$AAG?$AAS?$AA?5?$AA?9?$AA?5?$AA0?$AAx?$AA?$CF?$AAx?$AA?$AN?$AA?6?$AA?$AA@|
  00398		 |$LN69@OEMPreDown|
  00398	00000000	 DCD         |gDevice_prefix|
  0039c		 |$LN70@OEMPreDown|
  0039c	00000000	 DCD         |g_eboot|
  003a0		 |$LN71@OEMPreDown|
  003a0	00000000	 DCD         |??_C@_1EA@EAGALJIK@?$AA?$AN?$AA?$DO?$AA?$DO?$AA?$DO?$AA?5?$AAN?$AAo?$AAw?$AA?5?$AAe?$AAn?$AAt?$AAr?$AAy?$AA?5?$AAc?$AAo?$AAl?$AAd?$AA?9?$AAr?$AAe?$AAs?$AAe?$AAt?$AA?4?$AA?4?$AA?4?$AA?5?$AA?$AN?$AA?6?$AA?$AA@|
  003a4		 |$LN72@OEMPreDown|
  003a4	00000000	 DCD         |??_C@_1KM@MLNPCLLF@?$AA?$AN?$AA?6?$AA?$DO?$AA?$DO?$AA?$DO?$AA?5?$AAF?$AAo?$AAr?$AAc?$AAi?$AAn?$AAg?$AA?5?$AAc?$AAo?$AAl?$AAd?$AA?5?$AAb?$AAo?$AAo?$AAt?$AA?5?$AA?$CI?$AAn?$AAo?$AAn?$AA?9?$AAp?$AAe?$AAr@|
  003a8		 |$LN73@OEMPreDown|
  003a8	00000000	 DCD         |??_C@_1EA@JAEGLKFM@?$AA?$AN?$AA?$DO?$AA?$DO?$AA?$DO?$AA?5?$AAN?$AAo?$AAw?$AA?5?$AAe?$AAn?$AAt?$AAr?$AAy?$AA?5?$AAw?$AAa?$AAr?$AAm?$AA?9?$AAr?$AAe?$AAs?$AAe?$AAt?$AA?4?$AA?4?$AA?4?$AA?5?$AA?$AN?$AA?6?$AA?$AA@|
  003ac		 |$LN74@OEMPreDown|
  003ac	00000000	 DCD         |??_C@_1DE@IDJEJNKG@?$AAC?$AAl?$AAe?$AAa?$AAr?$AA?5?$AAs?$AAh?$AAa?$AAr?$AAe?$AA?5?$AAA?$AAR?$AAG?$AAS?$AA?5?$AA?9?$AA?5?$AA0?$AAx?$AA?$CF?$AAx?$AA?$AN?$AA?6?$AA?$AA@|
  003b0		 |$LN75@OEMPreDown|
  003b0	53475241	 DCD         0x53475241
  003b4		 |$LN76@OEMPreDown|
  003b4	00000000	 DCD         |??_C@_1O@HJKNOJA@?$AAn?$AAk?$AA?4?$AAb?$AAi?$AAn?$AA?$AA@|
  003b8		 |$LN77@OEMPreDown|
  003b8	00000000	 DCD         |??_C@_11LOCGONAA@?$AA?$AA@|
  003bc		 |$LN78@OEMPreDown|
  003bc	00000000	 DCD         |??_C@_1EC@IFKCAMGN@?$AAI?$AAN?$AAF?$AAO?$AA?3?$AA?5?$AAS?$AAW?$AA4?$AA?5?$AAb?$AAo?$AAo?$AAt?$AA?5?$AAs?$AAe?$AAt?$AAt?$AAi?$AAn?$AAg?$AA?3?$AA?5?$AA0?$AAx?$AA?$CF?$AA0?$AA2?$AAx?$AA?$AN?$AA?6@|
  003c0		 |$LN79@OEMPreDown|
  003c0	00000000	 DCD         |dwEbootECCtype|
  003c4		 |$LN80@OEMPreDown|
  003c4	00000000	 DCD         |??_C@_1GC@MEIINOMM@?$AAW?$AAA?$AAR?$AAN?$AA?3?$AA?5?$AAB?$AAo?$AAo?$AAt?$AA?5?$AAc?$AAo?$AAn?$AAf?$AAi?$AAg?$AA?5?$AAw?$AAa?$AAs?$AAn?$AA?8?$AAt?$AA?5?$AAf?$AAo?$AAu?$AAn?$AAd?$AA?0?$AA?5@|
  003c8		 |$LN81@OEMPreDown|
  003c8	00000000	 DCD         |??_C@_1EC@IBPJNEAL@?$AAI?$AAN?$AAF?$AAO?$AA?3?$AA?5?$AAB?$AAo?$AAo?$AAt?$AA?5?$AAc?$AAo?$AAn?$AAf?$AAi?$AAg?$AAu?$AAr?$AAa?$AAt?$AAi?$AAo?$AAn?$AA?5?$AAf?$AAo?$AAu?$AAn?$AAd?$AA?$AN?$AA?6@|
  003cc		 |$LN82@OEMPreDown|
  003cc	42434647	 DCD         0x42434647
  003d0		 |$LN83@OEMPreDown|
  003d0	00000000	 DCD         |g_bootDevices|
  003d4		 |$LN84@OEMPreDown|
  003d4	00000000	 DCD         |ghTwl|
  003d8		 |$LN85@OEMPreDown|
  003d8	00000000	 DCD         |g_bootCfg|
  003dc		 |$LN86@OEMPreDown|
  003dc	00000000	 DCD         |OEMMultiBinNotify|
  003e0		 |$LN87@OEMPreDown|
  003e0	00000000	 DCD         |g_pOEMMultiBINNotify|
  003e4		 |$LN88@OEMPreDown|
  003e4	480022f0	 DCD         0x480022f0
  003e8		 |$LN89@OEMPreDown|
  003e8	48307200	 DCD         0x48307200
  003ec		 |$M48414|

			 ENDP  ; |OEMPreDownload|

	EXPORT	|OEMLaunch|
	EXPORT	|??_C@_1GI@OMOEGIPN@?$AAL?$AAa?$AAu?$AAn?$AAc?$AAh?$AA?5?$AAW?$AAi?$AAn?$AAd?$AAo?$AAw?$AAs?$AA?5?$AAC?$AAE?$AA?5?$AAi?$AAm?$AAa?$AAg?$AAe?$AA?5?$AAb?$AAy?$AA?5?$AAj?$AAu?$AAm?$AAp?$AAi@| [ DATA ] ; `string'
	EXPORT	|??_C@_1HO@MGHNOKAM@?$AAE?$AAR?$AAR?$AAO?$AAR?$AA?3?$AA?5?$AAO?$AAE?$AAM?$AAL?$AAa?$AAu?$AAn?$AAc?$AAh?$AA?3?$AA?5?$AAU?$AAn?$AAk?$AAn?$AAo?$AAw?$AAn?$AA?5?$AAi?$AAm?$AAa?$AAg?$AAe?$AA?5@| [ DATA ] ; `string'
	EXPORT	|??_C@_1GE@FBKDALPO@?$AAE?$AAR?$AAR?$AAO?$AAR?$AA?3?$AA?5?$AAO?$AAE?$AAM?$AAL?$AAa?$AAu?$AAn?$AAc?$AAh?$AA?3?$AA?5?$AAF?$AAl?$AAa?$AAs?$AAh?$AA?5?$AAN?$AAK?$AA?4?$AAb?$AAi?$AAn?$AA?5?$AAf@| [ DATA ] ; `string'
	EXPORT	|??_C@_1FC@IKOIDMGO@?$AAW?$AAr?$AAi?$AAt?$AAe?$AAF?$AAl?$AAa?$AAs?$AAh?$AAN?$AAK?$AA?3?$AA?5?$AAs?$AAt?$AAa?$AAr?$AAt?$AA?5?$AA?$DN?$AA?5?$AA0?$AAx?$AA?$CF?$AAx?$AA?0?$AAs?$AAi?$AAz?$AAe?$AA?5@| [ DATA ] ; `string'
	EXPORT	|??_C@_1GA@LEGMELFL@?$AAI?$AAN?$AAF?$AAO?$AA?3?$AA?5?$AAX?$AAL?$AAD?$AAR?$AA?1?$AAE?$AAB?$AAO?$AAO?$AAT?$AA?1?$AAI?$AAP?$AAL?$AA?5?$AAd?$AAo?$AAw?$AAn?$AAl?$AAo?$AAa?$AAd?$AAe?$AAd?$AA?0@| [ DATA ] ; `string'
	EXPORT	|??_C@_1GE@FFBNFJNC@?$AAI?$AAN?$AAF?$AAO?$AA?3?$AA?5?$AAS?$AAp?$AAl?$AAa?$AAs?$AAh?$AAc?$AAr?$AAe?$AAe?$AAn?$AA?5?$AAl?$AAo?$AAg?$AAo?$AA?5?$AAd?$AAo?$AAw?$AAn?$AAl?$AAo?$AAa?$AAd?$AAe@| [ DATA ] ; `string'
	EXPORT	|??_C@_1HA@LNJPPCBO@?$AAE?$AAR?$AAR?$AAO?$AAR?$AA?3?$AA?5?$AAO?$AAE?$AAM?$AAL?$AAa?$AAu?$AAn?$AAc?$AAh?$AA?3?$AA?5?$AAI?$AAm?$AAa?$AAg?$AAe?$AA?5?$AAl?$AAo?$AAa?$AAd?$AA?5?$AAf?$AAr?$AAo@| [ DATA ] ; `string'
	EXPORT	|??_C@_1HA@PPNIDEHG@?$AAE?$AAR?$AAR?$AAO?$AAR?$AA?3?$AA?5?$AAO?$AAE?$AAM?$AAL?$AAa?$AAu?$AAn?$AAc?$AAh?$AA?3?$AA?5?$AAU?$AAn?$AAk?$AAn?$AAo?$AAw?$AAn?$AA?5?$AAd?$AAo?$AAw?$AAn?$AAl?$AAo@| [ DATA ] ; `string'
	EXPORT	|??_C@_1GK@MMIDCEGF@?$AA?$CL?$AAO?$AAE?$AAM?$AAL?$AAa?$AAu?$AAn?$AAc?$AAh?$AA?$CI?$AA0?$AAx?$AA?$CF?$AA0?$AA8?$AAx?$AA?0?$AA?5?$AA0?$AAx?$AA?$CF?$AA0?$AA8?$AAx?$AA?0?$AA?5?$AA0?$AAx?$AA?$CF?$AA0?$AA8@| [ DATA ] ; `string'
	IMPORT	|JumpTo|
	IMPORT	|ClearDisplayBuffer|
	IMPORT	|OEMDeinitDebugSerial|
	IMPORT	|WriteFlashNK|
	IMPORT	|BLEthConfig|

  00000			 AREA	 |.pdata|, PDATA
|$T48495| DCD	|$LN79@OEMLaunch|
	DCD	0x40009202

  00000			 AREA	 |.rdata|, DATA, READONLY
|??_C@_1GI@OMOEGIPN@?$AAL?$AAa?$AAu?$AAn?$AAc?$AAh?$AA?5?$AAW?$AAi?$AAn?$AAd?$AAo?$AAw?$AAs?$AA?5?$AAC?$AAE?$AA?5?$AAi?$AAm?$AAa?$AAg?$AAe?$AA?5?$AAb?$AAy?$AA?5?$AAj?$AAu?$AAm?$AAp?$AAi@| DCB "L"
	DCB	0x0, "a", 0x0, "u", 0x0, "n", 0x0, "c", 0x0, "h", 0x0, " "
	DCB	0x0, "W", 0x0, "i", 0x0, "n", 0x0, "d", 0x0, "o", 0x0, "w"
	DCB	0x0, "s", 0x0, " ", 0x0, "C", 0x0, "E", 0x0, " ", 0x0, "i"
	DCB	0x0, "m", 0x0, "a", 0x0, "g", 0x0, "e", 0x0, " ", 0x0, "b"
	DCB	0x0, "y", 0x0, " ", 0x0, "j", 0x0, "u", 0x0, "m", 0x0, "p"
	DCB	0x0, "i", 0x0, "n", 0x0, "g", 0x0, " ", 0x0, "t", 0x0, "o"
	DCB	0x0, " ", 0x0, "0", 0x0, "x", 0x0, "%", 0x0, "0", 0x0, "8"
	DCB	0x0, "x", 0x0, ".", 0x0, ".", 0x0, ".", 0x0, 0xd, 0x0, 0xa
	DCB	0x0, 0xd, 0x0, 0xa, 0x0, 0x0, 0x0	; `string'

  00000			 AREA	 |.rdata|, DATA, READONLY
|??_C@_1HO@MGHNOKAM@?$AAE?$AAR?$AAR?$AAO?$AAR?$AA?3?$AA?5?$AAO?$AAE?$AAM?$AAL?$AAa?$AAu?$AAn?$AAc?$AAh?$AA?3?$AA?5?$AAU?$AAn?$AAk?$AAn?$AAo?$AAw?$AAn?$AA?5?$AAi?$AAm?$AAa?$AAg?$AAe?$AA?5@| DCB "E"
	DCB	0x0, "R", 0x0, "R", 0x0, "O", 0x0, "R", 0x0, ":", 0x0, " "
	DCB	0x0, "O", 0x0, "E", 0x0, "M", 0x0, "L", 0x0, "a", 0x0, "u"
	DCB	0x0, "n", 0x0, "c", 0x0, "h", 0x0, ":", 0x0, " ", 0x0, "U"
	DCB	0x0, "n", 0x0, "k", 0x0, "n", 0x0, "o", 0x0, "w", 0x0, "n"
	DCB	0x0, " ", 0x0, "i", 0x0, "m", 0x0, "a", 0x0, "g", 0x0, "e"
	DCB	0x0, " ", 0x0, "l", 0x0, "a", 0x0, "u", 0x0, "n", 0x0, "c"
	DCB	0x0, "h", 0x0, " ", 0x0, "a", 0x0, "d", 0x0, "d", 0x0, "r"
	DCB	0x0, "e", 0x0, "s", 0x0, "s", 0x0, ",", 0x0, " ", 0x0, "s"
	DCB	0x0, "p", 0x0, "i", 0x0, "n", 0x0, " ", 0x0, "f", 0x0, "o"
	DCB	0x0, "r", 0x0, "e", 0x0, "v", 0x0, "e", 0x0, "r", 0x0, 0xd
	DCB	0x0, 0xa, 0x0, 0x0, 0x0			; `string'

  00000			 AREA	 |.rdata|, DATA, READONLY
|??_C@_1GE@FBKDALPO@?$AAE?$AAR?$AAR?$AAO?$AAR?$AA?3?$AA?5?$AAO?$AAE?$AAM?$AAL?$AAa?$AAu?$AAn?$AAc?$AAh?$AA?3?$AA?5?$AAF?$AAl?$AAa?$AAs?$AAh?$AA?5?$AAN?$AAK?$AA?4?$AAb?$AAi?$AAn?$AA?5?$AAf@| DCB "E"
	DCB	0x0, "R", 0x0, "R", 0x0, "O", 0x0, "R", 0x0, ":", 0x0, " "
	DCB	0x0, "O", 0x0, "E", 0x0, "M", 0x0, "L", 0x0, "a", 0x0, "u"
	DCB	0x0, "n", 0x0, "c", 0x0, "h", 0x0, ":", 0x0, " ", 0x0, "F"
	DCB	0x0, "l", 0x0, "a", 0x0, "s", 0x0, "h", 0x0, " ", 0x0, "N"
	DCB	0x0, "K", 0x0, ".", 0x0, "b", 0x0, "i", 0x0, "n", 0x0, " "
	DCB	0x0, "f", 0x0, "a", 0x0, "i", 0x0, "l", 0x0, "e", 0x0, "d"
	DCB	0x0, ",", 0x0, " ", 0x0, "s", 0x0, "t", 0x0, "a", 0x0, "r"
	DCB	0x0, "t", 0x0, "=", 0x0, "%", 0x0, "x", 0x0, 0xd, 0x0, 0xa
	DCB	0x0, 0x0, 0x0				; `string'

  00000			 AREA	 |.rdata|, DATA, READONLY
|??_C@_1FC@IKOIDMGO@?$AAW?$AAr?$AAi?$AAt?$AAe?$AAF?$AAl?$AAa?$AAs?$AAh?$AAN?$AAK?$AA?3?$AA?5?$AAs?$AAt?$AAa?$AAr?$AAt?$AA?5?$AA?$DN?$AA?5?$AA0?$AAx?$AA?$CF?$AAx?$AA?0?$AAs?$AAi?$AAz?$AAe?$AA?5@| DCB "W"
	DCB	0x0, "r", 0x0, "i", 0x0, "t", 0x0, "e", 0x0, "F", 0x0, "l"
	DCB	0x0, "a", 0x0, "s", 0x0, "h", 0x0, "N", 0x0, "K", 0x0, ":"
	DCB	0x0, " ", 0x0, "s", 0x0, "t", 0x0, "a", 0x0, "r", 0x0, "t"
	DCB	0x0, " ", 0x0, "=", 0x0, " ", 0x0, "0", 0x0, "x", 0x0, "%"
	DCB	0x0, "x", 0x0, ",", 0x0, "s", 0x0, "i", 0x0, "z", 0x0, "e"
	DCB	0x0, " ", 0x0, "=", 0x0, " ", 0x0, "0", 0x0, "x", 0x0, "%"
	DCB	0x0, "x", 0x0, 0xd, 0x0, 0xa, 0x0, 0x0, 0x0 ; `string'

  00000			 AREA	 |.rdata|, DATA, READONLY
|??_C@_1GA@LEGMELFL@?$AAI?$AAN?$AAF?$AAO?$AA?3?$AA?5?$AAX?$AAL?$AAD?$AAR?$AA?1?$AAE?$AAB?$AAO?$AAO?$AAT?$AA?1?$AAI?$AAP?$AAL?$AA?5?$AAd?$AAo?$AAw?$AAn?$AAl?$AAo?$AAa?$AAd?$AAe?$AAd?$AA?0@| DCB "I"
	DCB	0x0, "N", 0x0, "F", 0x0, "O", 0x0, ":", 0x0, " ", 0x0, "X"
	DCB	0x0, "L", 0x0, "D", 0x0, "R", 0x0, "/", 0x0, "E", 0x0, "B"
	DCB	0x0, "O", 0x0, "O", 0x0, "T", 0x0, "/", 0x0, "I", 0x0, "P"
	DCB	0x0, "L", 0x0, " ", 0x0, "d", 0x0, "o", 0x0, "w", 0x0, "n"
	DCB	0x0, "l", 0x0, "o", 0x0, "a", 0x0, "d", 0x0, "e", 0x0, "d"
	DCB	0x0, ",", 0x0, " ", 0x0, "s", 0x0, "p", 0x0, "i", 0x0, "n"
	DCB	0x0, " ", 0x0, "f", 0x0, "o", 0x0, "r", 0x0, "e", 0x0, "v"
	DCB	0x0, "e", 0x0, "r", 0x0, 0xd, 0x0, 0xa, 0x0, 0x0, 0x0 ; `string'

  00000			 AREA	 |.rdata|, DATA, READONLY
|??_C@_1GE@FFBNFJNC@?$AAI?$AAN?$AAF?$AAO?$AA?3?$AA?5?$AAS?$AAp?$AAl?$AAa?$AAs?$AAh?$AAc?$AAr?$AAe?$AAe?$AAn?$AA?5?$AAl?$AAo?$AAg?$AAo?$AA?5?$AAd?$AAo?$AAw?$AAn?$AAl?$AAo?$AAa?$AAd?$AAe@| DCB "I"
	DCB	0x0, "N", 0x0, "F", 0x0, "O", 0x0, ":", 0x0, " ", 0x0, "S"
	DCB	0x0, "p", 0x0, "l", 0x0, "a", 0x0, "s", 0x0, "h", 0x0, "c"
	DCB	0x0, "r", 0x0, "e", 0x0, "e", 0x0, "n", 0x0, " ", 0x0, "l"
	DCB	0x0, "o", 0x0, "g", 0x0, "o", 0x0, " ", 0x0, "d", 0x0, "o"
	DCB	0x0, "w", 0x0, "n", 0x0, "l", 0x0, "o", 0x0, "a", 0x0, "d"
	DCB	0x0, "e", 0x0, "d", 0x0, ",", 0x0, " ", 0x0, "s", 0x0, "p"
	DCB	0x0, "i", 0x0, "n", 0x0, " ", 0x0, "f", 0x0, "o", 0x0, "r"
	DCB	0x0, "e", 0x0, "v", 0x0, "e", 0x0, "r", 0x0, 0xd, 0x0, 0xa
	DCB	0x0, 0x0, 0x0				; `string'

  00000			 AREA	 |.rdata|, DATA, READONLY
|??_C@_1HA@LNJPPCBO@?$AAE?$AAR?$AAR?$AAO?$AAR?$AA?3?$AA?5?$AAO?$AAE?$AAM?$AAL?$AAa?$AAu?$AAn?$AAc?$AAh?$AA?3?$AA?5?$AAI?$AAm?$AAa?$AAg?$AAe?$AA?5?$AAl?$AAo?$AAa?$AAd?$AA?5?$AAf?$AAr?$AAo@| DCB "E"
	DCB	0x0, "R", 0x0, "R", 0x0, "O", 0x0, "R", 0x0, ":", 0x0, " "
	DCB	0x0, "O", 0x0, "E", 0x0, "M", 0x0, "L", 0x0, "a", 0x0, "u"
	DCB	0x0, "n", 0x0, "c", 0x0, "h", 0x0, ":", 0x0, " ", 0x0, "I"
	DCB	0x0, "m", 0x0, "a", 0x0, "g", 0x0, "e", 0x0, " ", 0x0, "l"
	DCB	0x0, "o", 0x0, "a", 0x0, "d", 0x0, " ", 0x0, "f", 0x0, "r"
	DCB	0x0, "o", 0x0, "m", 0x0, " ", 0x0, "f", 0x0, "l", 0x0, "a"
	DCB	0x0, "s", 0x0, "h", 0x0, " ", 0x0, "m", 0x0, "e", 0x0, "m"
	DCB	0x0, "o", 0x0, "r", 0x0, "y", 0x0, " ", 0x0, "f", 0x0, "a"
	DCB	0x0, "i", 0x0, "l", 0x0, "e", 0x0, "d", 0x0, 0xd, 0x0, 0xa
	DCB	0x0, 0x0, 0x0				; `string'

  00000			 AREA	 |.rdata|, DATA, READONLY
|??_C@_1HA@PPNIDEHG@?$AAE?$AAR?$AAR?$AAO?$AAR?$AA?3?$AA?5?$AAO?$AAE?$AAM?$AAL?$AAa?$AAu?$AAn?$AAc?$AAh?$AA?3?$AA?5?$AAU?$AAn?$AAk?$AAn?$AAo?$AAw?$AAn?$AA?5?$AAd?$AAo?$AAw?$AAn?$AAl?$AAo@| DCB "E"
	DCB	0x0, "R", 0x0, "R", 0x0, "O", 0x0, "R", 0x0, ":", 0x0, " "
	DCB	0x0, "O", 0x0, "E", 0x0, "M", 0x0, "L", 0x0, "a", 0x0, "u"
	DCB	0x0, "n", 0x0, "c", 0x0, "h", 0x0, ":", 0x0, " ", 0x0, "U"
	DCB	0x0, "n", 0x0, "k", 0x0, "n", 0x0, "o", 0x0, "w", 0x0, "n"
	DCB	0x0, " ", 0x0, "d", 0x0, "o", 0x0, "w", 0x0, "n", 0x0, "l"
	DCB	0x0, "o", 0x0, "a", 0x0, "d", 0x0, " ", 0x0, "t", 0x0, "y"
	DCB	0x0, "p", 0x0, "e", 0x0, ",", 0x0, " ", 0x0, "s", 0x0, "p"
	DCB	0x0, "i", 0x0, "n", 0x0, " ", 0x0, "f", 0x0, "o", 0x0, "r"
	DCB	0x0, "e", 0x0, "v", 0x0, "e", 0x0, "r", 0x0, 0xd, 0x0, 0xa
	DCB	0x0, 0x0, 0x0				; `string'

  00000			 AREA	 |.rdata|, DATA, READONLY
|??_C@_1GK@MMIDCEGF@?$AA?$CL?$AAO?$AAE?$AAM?$AAL?$AAa?$AAu?$AAn?$AAc?$AAh?$AA?$CI?$AA0?$AAx?$AA?$CF?$AA0?$AA8?$AAx?$AA?0?$AA?5?$AA0?$AAx?$AA?$CF?$AA0?$AA8?$AAx?$AA?0?$AA?5?$AA0?$AAx?$AA?$CF?$AA0?$AA8@| DCB "+"
	DCB	0x0, "O", 0x0, "E", 0x0, "M", 0x0, "L", 0x0, "a", 0x0, "u"
	DCB	0x0, "n", 0x0, "c", 0x0, "h", 0x0, "(", 0x0, "0", 0x0, "x"
	DCB	0x0, "%", 0x0, "0", 0x0, "8", 0x0, "x", 0x0, ",", 0x0, " "
	DCB	0x0, "0", 0x0, "x", 0x0, "%", 0x0, "0", 0x0, "8", 0x0, "x"
	DCB	0x0, ",", 0x0, " ", 0x0, "0", 0x0, "x", 0x0, "%", 0x0, "0"
	DCB	0x0, "8", 0x0, "x", 0x0, ",", 0x0, " ", 0x0, "0", 0x0, "x"
	DCB	0x0, "%", 0x0, "0", 0x0, "8", 0x0, "x", 0x0, " ", 0x0, "-"
	DCB	0x0, " ", 0x0, "%", 0x0, "d", 0x0, "/", 0x0, "%", 0x0, "d"
	DCB	0x0, ")", 0x0, 0xd, 0x0, 0xa, 0x0, 0x0, 0x0 ; `string'
; Function compile flags: /Ogspy

  00000			 AREA	 |.text|, CODE, ARM

  00000		 |OEMLaunch| PROC

; 637  : {

  00000		 |$LN79@OEMLaunch|
  00000	e92d43f0	 stmdb       sp!, {r4 - r9, lr}
  00004	e24dd00c	 sub         sp, sp, #0xC
  00008		 |$M48492|
  00008	e1a05003	 mov         r5, r3
  0000c	e1a08002	 mov         r8, r2
  00010	e1a09001	 mov         r9, r1
  00014	e1a07000	 mov         r7, r0

; 638  :     BSP_ARGS *pArgs = OALCAtoUA(IMAGE_SHARE_ARGS_CA);
; 639  : 
; 640  : 	UNREFERENCED_PARAMETER(size);
; 641  : 	UNREFERENCED_PARAMETER(pRomHeader);
; 642  : 
; 643  :     OALMSG(1, (L"+OEMLaunch(0x%08x, 0x%08x, 0x%08x, 0x%08x - %d/%d)\r\n", start, size,
; 644  :         launch, pRomHeader, g_eboot.bootDeviceType, g_eboot.type)); // OAL_INFO

  00018	e59f6224	 ldr         r6, [pc, #0x224]
  0001c	e59f021c	 ldr         r0, [pc, #0x21C]
  00020	e1a03008	 mov         r3, r8
  00024	e5964004	 ldr         r4, [r6, #4]
  00028	e596e000	 ldr         lr, [r6]
  0002c	e1a02009	 mov         r2, r9
  00030	e1a01007	 mov         r1, r7
  00034	e58d4008	 str         r4, [sp, #8]
  00038	e58de004	 str         lr, [sp, #4]
  0003c	e58d5000	 str         r5, [sp]
  00040	eb000000	 bl          NKDbgPrintfW

; 645  : 
; 646  :     // Depending on protocol there can be some action required
; 647  :     switch (g_eboot.bootDeviceType)

  00044	e5963000	 ldr         r3, [r6]
  00048	e59f51ec	 ldr         r5, [pc, #0x1EC]
  0004c	e3530002	 cmp         r3, #2
  00050	0a000018	 beq         |$LN21@OEMLaunch|
  00054	e3530004	 cmp         r3, #4

; 732  :                     break;
; 733  : 			}
; 734  :             break;
; 735  : 
; 736  :         default:        
; 737  :             launch = g_eboot.launchAddress;
; 738  :             break;

  00058	1a00002b	 bne         |$LN17@OEMLaunch|
  0005c	e5963004	 ldr         r3, [r6, #4]
  00060	e3530001	 cmp         r3, #1
  00064	0a000036	 beq         |$LN16@OEMLaunch|

; 648  : 	{
; 649  : #if BUILDING_EBOOT_SD
; 650  :         case BOOT_SDCARD_TYPE: // 4
; 651  :             switch (g_eboot.type)

  00068	e3530006	 cmp         r3, #6
  0006c	0a000005	 beq         |$LN26@OEMLaunch|

; 673  : 					}
; 674  :                     launch = g_eboot.launchAddress;
; 675  :                     break;
; 676  : 					
; 677  : #if 0
; 678  : /*				case DOWNLOAD_TYPE_EBOOT:
; 679  :                 case DOWNLOAD_TYPE_XLDR:
; 680  :                     OALMSG(OAL_INFO, (L"INFO: "
; 681  :                         L"XLDR/EBOOT/IPL downloaded, spin forever\r\n"
; 682  :                         ));
; 683  :                     while (TRUE);
; 684  :                     break;
; 685  : */
; 686  : #endif
; 687  :                 default:
; 688  :                     OALMSG(OAL_ERROR, (L"ERROR: OEMLaunch: Unknown download type, spin forever\r\n"));

  00070	e59f31ac	 ldr         r3, [pc, #0x1AC]
  00074	e5933440	 ldr         r3, [r3, #0x440]
  00078	e3130001	 tst         r3, #1
  0007c	159f01a4	 ldrne       r0, [pc, #0x1A4]
  00080	1b000000	 blne        NKDbgPrintfW
  00084		 |$LL23@OEMLaunch|

; 689  :                     for(;;);

  00084	eafffffe	 b           |$LL23@OEMLaunch|
  00088		 |$LN26@OEMLaunch|

; 652  : 			{
; 653  : #if 0
; 654  : /*				case DOWNLOAD_TYPE_FLASHRAM:
; 655  :                     if (BLFlashDownload(&g_bootCfg, g_kitlDevices) != BL_JUMP)
; 656  : 					{
; 657  :                         OALMSG(OAL_ERROR, (L"ERROR: OEMLaunch: Image load from flash memory failed\r\n"));
; 658  :                         goto cleanUp;
; 659  : 					}
; 660  :                     launch = g_eboot.launchAddress;
; 661  :                     break;
; 662  : */
; 663  : #endif
; 664  :                 case DOWNLOAD_TYPE_RAM: // 1
; 665  :                     launch = (UINT32)OEMMapMemAddr(start, launch);
; 666  :                     break;
; 667  : 					
; 668  :                 case DOWNLOAD_TYPE_FLASHNAND: // 6
; 669  :                     if (BLFlashDownload(&g_bootCfg, g_kitlDevices) != BL_JUMP)

  00088	e59f11a8	 ldr         r1, [pc, #0x1A8]
  0008c	e1a00005	 mov         r0, r5
  00090	eb000000	 bl          BLFlashDownload
  00094	e3500001	 cmp         r0, #1
  00098	0a00001b	 beq         |$LN17@OEMLaunch|

; 670  : 					{
; 671  :                         OALMSG(OAL_ERROR, (L"ERROR: OEMLaunch: Image load from flash memory failed\r\n"));

  0009c	e59f3180	 ldr         r3, [pc, #0x180]
  000a0	e5933440	 ldr         r3, [r3, #0x440]
  000a4	e3130001	 tst         r3, #1
  000a8	0a000056	 beq         |$cleanUp$47799|
  000ac	e59f0180	 ldr         r0, [pc, #0x180]
  000b0	eb000000	 bl          NKDbgPrintfW

; 672  :                         goto cleanUp;

  000b4	ea000053	 b           |$cleanUp$47799|
  000b8		 |$LN21@OEMLaunch|

; 690  :                     break;
; 691  : 			}
; 692  :             break;
; 693  : 
; 694  : #endif
; 695  : 
; 696  :         case OAL_KITL_TYPE_ETH:
; 697  :             BLEthConfig(pArgs);

  000b8	e3a0020a	 mov         r0, #0xA, 4
  000bc	eb000000	 bl          BLEthConfig

; 698  :             switch (g_eboot.type)

  000c0	e5963004	 ldr         r3, [r6, #4]
  000c4	e3530001	 cmp         r3, #1
  000c8	0a00001d	 beq         |$LN16@OEMLaunch|
  000cc	e3530002	 cmp         r3, #2
  000d0	9a000015	 bls         |$LN9@OEMLaunch|
  000d4	e3530004	 cmp         r3, #4
  000d8	9a00000d	 bls         |$LN15@OEMLaunch|
  000dc	e3530005	 cmp         r3, #5
  000e0	9a000011	 bls         |$LN9@OEMLaunch|
  000e4	e3530007	 cmp         r3, #7
  000e8	9affffe6	 bls         |$LN26@OEMLaunch|
  000ec	e3530008	 cmp         r3, #8
  000f0	1a00000d	 bne         |$LN9@OEMLaunch|

; 722  :                     break;
; 723  : 
; 724  : 				case DOWNLOAD_TYPE_LOGO:
; 725  :                     OALMSG(OAL_INFO, (L"INFO: Splashcreen logo downloaded, spin forever\r\n"));

  000f4	e59f3128	 ldr         r3, [pc, #0x128]
  000f8	e5933440	 ldr         r3, [r3, #0x440]
  000fc	e3130008	 tst         r3, #8
  00100	159f0128	 ldrne       r0, [pc, #0x128]
  00104	1b000000	 blne        NKDbgPrintfW
  00108		 |$LL11@OEMLaunch|

; 726  :                     for(;;);

  00108	eafffffe	 b           |$LL11@OEMLaunch|
  0010c		 |$LN17@OEMLaunch|

; 699  : 			{
; 700  : #ifdef IMGMULTIXIP
; 701  :                 case DOWNLOAD_TYPE_EXT:
; 702  : #endif					
; 703  :                 case DOWNLOAD_TYPE_FLASHNAND:
; 704  : 				case DOWNLOAD_TYPE_FLASHNOR:
; 705  :                     if (BLFlashDownload(&g_bootCfg, g_kitlDevices) != BL_JUMP)
; 706  :                         {
; 707  :                         OALMSG(OAL_ERROR, (L"ERROR: OEMLaunch: "
; 708  :                             L"Image load from flash memory failed\r\n"));
; 709  :                         goto cleanUp;
; 710  :                         }
; 711  :                     launch = g_eboot.launchAddress;

  0010c	e596400c	 ldr         r4, [r6, #0xC]

; 712  :                     break;

  00110	ea00000f	 b           |$LN19@OEMLaunch|
  00114		 |$LN15@OEMLaunch|

; 716  :                     break;
; 717  : 
; 718  :                 case DOWNLOAD_TYPE_EBOOT:
; 719  :                 case DOWNLOAD_TYPE_XLDR:
; 720  :                     OALMSG(OAL_INFO, (L"INFO: XLDR/EBOOT/IPL downloaded, spin forever\r\n"));

  00114	e59f3108	 ldr         r3, [pc, #0x108]
  00118	e5933440	 ldr         r3, [r3, #0x440]
  0011c	e3130008	 tst         r3, #8
  00120	159f0104	 ldrne       r0, [pc, #0x104]
  00124	1b000000	 blne        NKDbgPrintfW
  00128		 |$LL14@OEMLaunch|

; 721  :                     for(;;);

  00128	eafffffe	 b           |$LL14@OEMLaunch|
  0012c		 |$LN9@OEMLaunch|

; 727  :                     break;
; 728  : 
; 729  :                 default:
; 730  :                     OALMSG(OAL_ERROR, (L"ERROR: OEMLaunch: Unknown download type, spin forever\r\n"));

  0012c	e59f30f0	 ldr         r3, [pc, #0xF0]
  00130	e5933440	 ldr         r3, [r3, #0x440]
  00134	e3130001	 tst         r3, #1
  00138	159f00e8	 ldrne       r0, [pc, #0xE8]
  0013c	1b000000	 blne        NKDbgPrintfW
  00140		 |$LL8@OEMLaunch|

; 731  :                     for(;;);

  00140	eafffffe	 b           |$LL8@OEMLaunch|
  00144		 |$LN16@OEMLaunch|

; 713  : 
; 714  :                 case DOWNLOAD_TYPE_RAM:
; 715  :                     launch = (UINT32)OEMMapMemAddr(start, launch);

  00144	e1a01008	 mov         r1, r8
  00148	e1a00007	 mov         r0, r7
  0014c	eb000000	 bl          OEMMapMemAddr
  00150	e1a04000	 mov         r4, r0
  00154		 |$LN19@OEMLaunch|

; 739  :         }
; 740  : 
; 741  : #ifndef BSP_NO_NAND_IN_SDBOOT
; 742  : 	/* if loading from NAND then do not need to flash NAND again */
; 743  :     if ((g_bootCfg.flashNKFlags & ENABLE_FLASH_NK) && (g_eboot.bootDeviceType != OAL_KITL_TYPE_FLASH) && 
; 744  : 	    (start != (IMAGE_WINCE_CODE_CA + NAND_ROMOFFSET)) && // 0x80002000 + 0x40000000
; 745  : 	    (start != (IMAGE_WINCE_CODE_CA + NOR_ROMOFFSET)))	 // 0x80002000 + 0x60000000

  00154	e5953080	 ldr         r3, [r5, #0x80]
  00158	e59f50c4	 ldr         r5, [pc, #0xC4]
  0015c	e3130001	 tst         r3, #1
  00160	0a000018	 beq         |$LN66@OEMLaunch|
  00164	e5963000	 ldr         r3, [r6]
  00168	e3530003	 cmp         r3, #3
  0016c	0a000015	 beq         |$LN66@OEMLaunch|
  00170	e3a03103	 mov         r3, #3, 2
  00174	e3833a02	 orr         r3, r3, #2, 20
  00178	e1570003	 cmp         r7, r3
  0017c	0a000011	 beq         |$LN66@OEMLaunch|
  00180	e3a0320e	 mov         r3, #0xE, 4
  00184	e3833a02	 orr         r3, r3, #2, 20
  00188	e1570003	 cmp         r7, r3
  0018c	0a00000d	 beq         |$LN66@OEMLaunch|

; 746  : 	{
; 747  : 		OALMSG(1, (L"WriteFlashNK: start = 0x%x,size = 0x%x\r\n",start,size));	

  00190	e59f0088	 ldr         r0, [pc, #0x88]
  00194	e1a02009	 mov         r2, r9
  00198	e1a01007	 mov         r1, r7
  0019c	eb000000	 bl          NKDbgPrintfW

; 748  : 		if( !WriteFlashNK(start, size))

  001a0	e1a01009	 mov         r1, r9
  001a4	e1a00007	 mov         r0, r7
  001a8	eb000000	 bl          WriteFlashNK
  001ac	e3500000	 cmp         r0, #0
  001b0	1a000004	 bne         |$LN66@OEMLaunch|

; 749  : 			OALMSG(OAL_ERROR, (L"ERROR: OEMLaunch: Flash NK.bin failed, start=%x\r\n", start));

  001b4	e5953440	 ldr         r3, [r5, #0x440]
  001b8	e3130001	 tst         r3, #1
  001bc	159f0058	 ldrne       r0, [pc, #0x58]
  001c0	11a01007	 movne       r1, r7
  001c4	1b000000	 blne        NKDbgPrintfW
  001c8		 |$LN66@OEMLaunch|

; 750  : 	}
; 751  : #endif
; 752  : 
; 753  :     // Check if we get launch address
; 754  :     if (launch == (UINT32)INVALID_HANDLE_VALUE)

  001c8	e3740001	 cmn         r4, #1
  001cc	1a000004	 bne         |$LN1@OEMLaunch|
  001d0	e5953440	 ldr         r3, [r5, #0x440]

; 755  : 	{
; 756  :         OALMSG(OAL_ERROR, (L"ERROR: OEMLaunch: Unknown image launch address, spin forever\r\n"));

  001d4	e3130001	 tst         r3, #1
  001d8	159f0038	 ldrne       r0, [pc, #0x38]
  001dc	1b000000	 blne        NKDbgPrintfW
  001e0		 |$LL2@OEMLaunch|

; 757  :         for(;;);

  001e0	eafffffe	 b           |$LL2@OEMLaunch|
  001e4		 |$LN1@OEMLaunch|

; 758  : 	}        
; 759  : 
; 760  :     // Print message, flush caches and jump to image
; 761  :     OALLog(L"Launch Windows CE image by jumping to 0x%08x...\r\n\r\n", launch);

  001e4	e59f0028	 ldr         r0, [pc, #0x28]
  001e8	e1a01004	 mov         r1, r4
  001ec	eb000000	 bl          NKDbgPrintfW

; 762  : 
; 763  : 	OEMDeinitDebugSerial();

  001f0	eb000000	 bl          OEMDeinitDebugSerial

; 764  :     OEMPlatformDeinit();

  001f4	eb000000	 bl          OEMPlatformDeinit

; 765  :     ClearDisplayBuffer();

  001f8	eb000000	 bl          ClearDisplayBuffer

; 766  :     JumpTo(OALVAtoPA((UCHAR*)launch));

  001fc	e1a00004	 mov         r0, r4
  00200	eb000000	 bl          OALVAtoPA
  00204	eb000000	 bl          JumpTo
  00208		 |$cleanUp$47799|

; 767  : 
; 768  : cleanUp:
; 769  :     return;
; 770  : }

  00208	e28dd00c	 add         sp, sp, #0xC
  0020c	e8bd43f0	 ldmia       sp!, {r4 - r9, lr}
  00210	e12fff1e	 bx          lr
  00214		 |$LN80@OEMLaunch|
  00214		 |$LN81@OEMLaunch|
  00214	00000000	 DCD         |??_C@_1GI@OMOEGIPN@?$AAL?$AAa?$AAu?$AAn?$AAc?$AAh?$AA?5?$AAW?$AAi?$AAn?$AAd?$AAo?$AAw?$AAs?$AA?5?$AAC?$AAE?$AA?5?$AAi?$AAm?$AAa?$AAg?$AAe?$AA?5?$AAb?$AAy?$AA?5?$AAj?$AAu?$AAm?$AAp?$AAi@|
  00218		 |$LN82@OEMLaunch|
  00218	00000000	 DCD         |??_C@_1HO@MGHNOKAM@?$AAE?$AAR?$AAR?$AAO?$AAR?$AA?3?$AA?5?$AAO?$AAE?$AAM?$AAL?$AAa?$AAu?$AAn?$AAc?$AAh?$AA?3?$AA?5?$AAU?$AAn?$AAk?$AAn?$AAo?$AAw?$AAn?$AA?5?$AAi?$AAm?$AAa?$AAg?$AAe?$AA?5@|
  0021c		 |$LN83@OEMLaunch|
  0021c	00000000	 DCD         |??_C@_1GE@FBKDALPO@?$AAE?$AAR?$AAR?$AAO?$AAR?$AA?3?$AA?5?$AAO?$AAE?$AAM?$AAL?$AAa?$AAu?$AAn?$AAc?$AAh?$AA?3?$AA?5?$AAF?$AAl?$AAa?$AAs?$AAh?$AA?5?$AAN?$AAK?$AA?4?$AAb?$AAi?$AAn?$AA?5?$AAf@|
  00220		 |$LN84@OEMLaunch|
  00220	00000000	 DCD         |??_C@_1FC@IKOIDMGO@?$AAW?$AAr?$AAi?$AAt?$AAe?$AAF?$AAl?$AAa?$AAs?$AAh?$AAN?$AAK?$AA?3?$AA?5?$AAs?$AAt?$AAa?$AAr?$AAt?$AA?5?$AA?$DN?$AA?5?$AA0?$AAx?$AA?$CF?$AAx?$AA?0?$AAs?$AAi?$AAz?$AAe?$AA?5@|
  00224		 |$LN85@OEMLaunch|
  00224	00000000	 DCD         |dpCurSettings|
  00228		 |$LN86@OEMLaunch|
  00228	00000000	 DCD         |??_C@_1HA@PPNIDEHG@?$AAE?$AAR?$AAR?$AAO?$AAR?$AA?3?$AA?5?$AAO?$AAE?$AAM?$AAL?$AAa?$AAu?$AAn?$AAc?$AAh?$AA?3?$AA?5?$AAU?$AAn?$AAk?$AAn?$AAo?$AAw?$AAn?$AA?5?$AAd?$AAo?$AAw?$AAn?$AAl?$AAo@|
  0022c		 |$LN87@OEMLaunch|
  0022c	00000000	 DCD         |??_C@_1GA@LEGMELFL@?$AAI?$AAN?$AAF?$AAO?$AA?3?$AA?5?$AAX?$AAL?$AAD?$AAR?$AA?1?$AAE?$AAB?$AAO?$AAO?$AAT?$AA?1?$AAI?$AAP?$AAL?$AA?5?$AAd?$AAo?$AAw?$AAn?$AAl?$AAo?$AAa?$AAd?$AAe?$AAd?$AA?0@|
  00230		 |$LN88@OEMLaunch|
  00230	00000000	 DCD         |??_C@_1GE@FFBNFJNC@?$AAI?$AAN?$AAF?$AAO?$AA?3?$AA?5?$AAS?$AAp?$AAl?$AAa?$AAs?$AAh?$AAc?$AAr?$AAe?$AAe?$AAn?$AA?5?$AAl?$AAo?$AAg?$AAo?$AA?5?$AAd?$AAo?$AAw?$AAn?$AAl?$AAo?$AAa?$AAd?$AAe@|
  00234		 |$LN89@OEMLaunch|
  00234	00000000	 DCD         |??_C@_1HA@LNJPPCBO@?$AAE?$AAR?$AAR?$AAO?$AAR?$AA?3?$AA?5?$AAO?$AAE?$AAM?$AAL?$AAa?$AAu?$AAn?$AAc?$AAh?$AA?3?$AA?5?$AAI?$AAm?$AAa?$AAg?$AAe?$AA?5?$AAl?$AAo?$AAa?$AAd?$AA?5?$AAf?$AAr?$AAo@|
  00238		 |$LN90@OEMLaunch|
  00238	00000000	 DCD         |g_kitlDevices|
  0023c		 |$LN91@OEMLaunch|
  0023c	00000000	 DCD         |g_bootCfg|
  00240		 |$LN92@OEMLaunch|
  00240	00000000	 DCD         |??_C@_1GK@MMIDCEGF@?$AA?$CL?$AAO?$AAE?$AAM?$AAL?$AAa?$AAu?$AAn?$AAc?$AAh?$AA?$CI?$AA0?$AAx?$AA?$CF?$AA0?$AA8?$AAx?$AA?0?$AA?5?$AA0?$AAx?$AA?$CF?$AA0?$AA8?$AAx?$AA?0?$AA?5?$AA0?$AAx?$AA?$CF?$AA0?$AA8@|
  00244		 |$LN93@OEMLaunch|
  00244	00000000	 DCD         |g_eboot|
  00248		 |$M48493|

			 ENDP  ; |OEMLaunch|

	END
