; Listing generated by Microsoft (R) Optimizing Compiler Version 14.01.60511.01 

	TTL	C:\WINCE600\PLATFORM\COMMON\SRC\SOC\COMMON_TI_V1\COMMON_TI\OAL\OMAP_INTR\map.c
	CODE32

  00000			 AREA	 |.drectve|, DRECTVE
	DCB	"-defaultlib:LIBCMT "
	DCB	"-defaultlib:OLDNAMES "


  00000			 AREA	 |.rdata|, DATA, READONLY
|EdbgVendorIds| DCW 0x0
	DCW	0x0
	DCD	0x4033
	DCB	0x1
	DCB	"AD", 0x0
	DCW	0x1050
	DCW	0x940
	DCD	0x4005
	DCB	0x1
	DCB	"LS", 0x0
	DCW	0x1050
	DCW	0x940
	DCD	0x2078
	DCB	0x1
	DCB	"LS", 0x0
	DCW	0x10ec
	DCW	0x8029
	DCD	0xc0f0
	DCB	0x1
	DCB	"KS", 0x0
	DCW	0x10ec
	DCW	0x8129
	DCD	0x0
	DCB	0x4
	DCB	"RT", 0x0
	DCW	0x10ec
	DCW	0x8139
	DCD	0x900b
	DCB	0x4
	DCB	"RT", 0x0
	DCW	0x10ec
	DCW	0x8139
	DCD	0xd0c9
	DCB	0x4
	DCB	"RT", 0x0
	DCW	0x10ec
	DCW	0x8139
	DCD	0xe04c
	DCB	0x4
	DCB	"RT", 0x0
	DCW	0x1186
	DCW	0x1300
	DCD	0x50ba
	DCB	0x4
	DCB	"DL", 0x0
	DCW	0x100b
	DCW	0x20
	DCD	0xa0cc
	DCB	0x5
	DCB	"NG", 0x0
	DCW	0x10b7
	DCW	0x9050
	DCD	0x6008
	DCB	0x6
	DCB	"3C", 0x0
	DCW	0x10b7
	DCW	0x9200
	DCD	0x476
	DCB	0x6
	DCB	"3C", 0x0
	EXPORT	|OALIntrMapInit|
	EXPORT	|??_C@_1CO@DBMFJBPK@?$AA?9?$AAO?$AAE?$AAM?$AAI?$AAn?$AAt?$AAe?$AAr?$AAr?$AAu?$AAp?$AAt?$AAM?$AAa?$AAp?$AAI?$AAn?$AAi?$AAt?$AA?$AN?$AA?6?$AA?$AA@| [ DATA ] ; `string'
	EXPORT	|??_C@_1CO@OKABMONB@?$AA?$CL?$AAO?$AAE?$AAM?$AAI?$AAn?$AAt?$AAe?$AAr?$AAr?$AAu?$AAp?$AAt?$AAM?$AAa?$AAp?$AAI?$AAn?$AAi?$AAt?$AA?$AN?$AA?6?$AA?$AA@| [ DATA ] ; `string'
	IMPORT	|NKDbgPrintfW|
	IMPORT	|dpCurSettings|

  00000			 AREA	 |.bss|, NOINIT
|s_oalSysIntr2Irq| % 0x5a0
|s_oalIrq2SysIntr| % 0x500
|s_oalSysIntr2Irq| % 0x5a0
; File c:\wince600\platform\common\src\soc\common_ti_v1\common_ti\oal\omap_intr\map.c

  00000			 AREA	 |.pdata|, PDATA
|$T43375| DCD	|$LN28@OALIntrMap|
	DCD	0x40002001

  00000			 AREA	 |.rdata|, DATA, READONLY
|??_C@_1CO@DBMFJBPK@?$AA?9?$AAO?$AAE?$AAM?$AAI?$AAn?$AAt?$AAe?$AAr?$AAr?$AAu?$AAp?$AAt?$AAM?$AAa?$AAp?$AAI?$AAn?$AAi?$AAt?$AA?$AN?$AA?6?$AA?$AA@| DCB "-"
	DCB	0x0, "O", 0x0, "E", 0x0, "M", 0x0, "I", 0x0, "n", 0x0, "t"
	DCB	0x0, "e", 0x0, "r", 0x0, "r", 0x0, "u", 0x0, "p", 0x0, "t"
	DCB	0x0, "M", 0x0, "a", 0x0, "p", 0x0, "I", 0x0, "n", 0x0, "i"
	DCB	0x0, "t", 0x0, 0xd, 0x0, 0xa, 0x0, 0x0, 0x0 ; `string'

  00000			 AREA	 |.rdata|, DATA, READONLY
|??_C@_1CO@OKABMONB@?$AA?$CL?$AAO?$AAE?$AAM?$AAI?$AAn?$AAt?$AAe?$AAr?$AAr?$AAu?$AAp?$AAt?$AAM?$AAa?$AAp?$AAI?$AAn?$AAi?$AAt?$AA?$AN?$AA?6?$AA?$AA@| DCB "+"
	DCB	0x0, "O", 0x0, "E", 0x0, "M", 0x0, "I", 0x0, "n", 0x0, "t"
	DCB	0x0, "e", 0x0, "r", 0x0, "r", 0x0, "u", 0x0, "p", 0x0, "t"
	DCB	0x0, "M", 0x0, "a", 0x0, "p", 0x0, "I", 0x0, "n", 0x0, "i"
	DCB	0x0, "t", 0x0, 0xd, 0x0, 0xa, 0x0, 0x0, 0x0 ; `string'
; Function compile flags: /Ogspy

  00000			 AREA	 |.text|, CODE, ARM

  00000		 |OALIntrMapInit| PROC

; 41   : {

  00000		 |$LN28@OALIntrMap|
  00000	e92d4010	 stmdb       sp!, {r4, lr}
  00004		 |$M43372|

; 42   :     UINT32 i, j;
; 43   : 
; 44   :     OALMSG(OAL_FUNC&&OAL_INTR, (L"+OEMInterruptMapInit\r\n"));

  00004	e59f4070	 ldr         r4, [pc, #0x70]
  00008	e5943440	 ldr         r3, [r4, #0x440]
  0000c	e3130004	 tst         r3, #4
  00010	0a000004	 beq         |$LN12@OALIntrMap|
  00014	e3130901	 tst         r3, #1, 18
  00018	0a000002	 beq         |$LN12@OALIntrMap|
  0001c	e59f0054	 ldr         r0, [pc, #0x54]
  00020	eb000000	 bl          NKDbgPrintfW
  00024	e5943440	 ldr         r3, [r4, #0x440]
  00028		 |$LN12@OALIntrMap|

; 45   : 
; 46   :     // Initialize interrupt maps
; 47   :     for (i = 0; i < SYSINTR_MAXIMUM; i++) // 72
; 48   : 	{
; 49   :         for (j = 0; j < OMAP_IRQ_PER_SYSINTR; j++) // 5 - \COMMON_TI_V1\COMMON_TI\INC\intr.h
; 50   : 		{
; 51   :             s_oalSysIntr2Irq[i][j] = (DWORD) OAL_INTR_IRQ_UNDEFINED;

  00028	e59f1044	 ldr         r1, [pc, #0x44]
  0002c	e3e0e000	 mvn         lr, #0
  00030	e1a02001	 mov         r2, r1
  00034	e2810e5a	 add         r0, r1, #0x5A, 28
  00038		 |$LN22@OALIntrMap|
  00038	e482e004	 str         lr, [r2], #4
  0003c	e1520000	 cmp         r2, r0
  00040	1afffffc	 bne         |$LN22@OALIntrMap|

; 52   : 		}
; 53   : 	}
; 54   :     for (i = 0; i < OMAP_IRQ_MAXIMUM; i++) //320 - \COMMON_TI_V1\COMMON_TI\INC\intr.h
; 55   : 	{
; 56   :         s_oalIrq2SysIntr[i] = (DWORD) SYSINTR_UNDEFINED;

  00044	e2812e5a	 add         r2, r1, #0x5A, 28
  00048	e2821c05	 add         r1, r2, #5, 24
  0004c		 |$LN24@OALIntrMap|
  0004c	e482e004	 str         lr, [r2], #4
  00050	e1520001	 cmp         r2, r1
  00054	1afffffc	 bne         |$LN24@OALIntrMap|

; 57   : 	}
; 58   : 
; 59   :     OALMSG(OAL_FUNC&&OAL_INTR, (L"-OEMInterruptMapInit\r\n"));

  00058	e3130004	 tst         r3, #4
  0005c	13130901	 tstne       r3, #1, 18
  00060	159f0008	 ldrne       r0, [pc, #8]
  00064	1b000000	 blne        NKDbgPrintfW

; 60   : }

  00068	e8bd4010	 ldmia       sp!, {r4, lr}
  0006c	e12fff1e	 bx          lr
  00070		 |$LN29@OALIntrMap|
  00070		 |$LN30@OALIntrMap|
  00070	00000000	 DCD         |??_C@_1CO@DBMFJBPK@?$AA?9?$AAO?$AAE?$AAM?$AAI?$AAn?$AAt?$AAe?$AAr?$AAr?$AAu?$AAp?$AAt?$AAM?$AAa?$AAp?$AAI?$AAn?$AAi?$AAt?$AA?$AN?$AA?6?$AA?$AA@|
  00074		 |$LN31@OALIntrMap|
  00074	00000000	 DCD         |s_oalSysIntr2Irq|
  00078		 |$LN32@OALIntrMap|
  00078	00000000	 DCD         |??_C@_1CO@OKABMONB@?$AA?$CL?$AAO?$AAE?$AAM?$AAI?$AAn?$AAt?$AAe?$AAr?$AAr?$AAu?$AAp?$AAt?$AAM?$AAa?$AAp?$AAI?$AAn?$AAi?$AAt?$AA?$AN?$AA?6?$AA?$AA@|
  0007c		 |$LN33@OALIntrMap|
  0007c	00000000	 DCD         |dpCurSettings|
  00080		 |$M43373|

			 ENDP  ; |OALIntrMapInit|

	EXPORT	|OALIntrStaticTranslate|
	EXPORT	|??_C@_1DE@CBLJKBBB@?$AA?9?$AAO?$AAA?$AAL?$AAI?$AAn?$AAt?$AAr?$AAS?$AAt?$AAa?$AAt?$AAi?$AAc?$AAT?$AAr?$AAa?$AAn?$AAs?$AAl?$AAa?$AAt?$AAe?$AA?$AN?$AA?6?$AA?$AA@| [ DATA ] ; `string'
	EXPORT	|??_C@_1EE@DPKCCBO@?$AA?$CL?$AAO?$AAA?$AAL?$AAI?$AAn?$AAt?$AAr?$AAS?$AAt?$AAa?$AAt?$AAi?$AAc?$AAT?$AAr?$AAa?$AAn?$AAs?$AAl?$AAa?$AAt?$AAe?$AA?$CI?$AA?$CF?$AAd?$AA?0?$AA?5?$AA?$CF?$AAd?$AA?$CJ?$AA?$AN@| [ DATA ] ; `string'

  00000			 AREA	 |.pdata|, PDATA
|$T43392| DCD	|$LN13@OALIntrSta|
	DCD	0x40002301

  00000			 AREA	 |.rdata|, DATA, READONLY
|??_C@_1DE@CBLJKBBB@?$AA?9?$AAO?$AAA?$AAL?$AAI?$AAn?$AAt?$AAr?$AAS?$AAt?$AAa?$AAt?$AAi?$AAc?$AAT?$AAr?$AAa?$AAn?$AAs?$AAl?$AAa?$AAt?$AAe?$AA?$AN?$AA?6?$AA?$AA@| DCB "-"
	DCB	0x0, "O", 0x0, "A", 0x0, "L", 0x0, "I", 0x0, "n", 0x0, "t"
	DCB	0x0, "r", 0x0, "S", 0x0, "t", 0x0, "a", 0x0, "t", 0x0, "i"
	DCB	0x0, "c", 0x0, "T", 0x0, "r", 0x0, "a", 0x0, "n", 0x0, "s"
	DCB	0x0, "l", 0x0, "a", 0x0, "t", 0x0, "e", 0x0, 0xd, 0x0, 0xa
	DCB	0x0, 0x0, 0x0				; `string'

  00000			 AREA	 |.rdata|, DATA, READONLY
|??_C@_1EE@DPKCCBO@?$AA?$CL?$AAO?$AAA?$AAL?$AAI?$AAn?$AAt?$AAr?$AAS?$AAt?$AAa?$AAt?$AAi?$AAc?$AAT?$AAr?$AAa?$AAn?$AAs?$AAl?$AAa?$AAt?$AAe?$AA?$CI?$AA?$CF?$AAd?$AA?0?$AA?5?$AA?$CF?$AAd?$AA?$CJ?$AA?$AN@| DCB "+"
	DCB	0x0, "O", 0x0, "A", 0x0, "L", 0x0, "I", 0x0, "n", 0x0, "t"
	DCB	0x0, "r", 0x0, "S", 0x0, "t", 0x0, "a", 0x0, "t", 0x0, "i"
	DCB	0x0, "c", 0x0, "T", 0x0, "r", 0x0, "a", 0x0, "n", 0x0, "s"
	DCB	0x0, "l", 0x0, "a", 0x0, "t", 0x0, "e", 0x0, "(", 0x0, "%"
	DCB	0x0, "d", 0x0, ",", 0x0, " ", 0x0, "%", 0x0, "d", 0x0, ")"
	DCB	0x0, 0xd, 0x0, 0xa, 0x0, 0x0, 0x0	; `string'
; Function compile flags: /Ogspy

  00000			 AREA	 |.text|, CODE, ARM

  00000		 |OALIntrStaticTranslate| PROC

; 69   : {

  00000		 |$LN13@OALIntrSta|
  00000	e92d4030	 stmdb       sp!, {r4, r5, lr}
  00004		 |$M43389|
  00004	e1a05001	 mov         r5, r1
  00008	e1a04000	 mov         r4, r0

; 70   : 
; 71   :     UINT32 i;
; 72   : 
; 73   :     OALMSG(1, (L"+OALIntrStaticTranslate(%d, %d)\r\n", sysIntr, irq)); //OAL_FUNC&&OAL_INTR

  0000c	e59f0074	 ldr         r0, [pc, #0x74]
  00010	e1a02005	 mov         r2, r5
  00014	e1a01004	 mov         r1, r4
  00018	eb000000	 bl          NKDbgPrintfW

; 74   :     if ((irq >= OMAP_IRQ_MAXIMUM) || (sysIntr >= SYSINTR_MAXIMUM))

  0001c	e3550d05	 cmp         r5, #5, 26
  00020	2a000012	 bcs         |$cleanUp$43181|
  00024	e3540048	 cmp         r4, #0x48
  00028	2a000010	 bcs         |$cleanUp$43181|

; 75   :         goto cleanUp;
; 76   : 
; 77   :     for (i = 0; i < OMAP_IRQ_PER_SYSINTR; i++)

  0002c	e59fe050	 ldr         lr, [pc, #0x50]
  00030	e0843104	 add         r3, r4, r4, lsl #2
  00034	e3a02000	 mov         r2, #0
  00038	e08e0103	 add         r0, lr, r3, lsl #2
  0003c		 |$LL4@OALIntrSta|

; 78   : 	{
; 79   :         if (s_oalSysIntr2Irq[sysIntr][i] != (DWORD) OAL_INTR_IRQ_UNDEFINED) 

  0003c	e5903000	 ldr         r3, [r0]
  00040	e3730001	 cmn         r3, #1
  00044	0a000004	 beq         |$LN1@OALIntrSta|
  00048	e2822001	 add         r2, r2, #1
  0004c	e3520005	 cmp         r2, #5
  00050	e2800004	 add         r0, r0, #4
  00054	3afffff8	 bcc         |$LL4@OALIntrSta|

; 74   :     if ((irq >= OMAP_IRQ_MAXIMUM) || (sysIntr >= SYSINTR_MAXIMUM))

  00058	ea000004	 b           |$cleanUp$43181|
  0005c		 |$LN1@OALIntrSta|

; 80   :         	continue;
; 81   :         s_oalSysIntr2Irq[sysIntr][i] = irq;

  0005c	e0843104	 add         r3, r4, r4, lsl #2
  00060	e0833002	 add         r3, r3, r2

; 82   :         s_oalIrq2SysIntr[irq] = sysIntr;

  00064	e28e2e5a	 add         r2, lr, #0x5A, 28
  00068	e7824105	 str         r4, [r2, +r5, lsl #2]
  0006c	e78e5103	 str         r5, [lr, +r3, lsl #2]
  00070		 |$cleanUp$43181|

; 83   :         break;
; 84   : 	}
; 85   : 
; 86   : cleanUp:
; 87   :     OALMSG(1, (L"-OALIntrStaticTranslate\r\n"));

  00070	e59f0008	 ldr         r0, [pc, #8]
  00074	eb000000	 bl          NKDbgPrintfW

; 88   : }

  00078	e8bd4030	 ldmia       sp!, {r4, r5, lr}
  0007c	e12fff1e	 bx          lr
  00080		 |$LN14@OALIntrSta|
  00080		 |$LN15@OALIntrSta|
  00080	00000000	 DCD         |??_C@_1DE@CBLJKBBB@?$AA?9?$AAO?$AAA?$AAL?$AAI?$AAn?$AAt?$AAr?$AAS?$AAt?$AAa?$AAt?$AAi?$AAc?$AAT?$AAr?$AAa?$AAn?$AAs?$AAl?$AAa?$AAt?$AAe?$AA?$AN?$AA?6?$AA?$AA@|
  00084		 |$LN16@OALIntrSta|
  00084	00000000	 DCD         |s_oalSysIntr2Irq|
  00088		 |$LN17@OALIntrSta|
  00088	00000000	 DCD         |??_C@_1EE@DPKCCBO@?$AA?$CL?$AAO?$AAA?$AAL?$AAI?$AAn?$AAt?$AAr?$AAS?$AAt?$AAa?$AAt?$AAi?$AAc?$AAT?$AAr?$AAa?$AAn?$AAs?$AAl?$AAa?$AAt?$AAe?$AA?$CI?$AA?$CF?$AAd?$AA?0?$AA?5?$AA?$CF?$AAd?$AA?$CJ?$AA?$AN@|
  0008c		 |$M43390|

			 ENDP  ; |OALIntrStaticTranslate|

	EXPORT	|OALIntrTranslateSysIntr|
	EXPORT	|??_C@_1EA@JDMBMDEN@?$AA?9?$AAO?$AAA?$AAL?$AAT?$AAr?$AAa?$AAn?$AAs?$AAl?$AAa?$AAt?$AAe?$AAS?$AAy?$AAs?$AAI?$AAn?$AAt?$AAr?$AA?$CI?$AAr?$AAc?$AA?5?$AA?$DN?$AA?5?$AA?$CF?$AAd?$AA?$CJ?$AA?$AN?$AA?6?$AA?$AA@| [ DATA ] ; `string'
	EXPORT	|??_C@_1DG@HAMHNOBJ@?$AA?$CL?$AAO?$AAA?$AAL?$AAT?$AAr?$AAa?$AAn?$AAs?$AAl?$AAa?$AAt?$AAe?$AAS?$AAy?$AAs?$AAI?$AAn?$AAt?$AAr?$AA?$CI?$AA?$CF?$AAd?$AA?$CJ?$AA?$AN?$AA?6?$AA?$AA@| [ DATA ] ; `string'

  00000			 AREA	 |.pdata|, PDATA
|$T43413| DCD	|$LN10@OALIntrTra|
	DCD	0x40002401

  00000			 AREA	 |.rdata|, DATA, READONLY
|??_C@_1EA@JDMBMDEN@?$AA?9?$AAO?$AAA?$AAL?$AAT?$AAr?$AAa?$AAn?$AAs?$AAl?$AAa?$AAt?$AAe?$AAS?$AAy?$AAs?$AAI?$AAn?$AAt?$AAr?$AA?$CI?$AAr?$AAc?$AA?5?$AA?$DN?$AA?5?$AA?$CF?$AAd?$AA?$CJ?$AA?$AN?$AA?6?$AA?$AA@| DCB "-"
	DCB	0x0, "O", 0x0, "A", 0x0, "L", 0x0, "T", 0x0, "r", 0x0, "a"
	DCB	0x0, "n", 0x0, "s", 0x0, "l", 0x0, "a", 0x0, "t", 0x0, "e"
	DCB	0x0, "S", 0x0, "y", 0x0, "s", 0x0, "I", 0x0, "n", 0x0, "t"
	DCB	0x0, "r", 0x0, "(", 0x0, "r", 0x0, "c", 0x0, " ", 0x0, "="
	DCB	0x0, " ", 0x0, "%", 0x0, "d", 0x0, ")", 0x0, 0xd, 0x0, 0xa
	DCB	0x0, 0x0, 0x0				; `string'

  00000			 AREA	 |.rdata|, DATA, READONLY
|??_C@_1DG@HAMHNOBJ@?$AA?$CL?$AAO?$AAA?$AAL?$AAT?$AAr?$AAa?$AAn?$AAs?$AAl?$AAa?$AAt?$AAe?$AAS?$AAy?$AAs?$AAI?$AAn?$AAt?$AAr?$AA?$CI?$AA?$CF?$AAd?$AA?$CJ?$AA?$AN?$AA?6?$AA?$AA@| DCB "+"
	DCB	0x0, "O", 0x0, "A", 0x0, "L", 0x0, "T", 0x0, "r", 0x0, "a"
	DCB	0x0, "n", 0x0, "s", 0x0, "l", 0x0, "a", 0x0, "t", 0x0, "e"
	DCB	0x0, "S", 0x0, "y", 0x0, "s", 0x0, "I", 0x0, "n", 0x0, "t"
	DCB	0x0, "r", 0x0, "(", 0x0, "%", 0x0, "d", 0x0, ")", 0x0, 0xd
	DCB	0x0, 0xa, 0x0, 0x0, 0x0			; `string'
; Function compile flags: /Ogspy

  00000			 AREA	 |.text|, CODE, ARM

  00000		 |OALIntrTranslateSysIntr| PROC

; 101  : {

  00000		 |$LN10@OALIntrTra|
  00000	e92d40f0	 stmdb       sp!, {r4 - r7, lr}
  00004		 |$M43410|
  00004	e1a06002	 mov         r6, r2
  00008	e1a07001	 mov         r7, r1
  0000c	e1a04000	 mov         r4, r0

; 102  :     BOOL rc = FALSE;
; 103  : 
; 104  :     OALMSG(OAL_FUNC&&OAL_INTR, (L"+OALTranslateSysIntr(%d)\r\n", sysIntr));

  00010	e59f5074	 ldr         r5, [pc, #0x74]
  00014	e5953440	 ldr         r3, [r5, #0x440]
  00018	e3130004	 tst         r3, #4
  0001c	0a000005	 beq         |$LN4@OALIntrTra|
  00020	e3130901	 tst         r3, #1, 18
  00024	0a000003	 beq         |$LN4@OALIntrTra|
  00028	e59f0058	 ldr         r0, [pc, #0x58]
  0002c	e1a01004	 mov         r1, r4
  00030	eb000000	 bl          NKDbgPrintfW
  00034	e5953440	 ldr         r3, [r5, #0x440]
  00038		 |$LN4@OALIntrTra|

; 105  : 
; 106  :     // Valid SYSINTR?
; 107  :     if (sysIntr >= SYSINTR_MAXIMUM)

  00038	e3540048	 cmp         r4, #0x48

; 108  : 	{
; 109  :         rc = FALSE;
; 110  :         goto cleanUp;
; 111  : 	}
; 112  :     
; 113  :     *pCount = OMAP_IRQ_PER_SYSINTR;
; 114  :     *ppIrqs = s_oalSysIntr2Irq[sysIntr];

  0003c	359f2040	 ldrcc       r2, [pc, #0x40]
  00040	23a04000	 movcs       r4, #0
  00044	30843104	 addcc       r3, r4, r4, lsl #2
  00048	33a01005	 movcc       r1, #5
  0004c	30823103	 addcc       r3, r2, r3, lsl #2
  00050	35871000	 strcc       r1, [r7]
  00054	35863000	 strcc       r3, [r6]

; 115  :     rc = TRUE;

  00058	35953440	 ldrcc       r3, [r5, #0x440]
  0005c	33a04001	 movcc       r4, #1
  00060		 |$cleanUp$43200|

; 116  : 
; 117  : cleanUp:
; 118  :     OALMSG(OAL_FUNC&&OAL_INTR, (L"-OALTranslateSysIntr(rc = %d)\r\n", rc));

  00060	e3130004	 tst         r3, #4
  00064	13130901	 tstne       r3, #1, 18
  00068	159f0010	 ldrne       r0, [pc, #0x10]
  0006c	11a01004	 movne       r1, r4
  00070	1b000000	 blne        NKDbgPrintfW

; 119  : 
; 120  :     return rc;
; 121  : }

  00074	e1a00004	 mov         r0, r4
  00078	e8bd40f0	 ldmia       sp!, {r4 - r7, lr}
  0007c	e12fff1e	 bx          lr
  00080		 |$LN11@OALIntrTra|
  00080		 |$LN12@OALIntrTra|
  00080	00000000	 DCD         |??_C@_1EA@JDMBMDEN@?$AA?9?$AAO?$AAA?$AAL?$AAT?$AAr?$AAa?$AAn?$AAs?$AAl?$AAa?$AAt?$AAe?$AAS?$AAy?$AAs?$AAI?$AAn?$AAt?$AAr?$AA?$CI?$AAr?$AAc?$AA?5?$AA?$DN?$AA?5?$AA?$CF?$AAd?$AA?$CJ?$AA?$AN?$AA?6?$AA?$AA@|
  00084		 |$LN13@OALIntrTra|
  00084	00000000	 DCD         |s_oalSysIntr2Irq|
  00088		 |$LN14@OALIntrTra|
  00088	00000000	 DCD         |??_C@_1DG@HAMHNOBJ@?$AA?$CL?$AAO?$AAA?$AAL?$AAT?$AAr?$AAa?$AAn?$AAs?$AAl?$AAa?$AAt?$AAe?$AAS?$AAy?$AAs?$AAI?$AAn?$AAt?$AAr?$AA?$CI?$AA?$CF?$AAd?$AA?$CJ?$AA?$AN?$AA?6?$AA?$AA@|
  0008c		 |$LN15@OALIntrTra|
  0008c	00000000	 DCD         |dpCurSettings|
  00090		 |$M43411|

			 ENDP  ; |OALIntrTranslateSysIntr|

	EXPORT	|OALIntrTranslateIrq|
	EXPORT	|??_C@_1EK@JOJPHPGP@?$AA?9?$AAO?$AAA?$AAL?$AAI?$AAn?$AAt?$AAr?$AAT?$AAr?$AAa?$AAn?$AAs?$AAl?$AAa?$AAt?$AAe?$AAI?$AAr?$AAq?$AA?$CI?$AAs?$AAy?$AAs?$AAI?$AAn?$AAt?$AAr?$AA?5?$AA?$DN?$AA?5?$AA?$CF@| [ DATA ] ; `string'
	EXPORT	|??_C@_1DG@IAFKCJEB@?$AA?$CL?$AAO?$AAA?$AAL?$AAI?$AAn?$AAt?$AAr?$AAT?$AAr?$AAa?$AAn?$AAs?$AAl?$AAa?$AAt?$AAe?$AAI?$AAr?$AAq?$AA?$CI?$AA?$CF?$AAd?$AA?$CJ?$AA?$AN?$AA?6?$AA?$AA@| [ DATA ] ; `string'

  00000			 AREA	 |.pdata|, PDATA
|$T43433| DCD	|$LN10@OALIntrTra@2|
	DCD	0x40001c01

  00000			 AREA	 |.rdata|, DATA, READONLY
|??_C@_1EK@JOJPHPGP@?$AA?9?$AAO?$AAA?$AAL?$AAI?$AAn?$AAt?$AAr?$AAT?$AAr?$AAa?$AAn?$AAs?$AAl?$AAa?$AAt?$AAe?$AAI?$AAr?$AAq?$AA?$CI?$AAs?$AAy?$AAs?$AAI?$AAn?$AAt?$AAr?$AA?5?$AA?$DN?$AA?5?$AA?$CF@| DCB "-"
	DCB	0x0, "O", 0x0, "A", 0x0, "L", 0x0, "I", 0x0, "n", 0x0, "t"
	DCB	0x0, "r", 0x0, "T", 0x0, "r", 0x0, "a", 0x0, "n", 0x0, "s"
	DCB	0x0, "l", 0x0, "a", 0x0, "t", 0x0, "e", 0x0, "I", 0x0, "r"
	DCB	0x0, "q", 0x0, "(", 0x0, "s", 0x0, "y", 0x0, "s", 0x0, "I"
	DCB	0x0, "n", 0x0, "t", 0x0, "r", 0x0, " ", 0x0, "=", 0x0, " "
	DCB	0x0, "%", 0x0, "d", 0x0, ")", 0x0, 0xd, 0x0, 0xa, 0x0, 0x0
	DCB	0x0					; `string'

  00000			 AREA	 |.rdata|, DATA, READONLY
|??_C@_1DG@IAFKCJEB@?$AA?$CL?$AAO?$AAA?$AAL?$AAI?$AAn?$AAt?$AAr?$AAT?$AAr?$AAa?$AAn?$AAs?$AAl?$AAa?$AAt?$AAe?$AAI?$AAr?$AAq?$AA?$CI?$AA?$CF?$AAd?$AA?$CJ?$AA?$AN?$AA?6?$AA?$AA@| DCB "+"
	DCB	0x0, "O", 0x0, "A", 0x0, "L", 0x0, "I", 0x0, "n", 0x0, "t"
	DCB	0x0, "r", 0x0, "T", 0x0, "r", 0x0, "a", 0x0, "n", 0x0, "s"
	DCB	0x0, "l", 0x0, "a", 0x0, "t", 0x0, "e", 0x0, "I", 0x0, "r"
	DCB	0x0, "q", 0x0, "(", 0x0, "%", 0x0, "d", 0x0, ")", 0x0, 0xd
	DCB	0x0, 0xa, 0x0, 0x0, 0x0			; `string'
; Function compile flags: /Ogspy

  00000			 AREA	 |.text|, CODE, ARM

  00000		 |OALIntrTranslateIrq| PROC

; 130  : {

  00000		 |$LN10@OALIntrTra@2|
  00000	e92d4070	 stmdb       sp!, {r4 - r6, lr}
  00004		 |$M43430|
  00004	e1a05000	 mov         r5, r0

; 131  :     UINT32 sysIntr = (DWORD) SYSINTR_UNDEFINED;
; 132  : 
; 133  :     OALMSG(OAL_FUNC&&OAL_INTR, (L"+OALIntrTranslateIrq(%d)\r\n", irq));

  00008	e59f605c	 ldr         r6, [pc, #0x5C]
  0000c	e3e04000	 mvn         r4, #0
  00010	e5962440	 ldr         r2, [r6, #0x440]
  00014	e3120004	 tst         r2, #4
  00018	0a000005	 beq         |$LN4@OALIntrTra@2|
  0001c	e3120901	 tst         r2, #1, 18
  00020	0a000003	 beq         |$LN4@OALIntrTra@2|
  00024	e59f003c	 ldr         r0, [pc, #0x3C]
  00028	e1a01005	 mov         r1, r5
  0002c	eb000000	 bl          NKDbgPrintfW
  00030	e5962440	 ldr         r2, [r6, #0x440]
  00034		 |$LN4@OALIntrTra@2|

; 134  : 
; 135  :     if (irq < OMAP_IRQ_MAXIMUM) 

  00034	e3550d05	 cmp         r5, #5, 26

; 136  :     	sysIntr = s_oalIrq2SysIntr[irq];

  00038	359f3024	 ldrcc       r3, [pc, #0x24]
  0003c	37934105	 ldrcc       r4, [r3, +r5, lsl #2]

; 137  : 
; 138  :     OALMSG(OAL_FUNC&&OAL_INTR, (L"-OALIntrTranslateIrq(sysIntr = %d)\r\n", sysIntr));

  00040	e3120004	 tst         r2, #4
  00044	13120901	 tstne       r2, #1, 18
  00048	159f0010	 ldrne       r0, [pc, #0x10]
  0004c	11a01004	 movne       r1, r4
  00050	1b000000	 blne        NKDbgPrintfW

; 139  :     
; 140  :     return sysIntr;
; 141  : }

  00054	e1a00004	 mov         r0, r4
  00058	e8bd4070	 ldmia       sp!, {r4 - r6, lr}
  0005c	e12fff1e	 bx          lr
  00060		 |$LN11@OALIntrTra@2|
  00060		 |$LN12@OALIntrTra@2|
  00060	00000000	 DCD         |??_C@_1EK@JOJPHPGP@?$AA?9?$AAO?$AAA?$AAL?$AAI?$AAn?$AAt?$AAr?$AAT?$AAr?$AAa?$AAn?$AAs?$AAl?$AAa?$AAt?$AAe?$AAI?$AAr?$AAq?$AA?$CI?$AAs?$AAy?$AAs?$AAI?$AAn?$AAt?$AAr?$AA?5?$AA?$DN?$AA?5?$AA?$CF@|
  00064		 |$LN13@OALIntrTra@2|
  00064	00000000	 DCD         |s_oalIrq2SysIntr|
  00068		 |$LN14@OALIntrTra@2|
  00068	00000000	 DCD         |??_C@_1DG@IAFKCJEB@?$AA?$CL?$AAO?$AAA?$AAL?$AAI?$AAn?$AAt?$AAr?$AAT?$AAr?$AAa?$AAn?$AAs?$AAl?$AAa?$AAt?$AAe?$AAI?$AAr?$AAq?$AA?$CI?$AA?$CF?$AAd?$AA?$CJ?$AA?$AN?$AA?6?$AA?$AA@|
  0006c		 |$LN15@OALIntrTra@2|
  0006c	00000000	 DCD         |dpCurSettings|
  00070		 |$M43431|

			 ENDP  ; |OALIntrTranslateIrq|

	EXPORT	|OALIntrRequestSysIntr|
	EXPORT	|??_C@_1EO@CCPDBEFN@?$AA?9?$AAO?$AAA?$AAL?$AAI?$AAn?$AAt?$AAr?$AAR?$AAe?$AAq?$AAu?$AAe?$AAs?$AAt?$AAS?$AAy?$AAs?$AAI?$AAn?$AAt?$AAr?$AA?$CI?$AAs?$AAy?$AAs?$AAI?$AAn?$AAt?$AAr?$AA?5?$AA?$DN@| [ DATA ] ; `string'
	EXPORT	|??_C@_1HG@GANLJKGD@?$AAE?$AAR?$AAR?$AAO?$AAR?$AA?3?$AA?5?$AAO?$AAA?$AAL?$AAI?$AAn?$AAt?$AAr?$AAR?$AAe?$AAq?$AAu?$AAe?$AAs?$AAt?$AAS?$AAy?$AAs?$AAI?$AAn?$AAt?$AAr?$AA?3?$AA?5?$AAN?$AAo@| [ DATA ] ; `string'
	EXPORT	|??_C@_1JG@CKDDKDGB@?$AAE?$AAR?$AAR?$AAO?$AAR?$AA?3?$AA?5?$AAO?$AAA?$AAL?$AAI?$AAn?$AAt?$AAr?$AAR?$AAe?$AAq?$AAu?$AAe?$AAs?$AAt?$AAS?$AAy?$AAs?$AAI?$AAn?$AAt?$AAr?$AA?3?$AA?5?$AAS?$AAt@| [ DATA ] ; `string'
	EXPORT	|??_C@_1GI@NODFOAGP@?$AAE?$AAR?$AAR?$AAO?$AAR?$AA?3?$AA?5?$AAO?$AAA?$AAL?$AAI?$AAn?$AAt?$AAr?$AAR?$AAe?$AAq?$AAu?$AAe?$AAs?$AAt?$AAS?$AAy?$AAs?$AAI?$AAn?$AAt?$AAr?$AA?3?$AA?5?$AAI?$AAR@| [ DATA ] ; `string'
	EXPORT	|??_C@_1IM@ENJFJBNJ@?$AAE?$AAR?$AAR?$AAO?$AAR?$AA?3?$AA?5?$AAO?$AAA?$AAL?$AAI?$AAn?$AAt?$AAr?$AAR?$AAe?$AAq?$AAu?$AAe?$AAs?$AAt?$AAS?$AAy?$AAs?$AAI?$AAn?$AAt?$AAr?$AA?3?$AA?5?$AAO?$AAn@| [ DATA ] ; `string'
	EXPORT	|??_C@_1FK@JNHCPMAP@?$AA?$CL?$AAO?$AAA?$AAL?$AAI?$AAn?$AAt?$AAr?$AAR?$AAe?$AAq?$AAu?$AAe?$AAs?$AAt?$AAS?$AAy?$AAs?$AAI?$AAn?$AAt?$AAr?$AA?$CI?$AA?$CF?$AAd?$AA?0?$AA?5?$AA0?$AAx?$AA?$CF?$AA0?$AA8@| [ DATA ] ; `string'

  00000			 AREA	 |.pdata|, PDATA
|$T43496| DCD	|$LN81@OALIntrReq|
	DCD	0x4000b801

  00000			 AREA	 |.rdata|, DATA, READONLY
|??_C@_1EO@CCPDBEFN@?$AA?9?$AAO?$AAA?$AAL?$AAI?$AAn?$AAt?$AAr?$AAR?$AAe?$AAq?$AAu?$AAe?$AAs?$AAt?$AAS?$AAy?$AAs?$AAI?$AAn?$AAt?$AAr?$AA?$CI?$AAs?$AAy?$AAs?$AAI?$AAn?$AAt?$AAr?$AA?5?$AA?$DN@| DCB "-"
	DCB	0x0, "O", 0x0, "A", 0x0, "L", 0x0, "I", 0x0, "n", 0x0, "t"
	DCB	0x0, "r", 0x0, "R", 0x0, "e", 0x0, "q", 0x0, "u", 0x0, "e"
	DCB	0x0, "s", 0x0, "t", 0x0, "S", 0x0, "y", 0x0, "s", 0x0, "I"
	DCB	0x0, "n", 0x0, "t", 0x0, "r", 0x0, "(", 0x0, "s", 0x0, "y"
	DCB	0x0, "s", 0x0, "I", 0x0, "n", 0x0, "t", 0x0, "r", 0x0, " "
	DCB	0x0, "=", 0x0, " ", 0x0, "%", 0x0, "d", 0x0, ")", 0x0, 0xd
	DCB	0x0, 0xa, 0x0, 0x0, 0x0			; `string'

  00000			 AREA	 |.rdata|, DATA, READONLY
|??_C@_1HG@GANLJKGD@?$AAE?$AAR?$AAR?$AAO?$AAR?$AA?3?$AA?5?$AAO?$AAA?$AAL?$AAI?$AAn?$AAt?$AAr?$AAR?$AAe?$AAq?$AAu?$AAe?$AAs?$AAt?$AAS?$AAy?$AAs?$AAI?$AAn?$AAt?$AAr?$AA?3?$AA?5?$AAN?$AAo@| DCB "E"
	DCB	0x0, "R", 0x0, "R", 0x0, "O", 0x0, "R", 0x0, ":", 0x0, " "
	DCB	0x0, "O", 0x0, "A", 0x0, "L", 0x0, "I", 0x0, "n", 0x0, "t"
	DCB	0x0, "r", 0x0, "R", 0x0, "e", 0x0, "q", 0x0, "u", 0x0, "e"
	DCB	0x0, "s", 0x0, "t", 0x0, "S", 0x0, "y", 0x0, "s", 0x0, "I"
	DCB	0x0, "n", 0x0, "t", 0x0, "r", 0x0, ":", 0x0, " ", 0x0, "N"
	DCB	0x0, "o", 0x0, " ", 0x0, "a", 0x0, "v", 0x0, "a", 0x0, "i"
	DCB	0x0, "l", 0x0, "a", 0x0, "b", 0x0, "l", 0x0, "e", 0x0, " "
	DCB	0x0, "S", 0x0, "Y", 0x0, "S", 0x0, "I", 0x0, "N", 0x0, "T"
	DCB	0x0, "R", 0x0, " ", 0x0, "f", 0x0, "o", 0x0, "u", 0x0, "n"
	DCB	0x0, "d", 0x0, 0xd, 0x0, 0xa, 0x0, 0x0, 0x0 ; `string'

  00000			 AREA	 |.rdata|, DATA, READONLY
|??_C@_1JG@CKDDKDGB@?$AAE?$AAR?$AAR?$AAO?$AAR?$AA?3?$AA?5?$AAO?$AAA?$AAL?$AAI?$AAn?$AAt?$AAr?$AAR?$AAe?$AAq?$AAu?$AAe?$AAs?$AAt?$AAS?$AAy?$AAs?$AAI?$AAn?$AAt?$AAr?$AA?3?$AA?5?$AAS?$AAt@| DCB "E"
	DCB	0x0, "R", 0x0, "R", 0x0, "O", 0x0, "R", 0x0, ":", 0x0, " "
	DCB	0x0, "O", 0x0, "A", 0x0, "L", 0x0, "I", 0x0, "n", 0x0, "t"
	DCB	0x0, "r", 0x0, "R", 0x0, "e", 0x0, "q", 0x0, "u", 0x0, "e"
	DCB	0x0, "s", 0x0, "t", 0x0, "S", 0x0, "y", 0x0, "s", 0x0, "I"
	DCB	0x0, "n", 0x0, "t", 0x0, "r", 0x0, ":", 0x0, " ", 0x0, "S"
	DCB	0x0, "t", 0x0, "a", 0x0, "t", 0x0, "i", 0x0, "c", 0x0, " "
	DCB	0x0, "m", 0x0, "a", 0x0, "p", 0x0, "p", 0x0, "i", 0x0, "n"
	DCB	0x0, "g", 0x0, " ", 0x0, "f", 0x0, "o", 0x0, "r", 0x0, " "
	DCB	0x0, "I", 0x0, "R", 0x0, "Q", 0x0, " ", 0x0, "%", 0x0, "d"
	DCB	0x0, " ", 0x0, "a", 0x0, "l", 0x0, "r", 0x0, "e", 0x0, "a"
	DCB	0x0, "d", 0x0, "y", 0x0, " ", 0x0, "a", 0x0, "s", 0x0, "s"
	DCB	0x0, "i", 0x0, "g", 0x0, "n", 0x0, "e", 0x0, "d", 0x0, 0xd
	DCB	0x0, 0xa, 0x0, 0x0, 0x0			; `string'

  00000			 AREA	 |.rdata|, DATA, READONLY
|??_C@_1GI@NODFOAGP@?$AAE?$AAR?$AAR?$AAO?$AAR?$AA?3?$AA?5?$AAO?$AAA?$AAL?$AAI?$AAn?$AAt?$AAr?$AAR?$AAe?$AAq?$AAu?$AAe?$AAs?$AAt?$AAS?$AAy?$AAs?$AAI?$AAn?$AAt?$AAr?$AA?3?$AA?5?$AAI?$AAR@| DCB "E"
	DCB	0x0, "R", 0x0, "R", 0x0, "O", 0x0, "R", 0x0, ":", 0x0, " "
	DCB	0x0, "O", 0x0, "A", 0x0, "L", 0x0, "I", 0x0, "n", 0x0, "t"
	DCB	0x0, "r", 0x0, "R", 0x0, "e", 0x0, "q", 0x0, "u", 0x0, "e"
	DCB	0x0, "s", 0x0, "t", 0x0, "S", 0x0, "y", 0x0, "s", 0x0, "I"
	DCB	0x0, "n", 0x0, "t", 0x0, "r", 0x0, ":", 0x0, " ", 0x0, "I"
	DCB	0x0, "R", 0x0, "Q", 0x0, " ", 0x0, "%", 0x0, "d", 0x0, " "
	DCB	0x0, "o", 0x0, "u", 0x0, "t", 0x0, " ", 0x0, "o", 0x0, "f"
	DCB	0x0, " ", 0x0, "r", 0x0, "a", 0x0, "n", 0x0, "g", 0x0, "e"
	DCB	0x0, 0xd, 0x0, 0xa, 0x0, 0x0, 0x0	; `string'

  00000			 AREA	 |.rdata|, DATA, READONLY
|??_C@_1IM@ENJFJBNJ@?$AAE?$AAR?$AAR?$AAO?$AAR?$AA?3?$AA?5?$AAO?$AAA?$AAL?$AAI?$AAn?$AAt?$AAr?$AAR?$AAe?$AAq?$AAu?$AAe?$AAs?$AAt?$AAS?$AAy?$AAs?$AAI?$AAn?$AAt?$AAr?$AA?3?$AA?5?$AAO?$AAn@| DCB "E"
	DCB	0x0, "R", 0x0, "R", 0x0, "O", 0x0, "R", 0x0, ":", 0x0, " "
	DCB	0x0, "O", 0x0, "A", 0x0, "L", 0x0, "I", 0x0, "n", 0x0, "t"
	DCB	0x0, "r", 0x0, "R", 0x0, "e", 0x0, "q", 0x0, "u", 0x0, "e"
	DCB	0x0, "s", 0x0, "t", 0x0, "S", 0x0, "y", 0x0, "s", 0x0, "I"
	DCB	0x0, "n", 0x0, "t", 0x0, "r", 0x0, ":", 0x0, " ", 0x0, "O"
	DCB	0x0, "n", 0x0, "l", 0x0, "y", 0x0, " ", 0x0, "%", 0x0, "d"
	DCB	0x0, " ", 0x0, "I", 0x0, "R", 0x0, "Q", 0x0, "s", 0x0, " "
	DCB	0x0, "f", 0x0, "o", 0x0, "r", 0x0, " ", 0x0, "S", 0x0, "Y"
	DCB	0x0, "S", 0x0, "I", 0x0, "N", 0x0, "T", 0x0, "R", 0x0, " "
	DCB	0x0, "i", 0x0, "s", 0x0, " ", 0x0, "s", 0x0, "u", 0x0, "p"
	DCB	0x0, "p", 0x0, "o", 0x0, "r", 0x0, "t", 0x0, "e", 0x0, "d"
	DCB	0x0, 0xd, 0x0, 0xa, 0x0, 0x0, 0x0	; `string'

  00000			 AREA	 |.rdata|, DATA, READONLY
|??_C@_1FK@JNHCPMAP@?$AA?$CL?$AAO?$AAA?$AAL?$AAI?$AAn?$AAt?$AAr?$AAR?$AAe?$AAq?$AAu?$AAe?$AAs?$AAt?$AAS?$AAy?$AAs?$AAI?$AAn?$AAt?$AAr?$AA?$CI?$AA?$CF?$AAd?$AA?0?$AA?5?$AA0?$AAx?$AA?$CF?$AA0?$AA8@| DCB "+"
	DCB	0x0, "O", 0x0, "A", 0x0, "L", 0x0, "I", 0x0, "n", 0x0, "t"
	DCB	0x0, "r", 0x0, "R", 0x0, "e", 0x0, "q", 0x0, "u", 0x0, "e"
	DCB	0x0, "s", 0x0, "t", 0x0, "S", 0x0, "y", 0x0, "s", 0x0, "I"
	DCB	0x0, "n", 0x0, "t", 0x0, "r", 0x0, "(", 0x0, "%", 0x0, "d"
	DCB	0x0, ",", 0x0, " ", 0x0, "0", 0x0, "x", 0x0, "%", 0x0, "0"
	DCB	0x0, "8", 0x0, "x", 0x0, ",", 0x0, " ", 0x0, "0", 0x0, "x"
	DCB	0x0, "%", 0x0, "0", 0x0, "8", 0x0, "x", 0x0, ")", 0x0, 0xd
	DCB	0x0, 0xa, 0x0, 0x0, 0x0			; `string'
; Function compile flags: /Ogspy

  00000			 AREA	 |.text|, CODE, ARM

  00000		 |OALIntrRequestSysIntr| PROC

; 154  : {

  00000		 |$LN81@OALIntrReq|
  00000	e92d43f0	 stmdb       sp!, {r4 - r9, lr}
  00004		 |$M43493|
  00004	e1a05002	 mov         r5, r2
  00008	e1a06001	 mov         r6, r1
  0000c	e1a08000	 mov         r8, r0

; 155  :     UINT32 sysIntr, i, j;
; 156  : 
; 157  :     OALMSG(1, (L"+OALIntrRequestSysIntr(%d, 0x%08x, 0x%08x)\r\n", count, *pIrqs, flags)); // OAL_INTR&&OAL_FUNC

  00010	e5962000	 ldr         r2, [r6]
  00014	e59f02c0	 ldr         r0, [pc, #0x2C0]
  00018	e1a03005	 mov         r3, r5
  0001c	e1a01008	 mov         r1, r8
  00020	eb000000	 bl          NKDbgPrintfW

; 158  : 
; 159  :     // Valid IRQ?
; 160  :     if (count > OMAP_IRQ_PER_SYSINTR) // 5

  00024	e3580005	 cmp         r8, #5
  00028	9a000008	 bls         |$LN34@OALIntrReq|

; 161  : 	{
; 162  :         OALMSG(OAL_ERROR, (L"ERROR: OALIntrRequestSysIntr: "
; 163  :             L"Only %d IRQs for SYSINTR is supported\r\n",OMAP_IRQ_PER_SYSINTR));

  0002c	e59f3290	 ldr         r3, [pc, #0x290]
  00030	e5933440	 ldr         r3, [r3, #0x440]
  00034	e3130001	 tst         r3, #1
  00038	0a000002	 beq         |$LN37@OALIntrReq|
  0003c	e59f0294	 ldr         r0, [pc, #0x294]
  00040	e3a01005	 mov         r1, #5
  00044		 |$LN78@OALIntrReq|
  00044	eb000000	 bl          NKDbgPrintfW
  00048		 |$LN37@OALIntrReq|

; 164  :         sysIntr = (DWORD) SYSINTR_UNDEFINED;

  00048	e3e04000	 mvn         r4, #0

; 165  :         goto cleanUp;

  0004c	ea000084	 b           |$cleanUp$43229|
  00050		 |$LN34@OALIntrReq|

; 166  : 	}
; 167  : 
; 168  :     // If static mapping is requested check if we can obtain one
; 169  :     if ((flags & OAL_INTR_STATIC) != 0) // OAL_INTR_STATIC = 2

  00050	e59f927c	 ldr         r9, [pc, #0x27C]
  00054	e3150002	 tst         r5, #2
  00058	0a00000e	 beq         |$LN30@OALIntrReq|

; 170  : 	{
; 171  :         for (i = 0; i < count; i++)

  0005c	e3a02000	 mov         r2, #0
  00060	e3580000	 cmp         r8, #0
  00064	0a00000b	 beq         |$LN30@OALIntrReq|
  00068	e1a01006	 mov         r1, r6
  0006c	e2890e5a	 add         r0, r9, #0x5A, 28
  00070		 |$LL32@OALIntrReq|

; 172  : 		{
; 173  :             if (pIrqs[i] >= OMAP_IRQ_MAXIMUM)

  00070	e5913000	 ldr         r3, [r1]
  00074	e3530d05	 cmp         r3, #5, 26
  00078	2a000017	 bcs         |$LN58@OALIntrReq|

; 178  : 			}
; 179  :             if (s_oalIrq2SysIntr[pIrqs[i]] != (DWORD) SYSINTR_UNDEFINED)

  0007c	e7903103	 ldr         r3, [r0, +r3, lsl #2]
  00080	e3730001	 cmn         r3, #1
  00084	1a00000d	 bne         |$LN59@OALIntrReq|
  00088	e2822001	 add         r2, r2, #1
  0008c	e1520008	 cmp         r2, r8
  00090	e2811004	 add         r1, r1, #4
  00094	3afffff5	 bcc         |$LL32@OALIntrReq|
  00098		 |$LN30@OALIntrReq|

; 185  : 			}
; 186  : 		}
; 187  : 	}
; 188  : 
; 189  :     // If translate flag is set all IRQs must be mapped to same SYSINTR
; 190  :     if (pIrqs[0] >= OMAP_IRQ_MAXIMUM)

  00098	e5962000	 ldr         r2, [r6]
  0009c	e3520d05	 cmp         r2, #5, 26
  000a0	3a000014	 bcc         |$LN27@OALIntrReq|

; 191  : 	{
; 192  :         OALMSG(OAL_ERROR, (L"ERROR: OALIntrRequestSysIntr: IRQ %d out of range\r\n", pIrqs[0]));

  000a4	e59f3218	 ldr         r3, [pc, #0x218]
  000a8	e5933440	 ldr         r3, [r3, #0x440]
  000ac	e3130001	 tst         r3, #1
  000b0	0affffe4	 beq         |$LN37@OALIntrReq|
  000b4	e59f0204	 ldr         r0, [pc, #0x204]
  000b8	e1a01002	 mov         r1, r2

; 193  :         sysIntr = (DWORD) SYSINTR_UNDEFINED;
; 194  :         goto cleanUp;

  000bc	eaffffe0	 b           |$LN78@OALIntrReq|
  000c0		 |$LN59@OALIntrReq|

; 180  : 			{
; 181  :                 OALMSG(OAL_ERROR, (L"ERROR: OALIntrRequestSysIntr: "
; 182  :                     L"Static mapping for IRQ %d already assigned\r\n", pIrqs[i]));

  000c0	e59f31fc	 ldr         r3, [pc, #0x1FC]
  000c4	e5933440	 ldr         r3, [r3, #0x440]
  000c8	e3130001	 tst         r3, #1
  000cc	0affffdd	 beq         |$LN37@OALIntrReq|
  000d0	e7961102	 ldr         r1, [r6, +r2, lsl #2]
  000d4	e59f01f4	 ldr         r0, [pc, #0x1F4]

; 183  :                 sysIntr = (DWORD) SYSINTR_UNDEFINED;
; 184  :                 goto cleanUp;

  000d8	eaffffd9	 b           |$LN78@OALIntrReq|
  000dc		 |$LN58@OALIntrReq|

; 174  : 			{
; 175  :                 OALMSG(OAL_ERROR, (L"ERROR: OALIntrRequestSysIntr: "L"IRQ %d out of range\r\n", pIrqs[i]));

  000dc	e59f31e0	 ldr         r3, [pc, #0x1E0]
  000e0	e5933440	 ldr         r3, [r3, #0x440]
  000e4	e3130001	 tst         r3, #1
  000e8	0affffd6	 beq         |$LN37@OALIntrReq|
  000ec	e7961102	 ldr         r1, [r6, +r2, lsl #2]
  000f0	e59f01c8	 ldr         r0, [pc, #0x1C8]

; 176  :                 sysIntr = (DWORD) SYSINTR_UNDEFINED;
; 177  :                 goto cleanUp;

  000f4	eaffffd2	 b           |$LN78@OALIntrReq|
  000f8		 |$LN27@OALIntrReq|

; 195  : 	}
; 196  :     if (((flags & OAL_INTR_TRANSLATE) != 0) &&
; 197  :         (s_oalIrq2SysIntr[pIrqs[0]] != (DWORD) SYSINTR_UNDEFINED))

  000f8	e3150008	 tst         r5, #8
  000fc	0a00001c	 beq         |$LN26@OALIntrReq|
  00100	e2893e5a	 add         r3, r9, #0x5A, 28
  00104	e7934102	 ldr         r4, [r3, +r2, lsl #2]
  00108	e3740001	 cmn         r4, #1
  0010c	0a000018	 beq         |$LN26@OALIntrReq|

; 198  : 	{
; 199  :         sysIntr = s_oalIrq2SysIntr[pIrqs[0]];
; 200  :         // Check remaining IRQs
; 201  :         for (i = 1; i < count; i++)

  00110	e3a02001	 mov         r2, #1
  00114	e3580001	 cmp         r8, #1
  00118	9a000051	 bls         |$cleanUp$43229|
  0011c	e2861004	 add         r1, r6, #4
  00120	e3e05000	 mvn         r5, #0
  00124	e2890e5a	 add         r0, r9, #0x5A, 28
  00128		 |$LL25@OALIntrReq|

; 202  : 		{
; 203  :             if (pIrqs[i] >= OMAP_IRQ_MAXIMUM)

  00128	e5913000	 ldr         r3, [r1]
  0012c	e3530d05	 cmp         r3, #5, 26
  00130	2a000007	 bcs         |$LN60@OALIntrReq|

; 209  : 			}
; 210  :             // If it is mapped to same SYSINTR, we are fine
; 211  :             if (s_oalIrq2SysIntr[pIrqs[i]] == sysIntr) continue;

  00134	e7903103	 ldr         r3, [r0, +r3, lsl #2]
  00138	e2822001	 add         r2, r2, #1
  0013c	e2811004	 add         r1, r1, #4
  00140	e1530004	 cmp         r3, r4

; 212  :             // It isn't mapped or mapped to some other SYSINTR, error...
; 213  :             sysIntr = (DWORD) SYSINTR_UNDEFINED;

  00144	11a04005	 movne       r4, r5
  00148	e1520008	 cmp         r2, r8
  0014c	3afffff5	 bcc         |$LL25@OALIntrReq|

; 235  : 	{
; 236  :         if (pIrqs[i] >= OMAP_IRQ_MAXIMUM)

  00150	ea000043	 b           |$cleanUp$43229|
  00154		 |$LN60@OALIntrReq|

; 204  : 			{
; 205  :                 OALMSG(OAL_ERROR, (L"ERROR: OALIntrRequestSysIntr: "
; 206  :                     L"IRQ %d out of range\r\n", pIrqs[i]));

  00154	e59f3168	 ldr         r3, [pc, #0x168]
  00158	e5933440	 ldr         r3, [r3, #0x440]
  0015c	e3130001	 tst         r3, #1
  00160	17961102	 ldrne       r1, [r6, +r2, lsl #2]
  00164	159f0154	 ldrne       r0, [pc, #0x154]
  00168	1b000000	 blne        NKDbgPrintfW
  0016c		 |$LN45@OALIntrReq|

; 207  :                 sysIntr = (DWORD) SYSINTR_UNDEFINED;

  0016c	e1a04005	 mov         r4, r5

; 208  :                 goto cleanUp;

  00170	ea00003b	 b           |$cleanUp$43229|
  00174		 |$LN26@OALIntrReq|

; 214  : 		}
; 215  :         goto cleanUp;
; 216  : 	}
; 217  : 
; 218  :     // Find next available SYSINTR value...
; 219  :     for (sysIntr = SYSINTR_FIRMWARE; sysIntr < SYSINTR_MAXIMUM; sysIntr++)

  00174	e3a04010	 mov         r4, #0x10
  00178	e2892d05	 add         r2, r9, #5, 26
  0017c		 |$LL20@OALIntrReq|

; 220  : 	{
; 221  :         if (s_oalSysIntr2Irq[sysIntr][0] == (DWORD) OAL_INTR_IRQ_UNDEFINED) break;

  0017c	e5923000	 ldr         r3, [r2]
  00180	e3730001	 cmn         r3, #1
  00184	0a000003	 beq         |$LN61@OALIntrReq|
  00188	e2844001	 add         r4, r4, #1
  0018c	e3540048	 cmp         r4, #0x48
  00190	e2822014	 add         r2, r2, #0x14
  00194	3afffff8	 bcc         |$LL20@OALIntrReq|
  00198		 |$LN61@OALIntrReq|

; 222  : 	}
; 223  : 
; 224  :     // Any available SYSINTRs left?
; 225  :     if (sysIntr >= SYSINTR_MAXIMUM)

  00198	e3540048	 cmp         r4, #0x48
  0019c	3a000007	 bcc         |$LN16@OALIntrReq|

; 226  : 	{
; 227  :         OALMSG(OAL_ERROR, (L"ERROR: OALIntrRequestSysIntr: "
; 228  :             L"No available SYSINTR found\r\n"));

  001a0	e59f311c	 ldr         r3, [pc, #0x11C]
  001a4	e5933440	 ldr         r3, [r3, #0x440]
  001a8	e3130001	 tst         r3, #1
  001ac	0affffa5	 beq         |$LN37@OALIntrReq|
  001b0	e59f0114	 ldr         r0, [pc, #0x114]
  001b4	eb000000	 bl          NKDbgPrintfW
  001b8	e3e04000	 mvn         r4, #0
  001bc	ea000028	 b           |$cleanUp$43229|
  001c0		 |$LN16@OALIntrReq|

; 229  :         sysIntr = (DWORD) SYSINTR_UNDEFINED;
; 230  :         goto cleanUp;
; 231  : 	}
; 232  : 
; 233  :     // Make SYSINTR -> IRQs association
; 234  :     for (i = 0; i < count; i++)

  001c0	e3a07000	 mov         r7, #0
  001c4	e3580000	 cmp         r8, #0
  001c8	0a00000c	 beq         |$LN72@OALIntrReq|
  001cc	e1a02006	 mov         r2, r6
  001d0	e0840104	 add         r0, r4, r4, lsl #2
  001d4		 |$LL15@OALIntrReq|

; 235  : 	{
; 236  :         if (pIrqs[i] >= OMAP_IRQ_MAXIMUM)

  001d4	e5921000	 ldr         r1, [r2]
  001d8	e3510d05	 cmp         r1, #5, 26
  001dc	2a000026	 bcs         |$LN62@OALIntrReq|

; 241  : 			{
; 242  :                 s_oalSysIntr2Irq[sysIntr][j] = (DWORD) OAL_INTR_IRQ_UNDEFINED;
; 243  : 			}
; 244  :             sysIntr = (DWORD) SYSINTR_UNDEFINED;
; 245  :             goto cleanUp;
; 246  : 		}
; 247  :         s_oalSysIntr2Irq[sysIntr][i] = pIrqs[i];

  001e0	e0803007	 add         r3, r0, r7
  001e4	e2877001	 add         r7, r7, #1
  001e8	e1570008	 cmp         r7, r8
  001ec	e7891103	 str         r1, [r9, +r3, lsl #2]
  001f0	e2822004	 add         r2, r2, #4
  001f4	3afffff6	 bcc         |$LL15@OALIntrReq|

; 248  : 	}
; 249  :     while (i < OMAP_IRQ_PER_SYSINTR)

  001f8	e3570005	 cmp         r7, #5
  001fc	2a000009	 bcs         |$LN8@OALIntrReq|
  00200		 |$LN72@OALIntrReq|

; 250  : 	{
; 251  :         s_oalSysIntr2Irq[sysIntr][i++] = (DWORD) OAL_INTR_IRQ_UNDEFINED;

  00200	e0843104	 add         r3, r4, r4, lsl #2
  00204	e0833007	 add         r3, r3, r7
  00208	e0893103	 add         r3, r9, r3, lsl #2
  0020c	e2772005	 rsbs        r2, r7, #5
  00210	e3e01000	 mvn         r1, #0
  00214	0a000003	 beq         |$LN8@OALIntrReq|
  00218	e0832102	 add         r2, r3, r2, lsl #2
  0021c		 |$LN76@OALIntrReq|
  0021c	e4831004	 str         r1, [r3], #4
  00220	e1530002	 cmp         r3, r2
  00224	1afffffc	 bne         |$LN76@OALIntrReq|
  00228		 |$LN8@OALIntrReq|

; 252  : 	}
; 253  : 
; 254  :     // Make IRQ -> SYSINTR association, only if not multiply-mapped
; 255  :     if ((flags & OAL_INTR_DYNAMIC) != 0) goto cleanUp;

  00228	e3150001	 tst         r5, #1
  0022c	1a00000c	 bne         |$cleanUp$43229|

; 256  :     for (i = 0; i < count; i++)

  00230	e3580000	 cmp         r8, #0
  00234	0a00000a	 beq         |$cleanUp$43229|
  00238		 |$LL5@OALIntrReq|

; 257  : 	{
; 258  :         if ((s_oalIrq2SysIntr[pIrqs[i]] == (DWORD) SYSINTR_UNDEFINED) ||
; 259  :             ((flags & OAL_INTR_FORCE_STATIC) != 0))

  00238	e5963000	 ldr         r3, [r6]
  0023c	e2892e5a	 add         r2, r9, #0x5A, 28
  00240	e7b23103	 ldr         r3, [r2, +r3, lsl #2]!
  00244	e3730001	 cmn         r3, #1
  00248	0a000001	 beq         |$LN1@OALIntrReq|
  0024c	e3150004	 tst         r5, #4
  00250	0a000000	 beq         |$LN4@OALIntrReq|
  00254		 |$LN1@OALIntrReq|

; 260  : 		{
; 261  :             s_oalIrq2SysIntr[pIrqs[i]] = sysIntr;

  00254	e5824000	 str         r4, [r2]
  00258		 |$LN4@OALIntrReq|

; 256  :     for (i = 0; i < count; i++)

  00258	e2866004	 add         r6, r6, #4
  0025c	e2588001	 subs        r8, r8, #1
  00260	1afffff4	 bne         |$LL5@OALIntrReq|
  00264		 |$cleanUp$43229|

; 262  : 		}
; 263  : 	}
; 264  : 
; 265  : cleanUp:
; 266  :     
; 267  :     OALMSG(1, (L"-OALIntrRequestSysIntr(sysIntr = %d)\r\n", sysIntr));

  00264	e59f005c	 ldr         r0, [pc, #0x5C]
  00268	e1a01004	 mov         r1, r4
  0026c	eb000000	 bl          NKDbgPrintfW

; 268  :     return sysIntr;
; 269  : 
; 270  : }

  00270	e1a00004	 mov         r0, r4
  00274	e8bd43f0	 ldmia       sp!, {r4 - r9, lr}
  00278	e12fff1e	 bx          lr
  0027c		 |$LN62@OALIntrReq|

; 237  : 		{
; 238  :             OALMSG(OAL_ERROR, (L"ERROR: OALIntrRequestSysIntr: "
; 239  :                 L"IRQ %d out of range\r\n", pIrqs[i]));

  0027c	e59f3040	 ldr         r3, [pc, #0x40]
  00280	e5933440	 ldr         r3, [r3, #0x440]
  00284	e3130001	 tst         r3, #1
  00288	17961107	 ldrne       r1, [r6, +r7, lsl #2]
  0028c	159f002c	 ldrne       r0, [pc, #0x2C]
  00290	1b000000	 blne        NKDbgPrintfW

; 240  :             for (j = 0; j < i; j++)

  00294	e3e05000	 mvn         r5, #0
  00298	e3570000	 cmp         r7, #0
  0029c	0affffb2	 beq         |$LN45@OALIntrReq|
  002a0	e0843104	 add         r3, r4, r4, lsl #2
  002a4	e0893103	 add         r3, r9, r3, lsl #2
  002a8	e0832107	 add         r2, r3, r7, lsl #2
  002ac		 |$LN74@OALIntrReq|
  002ac	e4835004	 str         r5, [r3], #4
  002b0	e1530002	 cmp         r3, r2
  002b4	1afffffc	 bne         |$LN74@OALIntrReq|

; 207  :                 sysIntr = (DWORD) SYSINTR_UNDEFINED;

  002b8	e1a04005	 mov         r4, r5

; 208  :                 goto cleanUp;

  002bc	eaffffe8	 b           |$cleanUp$43229|
  002c0		 |$LN82@OALIntrReq|
  002c0		 |$LN83@OALIntrReq|
  002c0	00000000	 DCD         |??_C@_1GI@NODFOAGP@?$AAE?$AAR?$AAR?$AAO?$AAR?$AA?3?$AA?5?$AAO?$AAA?$AAL?$AAI?$AAn?$AAt?$AAr?$AAR?$AAe?$AAq?$AAu?$AAe?$AAs?$AAt?$AAS?$AAy?$AAs?$AAI?$AAn?$AAt?$AAr?$AA?3?$AA?5?$AAI?$AAR@|
  002c4		 |$LN84@OALIntrReq|
  002c4	00000000	 DCD         |dpCurSettings|
  002c8		 |$LN85@OALIntrReq|
  002c8	00000000	 DCD         |??_C@_1EO@CCPDBEFN@?$AA?9?$AAO?$AAA?$AAL?$AAI?$AAn?$AAt?$AAr?$AAR?$AAe?$AAq?$AAu?$AAe?$AAs?$AAt?$AAS?$AAy?$AAs?$AAI?$AAn?$AAt?$AAr?$AA?$CI?$AAs?$AAy?$AAs?$AAI?$AAn?$AAt?$AAr?$AA?5?$AA?$DN@|
  002cc		 |$LN86@OALIntrReq|
  002cc	00000000	 DCD         |??_C@_1HG@GANLJKGD@?$AAE?$AAR?$AAR?$AAO?$AAR?$AA?3?$AA?5?$AAO?$AAA?$AAL?$AAI?$AAn?$AAt?$AAr?$AAR?$AAe?$AAq?$AAu?$AAe?$AAs?$AAt?$AAS?$AAy?$AAs?$AAI?$AAn?$AAt?$AAr?$AA?3?$AA?5?$AAN?$AAo@|
  002d0		 |$LN87@OALIntrReq|
  002d0	00000000	 DCD         |??_C@_1JG@CKDDKDGB@?$AAE?$AAR?$AAR?$AAO?$AAR?$AA?3?$AA?5?$AAO?$AAA?$AAL?$AAI?$AAn?$AAt?$AAr?$AAR?$AAe?$AAq?$AAu?$AAe?$AAs?$AAt?$AAS?$AAy?$AAs?$AAI?$AAn?$AAt?$AAr?$AA?3?$AA?5?$AAS?$AAt@|
  002d4		 |$LN88@OALIntrReq|
  002d4	00000000	 DCD         |s_oalSysIntr2Irq|
  002d8		 |$LN89@OALIntrReq|
  002d8	00000000	 DCD         |??_C@_1IM@ENJFJBNJ@?$AAE?$AAR?$AAR?$AAO?$AAR?$AA?3?$AA?5?$AAO?$AAA?$AAL?$AAI?$AAn?$AAt?$AAr?$AAR?$AAe?$AAq?$AAu?$AAe?$AAs?$AAt?$AAS?$AAy?$AAs?$AAI?$AAn?$AAt?$AAr?$AA?3?$AA?5?$AAO?$AAn@|
  002dc		 |$LN90@OALIntrReq|
  002dc	00000000	 DCD         |??_C@_1FK@JNHCPMAP@?$AA?$CL?$AAO?$AAA?$AAL?$AAI?$AAn?$AAt?$AAr?$AAR?$AAe?$AAq?$AAu?$AAe?$AAs?$AAt?$AAS?$AAy?$AAs?$AAI?$AAn?$AAt?$AAr?$AA?$CI?$AA?$CF?$AAd?$AA?0?$AA?5?$AA0?$AAx?$AA?$CF?$AA0?$AA8@|
  002e0		 |$M43494|

			 ENDP  ; |OALIntrRequestSysIntr|

	EXPORT	|OALIntrReleaseSysIntr|
	EXPORT	|??_C@_1EE@GBADJBKJ@?$AA?9?$AAO?$AAA?$AAL?$AAI?$AAn?$AAt?$AAr?$AAR?$AAe?$AAl?$AAe?$AAa?$AAs?$AAe?$AAS?$AAy?$AAs?$AAI?$AAn?$AAt?$AAr?$AA?$CI?$AAr?$AAc?$AA?5?$AA?$DN?$AA?5?$AA?$CF?$AAd?$AA?$CJ?$AA?$AN@| [ DATA ] ; `string'
	EXPORT	|??_C@_1HC@BIEMDHNG@?$AAE?$AAR?$AAR?$AAO?$AAR?$AA?3?$AA?5?$AAO?$AAA?$AAL?$AAI?$AAn?$AAt?$AAr?$AAR?$AAe?$AAl?$AAe?$AAa?$AAs?$AAe?$AAS?$AAy?$AAs?$AAI?$AAn?$AAt?$AAr?$AA?3?$AA?5?$AAI?$AAn@| [ DATA ] ; `string'
	EXPORT	|??_C@_1DK@GDEEGDPM@?$AA?$CL?$AAO?$AAA?$AAL?$AAI?$AAn?$AAt?$AAr?$AAR?$AAe?$AAl?$AAe?$AAa?$AAs?$AAe?$AAS?$AAy?$AAs?$AAI?$AAn?$AAt?$AAr?$AA?$CI?$AA?$CF?$AAd?$AA?$CJ?$AA?$AN?$AA?6?$AA?$AA@| [ DATA ] ; `string'

  00000			 AREA	 |.pdata|, PDATA
|$T43525| DCD	|$LN21@OALIntrRel|
	DCD	0x40003801

  00000			 AREA	 |.rdata|, DATA, READONLY
|??_C@_1EE@GBADJBKJ@?$AA?9?$AAO?$AAA?$AAL?$AAI?$AAn?$AAt?$AAr?$AAR?$AAe?$AAl?$AAe?$AAa?$AAs?$AAe?$AAS?$AAy?$AAs?$AAI?$AAn?$AAt?$AAr?$AA?$CI?$AAr?$AAc?$AA?5?$AA?$DN?$AA?5?$AA?$CF?$AAd?$AA?$CJ?$AA?$AN@| DCB "-"
	DCB	0x0, "O", 0x0, "A", 0x0, "L", 0x0, "I", 0x0, "n", 0x0, "t"
	DCB	0x0, "r", 0x0, "R", 0x0, "e", 0x0, "l", 0x0, "e", 0x0, "a"
	DCB	0x0, "s", 0x0, "e", 0x0, "S", 0x0, "y", 0x0, "s", 0x0, "I"
	DCB	0x0, "n", 0x0, "t", 0x0, "r", 0x0, "(", 0x0, "r", 0x0, "c"
	DCB	0x0, " ", 0x0, "=", 0x0, " ", 0x0, "%", 0x0, "d", 0x0, ")"
	DCB	0x0, 0xd, 0x0, 0xa, 0x0, 0x0, 0x0	; `string'

  00000			 AREA	 |.rdata|, DATA, READONLY
|??_C@_1HC@BIEMDHNG@?$AAE?$AAR?$AAR?$AAO?$AAR?$AA?3?$AA?5?$AAO?$AAA?$AAL?$AAI?$AAn?$AAt?$AAr?$AAR?$AAe?$AAl?$AAe?$AAa?$AAs?$AAe?$AAS?$AAy?$AAs?$AAI?$AAn?$AAt?$AAr?$AA?3?$AA?5?$AAI?$AAn@| DCB "E"
	DCB	0x0, "R", 0x0, "R", 0x0, "O", 0x0, "R", 0x0, ":", 0x0, " "
	DCB	0x0, "O", 0x0, "A", 0x0, "L", 0x0, "I", 0x0, "n", 0x0, "t"
	DCB	0x0, "r", 0x0, "R", 0x0, "e", 0x0, "l", 0x0, "e", 0x0, "a"
	DCB	0x0, "s", 0x0, "e", 0x0, "S", 0x0, "y", 0x0, "s", 0x0, "I"
	DCB	0x0, "n", 0x0, "t", 0x0, "r", 0x0, ":", 0x0, " ", 0x0, "I"
	DCB	0x0, "n", 0x0, "v", 0x0, "a", 0x0, "l", 0x0, "i", 0x0, "d"
	DCB	0x0, " ", 0x0, "s", 0x0, "y", 0x0, "s", 0x0, "I", 0x0, "n"
	DCB	0x0, "t", 0x0, "r", 0x0, " ", 0x0, "v", 0x0, "a", 0x0, "l"
	DCB	0x0, "u", 0x0, "e", 0x0, " ", 0x0, "%", 0x0, "d", 0x0, 0xd
	DCB	0x0, 0xa, 0x0, 0x0, 0x0			; `string'

  00000			 AREA	 |.rdata|, DATA, READONLY
|??_C@_1DK@GDEEGDPM@?$AA?$CL?$AAO?$AAA?$AAL?$AAI?$AAn?$AAt?$AAr?$AAR?$AAe?$AAl?$AAe?$AAa?$AAs?$AAe?$AAS?$AAy?$AAs?$AAI?$AAn?$AAt?$AAr?$AA?$CI?$AA?$CF?$AAd?$AA?$CJ?$AA?$AN?$AA?6?$AA?$AA@| DCB "+"
	DCB	0x0, "O", 0x0, "A", 0x0, "L", 0x0, "I", 0x0, "n", 0x0, "t"
	DCB	0x0, "r", 0x0, "R", 0x0, "e", 0x0, "l", 0x0, "e", 0x0, "a"
	DCB	0x0, "s", 0x0, "e", 0x0, "S", 0x0, "y", 0x0, "s", 0x0, "I"
	DCB	0x0, "n", 0x0, "t", 0x0, "r", 0x0, "(", 0x0, "%", 0x0, "d"
	DCB	0x0, ")", 0x0, 0xd, 0x0, 0xa, 0x0, 0x0, 0x0 ; `string'
; Function compile flags: /Ogspy

  00000			 AREA	 |.text|, CODE, ARM

  00000		 |OALIntrReleaseSysIntr| PROC

; 279  : {

  00000		 |$LN21@OALIntrRel|
  00000	e92d40f0	 stmdb       sp!, {r4 - r7, lr}
  00004		 |$M43522|
  00004	e1a05000	 mov         r5, r0

; 280  :     BOOL rc = TRUE;
; 281  : 
; 282  :     UINT32 i, irq;
; 283  : 
; 284  :     OALMSG(OAL_INTR&&OAL_FUNC, (L"+OALIntrReleaseSysIntr(%d)\r\n", sysIntr));

  00008	e59f60cc	 ldr         r6, [pc, #0xCC]
  0000c	e3a04001	 mov         r4, #1
  00010	e5962440	 ldr         r2, [r6, #0x440]
  00014	e3120901	 tst         r2, #1, 18
  00018	0a000005	 beq         |$LN11@OALIntrRel|
  0001c	e3120004	 tst         r2, #4
  00020	0a000003	 beq         |$LN11@OALIntrRel|
  00024	e59f00ac	 ldr         r0, [pc, #0xAC]
  00028	e1a01005	 mov         r1, r5
  0002c	eb000000	 bl          NKDbgPrintfW
  00030	e5962440	 ldr         r2, [r6, #0x440]
  00034		 |$LN11@OALIntrRel|

; 285  : 
; 286  :     if ((sysIntr < SYSINTR_DEVICES) || (sysIntr >= SYSINTR_MAXIMUM))

  00034	e2453008	 sub         r3, r5, #8
  00038	e353003f	 cmp         r3, #0x3F
  0003c	8a000013	 bhi         |$LN7@OALIntrRel|

; 292  :         goto cleanUp;
; 293  :         }
; 294  : 
; 295  :         
; 296  :     // Release all mapping for given SYSINTR
; 297  :     for (i = 0; i < OMAP_IRQ_PER_SYSINTR; i++)

  00040	e59f608c	 ldr         r6, [pc, #0x8C]
  00044	e0853105	 add         r3, r5, r5, lsl #2
  00048	e3a0e005	 mov         lr, #5
  0004c	e0861103	 add         r1, r6, r3, lsl #2
  00050	e3e07000	 mvn         r7, #0
  00054		 |$LL6@OALIntrRel|

; 298  :         {
; 299  :         if (s_oalSysIntr2Irq[sysIntr][i] == (DWORD) OAL_INTR_IRQ_UNDEFINED) continue;

  00054	e5913000	 ldr         r3, [r1]
  00058	e3730001	 cmn         r3, #1
  0005c	0a000007	 beq         |$LN5@OALIntrRel|

; 300  :         // Remove the SYSINTR -> IRQ mapping
; 301  :         irq = s_oalSysIntr2Irq[sysIntr][i];
; 302  :         s_oalSysIntr2Irq[sysIntr][i] = (DWORD) OAL_INTR_IRQ_UNDEFINED;
; 303  :         // If there is IRQ -> SYSINTR for this IRQ release it also
; 304  :         if (irq >= OMAP_IRQ_MAXIMUM) 

  00060	e3530d05	 cmp         r3, #5, 26

; 305  :             {
; 306  :             rc = FALSE;

  00064	23a04000	 movcs       r4, #0
  00068	e5817000	 str         r7, [r1]
  0006c	2a000003	 bcs         |$LN5@OALIntrRel|

; 307  :             continue;
; 308  :             }
; 309  :         if (s_oalIrq2SysIntr[irq] == sysIntr)

  00070	e2860e5a	 add         r0, r6, #0x5A, 28
  00074	e7b03103	 ldr         r3, [r0, +r3, lsl #2]!
  00078	e1530005	 cmp         r3, r5

; 310  :             {
; 311  :             s_oalIrq2SysIntr[irq] = (DWORD) SYSINTR_UNDEFINED;

  0007c	05807000	 streq       r7, [r0]
  00080		 |$LN5@OALIntrRel|
  00080	e2811004	 add         r1, r1, #4
  00084	e25ee001	 subs        lr, lr, #1
  00088	1afffff1	 bne         |$LL6@OALIntrRel|

; 285  : 
; 286  :     if ((sysIntr < SYSINTR_DEVICES) || (sysIntr >= SYSINTR_MAXIMUM))

  0008c	ea000006	 b           |$cleanUp$43300|
  00090		 |$LN7@OALIntrRel|

; 287  :         {
; 288  :         OALMSG(OAL_ERROR, (L"ERROR: OALIntrReleaseSysIntr: "
; 289  :             L"Invalid sysIntr value %d\r\n", sysIntr
; 290  :             ));

  00090	e3120001	 tst         r2, #1
  00094	0a000003	 beq         |$LN13@OALIntrRel|
  00098	e59f0030	 ldr         r0, [pc, #0x30]
  0009c	e1a01005	 mov         r1, r5
  000a0	eb000000	 bl          NKDbgPrintfW
  000a4	e5962440	 ldr         r2, [r6, #0x440]
  000a8		 |$LN13@OALIntrRel|

; 291  :         rc = FALSE;

  000a8	e3a04000	 mov         r4, #0
  000ac		 |$cleanUp$43300|

; 312  :             }
; 313  :         }
; 314  : 
; 315  : cleanUp:
; 316  :     OALMSG(OAL_INTR&&OAL_FUNC, (L"-OALIntrReleaseSysIntr(rc = %d)\r\n", rc));

  000ac	e3120901	 tst         r2, #1, 18
  000b0	13120004	 tstne       r2, #4
  000b4	159f0010	 ldrne       r0, [pc, #0x10]
  000b8	11a01004	 movne       r1, r4
  000bc	1b000000	 blne        NKDbgPrintfW

; 317  : 
; 318  :     return rc;
; 319  : }

  000c0	e1a00004	 mov         r0, r4
  000c4	e8bd40f0	 ldmia       sp!, {r4 - r7, lr}
  000c8	e12fff1e	 bx          lr
  000cc		 |$LN22@OALIntrRel|
  000cc		 |$LN23@OALIntrRel|
  000cc	00000000	 DCD         |??_C@_1EE@GBADJBKJ@?$AA?9?$AAO?$AAA?$AAL?$AAI?$AAn?$AAt?$AAr?$AAR?$AAe?$AAl?$AAe?$AAa?$AAs?$AAe?$AAS?$AAy?$AAs?$AAI?$AAn?$AAt?$AAr?$AA?$CI?$AAr?$AAc?$AA?5?$AA?$DN?$AA?5?$AA?$CF?$AAd?$AA?$CJ?$AA?$AN@|
  000d0		 |$LN24@OALIntrRel|
  000d0	00000000	 DCD         |??_C@_1HC@BIEMDHNG@?$AAE?$AAR?$AAR?$AAO?$AAR?$AA?3?$AA?5?$AAO?$AAA?$AAL?$AAI?$AAn?$AAt?$AAr?$AAR?$AAe?$AAl?$AAe?$AAa?$AAs?$AAe?$AAS?$AAy?$AAs?$AAI?$AAn?$AAt?$AAr?$AA?3?$AA?5?$AAI?$AAn@|
  000d4		 |$LN25@OALIntrRel|
  000d4	00000000	 DCD         |s_oalSysIntr2Irq|
  000d8		 |$LN26@OALIntrRel|
  000d8	00000000	 DCD         |??_C@_1DK@GDEEGDPM@?$AA?$CL?$AAO?$AAA?$AAL?$AAI?$AAn?$AAt?$AAr?$AAR?$AAe?$AAl?$AAe?$AAa?$AAs?$AAe?$AAS?$AAy?$AAs?$AAI?$AAn?$AAt?$AAr?$AA?$CI?$AA?$CF?$AAd?$AA?$CJ?$AA?$AN?$AA?6?$AA?$AA@|
  000dc		 |$LN27@OALIntrRel|
  000dc	00000000	 DCD         |dpCurSettings|
  000e0		 |$M43523|

			 ENDP  ; |OALIntrReleaseSysIntr|

	END
